	.text
	.file	"source.cpp"
	.section	.text.startup,"ax",@progbits
	.p2align	4, 0x90                         # -- Begin function __cxx_global_var_init
	.type	__cxx_global_var_init,@function
__cxx_global_var_init:                  # @__cxx_global_var_init
	.cfi_startproc
# %bb.0:
	pushq	%rbp
	.cfi_def_cfa_offset 16
	.cfi_offset %rbp, -16
	movq	%rsp, %rbp
	.cfi_def_cfa_register %rbp
	movl	$_ZStL8__ioinit, %edi
	callq	_ZNSt8ios_base4InitC1Ev@PLT
	movq	_ZNSt8ios_base4InitD1Ev@GOTPCREL(%rip), %rdi
	movl	$_ZStL8__ioinit, %esi
	movl	$__dso_handle, %edx
	callq	__cxa_atexit@PLT
	popq	%rbp
	.cfi_def_cfa %rsp, 8
	retq
.Lfunc_end0:
	.size	__cxx_global_var_init, .Lfunc_end0-__cxx_global_var_init
	.cfi_endproc
                                        # -- End function
	.text
	.globl	_Z26decisionTreeClassificationRKSt6vectorI9DataPointSaIS0_EERKS0_ # -- Begin function _Z26decisionTreeClassificationRKSt6vectorI9DataPointSaIS0_EERKS0_
	.p2align	4, 0x90
	.type	_Z26decisionTreeClassificationRKSt6vectorI9DataPointSaIS0_EERKS0_,@function
_Z26decisionTreeClassificationRKSt6vectorI9DataPointSaIS0_EERKS0_: # @_Z26decisionTreeClassificationRKSt6vectorI9DataPointSaIS0_EERKS0_
	.cfi_startproc
# %bb.0:
	pushq	%rbp
	.cfi_def_cfa_offset 16
	.cfi_offset %rbp, -16
	movq	%rsp, %rbp
	.cfi_def_cfa_register %rbp
	subq	$16, %rsp
	movq	%rdi, -16(%rbp)
	movq	%rsi, -8(%rbp)
	callq	rand@PLT
	movl	$2, %ecx
	cltd
	idivl	%ecx
	cvtsi2sd	%edx, %xmm0
	addq	$16, %rsp
	popq	%rbp
	.cfi_def_cfa %rsp, 8
	retq
.Lfunc_end1:
	.size	_Z26decisionTreeClassificationRKSt6vectorI9DataPointSaIS0_EERKS0_, .Lfunc_end1-_Z26decisionTreeClassificationRKSt6vectorI9DataPointSaIS0_EERKS0_
	.cfi_endproc
                                        # -- End function
	.section	.rodata.cst16,"aM",@progbits,16
	.p2align	4                               # -- Begin function main
.LCPI2_0:
	.long	1127219200                      # 0x43300000
	.long	1160773632                      # 0x45300000
	.long	0                               # 0x0
	.long	0                               # 0x0
.LCPI2_1:
	.quad	0x4330000000000000              # double 4503599627370496
	.quad	0x4530000000000000              # double 1.9342813113834067E+25
	.section	.rodata.cst8,"aM",@progbits,8
	.p2align	3
.LCPI2_2:
	.quad	0x3ff0000000000000              # double 1
	.text
	.globl	main
	.p2align	4, 0x90
	.type	main,@function
main:                                   # @main
.Lfunc_begin0:
	.cfi_startproc
	.cfi_personality 3, __gxx_personality_v0
	.cfi_lsda 3, .Lexception0
# %bb.0:
	pushq	%rbp
	.cfi_def_cfa_offset 16
	.cfi_offset %rbp, -16
	movq	%rsp, %rbp
	.cfi_def_cfa_register %rbp
	pushq	%rbx
	subq	$1160, %rsp                     # imm = 0x488
	.cfi_offset %rbx, -24
	movl	$0, -20(%rbp)
	leaq	-1168(%rbp), %rbx
	movq	%rbx, %rdi
	movl	$.L.str, %esi
	movl	$8, %edx
	callq	_ZNSt14basic_ifstreamIcSt11char_traitsIcEEC1EPKcSt13_Ios_Openmode@PLT
.Ltmp0:
	movq	%rbx, %rdi
	callq	_ZNSt14basic_ifstreamIcSt11char_traitsIcEE7is_openEv@PLT
.Ltmp1:
	jmp	.LBB2_1
.LBB2_1:
	testb	$1, %al
	jne	.LBB2_6
	jmp	.LBB2_2
.LBB2_2:
.Ltmp2:
	movq	_ZSt4cerr@GOTPCREL(%rip), %rdi
	movl	$.L.str.1, %esi
	callq	_ZStlsISt11char_traitsIcEERSt13basic_ostreamIcT_ES5_PKc@PLT
.Ltmp3:
	jmp	.LBB2_3
.LBB2_3:
.Ltmp4:
	movq	_ZSt4endlIcSt11char_traitsIcEERSt13basic_ostreamIT_T0_ES6_@GOTPCREL(%rip), %rsi
	movq	%rax, %rdi
	callq	_ZNSolsEPFRSoS_E@PLT
.Ltmp5:
	jmp	.LBB2_4
.LBB2_4:
	movl	$1, -20(%rbp)
	movl	$1, -52(%rbp)
	jmp	.LBB2_55
.LBB2_5:
.Ltmp6:
	movq	%rax, -48(%rbp)
	movl	%edx, -24(%rbp)
	jmp	.LBB2_56
.LBB2_6:
	leaq	-168(%rbp), %rdi
	callq	_ZNSt6vectorI9DataPointSaIS0_EEC2Ev
	leaq	-144(%rbp), %rdi
	callq	_ZNSt6vectorI9DataPointSaIS0_EEC2Ev
	leaq	-264(%rbp), %rbx
	movq	%rbx, %rdi
	callq	_ZNSt7__cxx1112basic_stringIcSt11char_traitsIcESaIcEEC1Ev@PLT
.Ltmp7:
	leaq	-1168(%rbp), %rdi
	movq	%rbx, %rsi
	callq	_ZSt7getlineIcSt11char_traitsIcESaIcEERSt13basic_istreamIT_T0_ES7_RNSt7__cxx1112basic_stringIS4_S5_T1_EE@PLT
.Ltmp8:
	jmp	.LBB2_7
.LBB2_7:
	jmp	.LBB2_8
.LBB2_8:                                # =>This Loop Header: Depth=1
                                        #     Child Loop BB2_13 Depth 2
.Ltmp9:
	leaq	-1168(%rbp), %rdi
	leaq	-264(%rbp), %rsi
	callq	_ZSt7getlineIcSt11char_traitsIcESaIcEERSt13basic_istreamIT_T0_ES7_RNSt7__cxx1112basic_stringIS4_S5_T1_EE@PLT
.Ltmp10:
	jmp	.LBB2_9
.LBB2_9:                                #   in Loop: Header=BB2_8 Depth=1
	movq	(%rax), %rcx
	movq	-24(%rcx), %rcx
	addq	%rcx, %rax
.Ltmp11:
	movq	%rax, %rdi
	callq	_ZNKSt9basic_iosIcSt11char_traitsIcEEcvbEv@PLT
.Ltmp12:
	jmp	.LBB2_10
.LBB2_10:                               #   in Loop: Header=BB2_8 Depth=1
	testb	$1, %al
	jne	.LBB2_11
	jmp	.LBB2_39
.LBB2_11:                               #   in Loop: Header=BB2_8 Depth=1
.Ltmp25:
	leaq	-648(%rbp), %rdi
	leaq	-264(%rbp), %rsi
	movl	$8, %edx
	callq	_ZNSt7__cxx1119basic_istringstreamIcSt11char_traitsIcESaIcEEC1ERKNS_12basic_stringIcS2_S3_EESt13_Ios_Openmode@PLT
.Ltmp26:
	jmp	.LBB2_12
.LBB2_12:                               #   in Loop: Header=BB2_8 Depth=1
	leaq	-232(%rbp), %rdi
	callq	_ZNSt7__cxx1112basic_stringIcSt11char_traitsIcESaIcEEC1Ev@PLT
	leaq	-120(%rbp), %rdi
	callq	_ZNSt6vectorINSt7__cxx1112basic_stringIcSt11char_traitsIcESaIcEEESaIS5_EEC2Ev
	leaq	-200(%rbp), %rdi
	callq	_ZNSt7__cxx1112basic_stringIcSt11char_traitsIcESaIcEEC1Ev@PLT
	movl	$0, -12(%rbp)
.LBB2_13:                               #   Parent Loop BB2_8 Depth=1
                                        # =>  This Inner Loop Header: Depth=2
.Ltmp28:
	leaq	-648(%rbp), %rdi
	leaq	-232(%rbp), %rsi
	movl	$44, %edx
	callq	_ZSt7getlineIcSt11char_traitsIcESaIcEERSt13basic_istreamIT_T0_ES7_RNSt7__cxx1112basic_stringIS4_S5_T1_EES4_@PLT
.Ltmp29:
	jmp	.LBB2_14
.LBB2_14:                               #   in Loop: Header=BB2_13 Depth=2
	movq	(%rax), %rcx
	movq	-24(%rcx), %rcx
	addq	%rcx, %rax
.Ltmp30:
	movq	%rax, %rdi
	callq	_ZNKSt9basic_iosIcSt11char_traitsIcEEcvbEv@PLT
.Ltmp31:
	jmp	.LBB2_15
.LBB2_15:                               #   in Loop: Header=BB2_13 Depth=2
	testb	$1, %al
	jne	.LBB2_16
	jmp	.LBB2_33
.LBB2_16:                               #   in Loop: Header=BB2_13 Depth=2
	cmpl	$6, -12(%rbp)
	jge	.LBB2_27
# %bb.17:                               #   in Loop: Header=BB2_13 Depth=2
.Ltmp39:
	leaq	-120(%rbp), %rdi
	leaq	-232(%rbp), %rsi
	callq	_ZNSt6vectorINSt7__cxx1112basic_stringIcSt11char_traitsIcESaIcEEESaIS5_EE9push_backERKS5_
.Ltmp40:
	jmp	.LBB2_18
.LBB2_18:                               #   in Loop: Header=BB2_13 Depth=2
	jmp	.LBB2_31
.LBB2_19:                               # %.loopexit
.Ltmp24:
	jmp	.LBB2_23
.LBB2_20:                               # %.loopexit.split-lp.loopexit
.Ltmp27:
	jmp	.LBB2_22
.LBB2_21:                               # %.loopexit.split-lp.loopexit.split-lp
.Ltmp19:
	jmp	.LBB2_22
.LBB2_22:                               # %.loopexit.split-lp
	jmp	.LBB2_23
.LBB2_23:
	movq	%rax, -48(%rbp)
	movl	%edx, -24(%rbp)
	jmp	.LBB2_54
.LBB2_24:                               # %.loopexit1
.Ltmp41:
	jmp	.LBB2_26
.LBB2_25:                               # %.loopexit.split-lp2
.Ltmp36:
	jmp	.LBB2_26
.LBB2_26:
	movq	%rax, -48(%rbp)
	movl	%edx, -24(%rbp)
	leaq	-200(%rbp), %rdi
	callq	_ZNSt7__cxx1112basic_stringIcSt11char_traitsIcESaIcEED1Ev@PLT
	leaq	-120(%rbp), %rdi
	callq	_ZNSt6vectorINSt7__cxx1112basic_stringIcSt11char_traitsIcESaIcEEESaIS5_EED2Ev
	leaq	-232(%rbp), %rdi
	callq	_ZNSt7__cxx1112basic_stringIcSt11char_traitsIcESaIcEED1Ev@PLT
	leaq	-648(%rbp), %rdi
	callq	_ZNSt7__cxx1119basic_istringstreamIcSt11char_traitsIcESaIcEED1Ev@PLT
	jmp	.LBB2_54
.LBB2_27:                               #   in Loop: Header=BB2_13 Depth=2
	cmpl	$6, -12(%rbp)
	jne	.LBB2_30
# %bb.28:                               #   in Loop: Header=BB2_13 Depth=2
.Ltmp37:
	leaq	-200(%rbp), %rdi
	leaq	-232(%rbp), %rsi
	callq	_ZNSt7__cxx1112basic_stringIcSt11char_traitsIcESaIcEEaSERKS4_@PLT
.Ltmp38:
	jmp	.LBB2_29
.LBB2_29:                               #   in Loop: Header=BB2_13 Depth=2
	jmp	.LBB2_30
.LBB2_30:                               #   in Loop: Header=BB2_13 Depth=2
	jmp	.LBB2_31
.LBB2_31:                               #   in Loop: Header=BB2_13 Depth=2
	jmp	.LBB2_32
.LBB2_32:                               #   in Loop: Header=BB2_13 Depth=2
	movl	-12(%rbp), %eax
	addl	$1, %eax
	movl	%eax, -12(%rbp)
	jmp	.LBB2_13
.LBB2_33:                               #   in Loop: Header=BB2_8 Depth=1
	callq	rand@PLT
	movl	$3, %ecx
	cltd
	idivl	%ecx
	cmpl	$0, %edx
	je	.LBB2_36
# %bb.34:                               #   in Loop: Header=BB2_8 Depth=1
.Ltmp34:
	leaq	-168(%rbp), %rdi
	leaq	-120(%rbp), %rsi
	leaq	-200(%rbp), %rdx
	callq	_ZNSt6vectorI9DataPointSaIS0_EE12emplace_backIJRS_INSt7__cxx1112basic_stringIcSt11char_traitsIcESaIcEEESaIS9_EERS9_EEEvDpOT_
.Ltmp35:
	jmp	.LBB2_35
.LBB2_35:                               #   in Loop: Header=BB2_8 Depth=1
	jmp	.LBB2_38
.LBB2_36:                               #   in Loop: Header=BB2_8 Depth=1
.Ltmp32:
	leaq	-144(%rbp), %rdi
	leaq	-120(%rbp), %rsi
	leaq	-200(%rbp), %rdx
	callq	_ZNSt6vectorI9DataPointSaIS0_EE12emplace_backIJRS_INSt7__cxx1112basic_stringIcSt11char_traitsIcESaIcEEESaIS9_EERS9_EEEvDpOT_
.Ltmp33:
	jmp	.LBB2_37
.LBB2_37:                               #   in Loop: Header=BB2_8 Depth=1
	jmp	.LBB2_38
.LBB2_38:                               #   in Loop: Header=BB2_8 Depth=1
	leaq	-200(%rbp), %rdi
	callq	_ZNSt7__cxx1112basic_stringIcSt11char_traitsIcESaIcEED1Ev@PLT
	leaq	-120(%rbp), %rdi
	callq	_ZNSt6vectorINSt7__cxx1112basic_stringIcSt11char_traitsIcESaIcEEESaIS5_EED2Ev
	leaq	-232(%rbp), %rdi
	callq	_ZNSt7__cxx1112basic_stringIcSt11char_traitsIcESaIcEED1Ev@PLT
	leaq	-648(%rbp), %rdi
	callq	_ZNSt7__cxx1119basic_istringstreamIcSt11char_traitsIcESaIcEED1Ev@PLT
	jmp	.LBB2_8
.LBB2_39:
	movl	$0, -16(%rbp)
	leaq	-144(%rbp), %rax
	movq	%rax, -72(%rbp)
	movq	-72(%rbp), %rdi
	callq	_ZNSt6vectorI9DataPointSaIS0_EE5beginEv
	movq	%rax, -40(%rbp)
	movq	-72(%rbp), %rdi
	callq	_ZNSt6vectorI9DataPointSaIS0_EE3endEv
	movq	%rax, -96(%rbp)
.LBB2_40:                               # =>This Inner Loop Header: Depth=1
	leaq	-40(%rbp), %rdi
	leaq	-96(%rbp), %rsi
	callq	_ZN9__gnu_cxxneIP9DataPointSt6vectorIS1_SaIS1_EEEEbRKNS_17__normal_iteratorIT_T0_EESB_
	testb	$1, %al
	jne	.LBB2_41
	jmp	.LBB2_50
.LBB2_41:                               #   in Loop: Header=BB2_40 Depth=1
	leaq	-40(%rbp), %rdi
	callq	_ZNK9__gnu_cxx17__normal_iteratorIP9DataPointSt6vectorIS1_SaIS1_EEEdeEv
	movq	%rax, -32(%rbp)
	movq	-32(%rbp), %rsi
	leaq	-168(%rbp), %rdi
	callq	_Z26decisionTreeClassificationRKSt6vectorI9DataPointSaIS0_EERKS0_
	movsd	%xmm0, -64(%rbp)
	movsd	-64(%rbp), %xmm0                # xmm0 = mem[0],zero
	xorps	%xmm1, %xmm1
	ucomisd	%xmm1, %xmm0
	jne	.LBB2_44
	jp	.LBB2_44
# %bb.42:                               #   in Loop: Header=BB2_40 Depth=1
	movq	-32(%rbp), %rdi
	addq	$24, %rdi
.Ltmp20:
	movl	$.L.str.2, %esi
	callq	_ZSteqIcSt11char_traitsIcESaIcEEbRKNSt7__cxx1112basic_stringIT_T0_T1_EEPKS5_
.Ltmp21:
	jmp	.LBB2_43
.LBB2_43:                               #   in Loop: Header=BB2_40 Depth=1
	testb	$1, %al
	jne	.LBB2_47
	jmp	.LBB2_44
.LBB2_44:                               #   in Loop: Header=BB2_40 Depth=1
	movsd	-64(%rbp), %xmm0                # xmm0 = mem[0],zero
	movsd	.LCPI2_2(%rip), %xmm1           # xmm1 = mem[0],zero
	ucomisd	%xmm1, %xmm0
	jne	.LBB2_48
	jp	.LBB2_48
# %bb.45:                               #   in Loop: Header=BB2_40 Depth=1
	movq	-32(%rbp), %rdi
	addq	$24, %rdi
.Ltmp22:
	movl	$.L.str.2, %esi
	callq	_ZStneIcSt11char_traitsIcESaIcEEbRKNSt7__cxx1112basic_stringIT_T0_T1_EEPKS5_
.Ltmp23:
	jmp	.LBB2_46
.LBB2_46:                               #   in Loop: Header=BB2_40 Depth=1
	testb	$1, %al
	jne	.LBB2_47
	jmp	.LBB2_48
.LBB2_47:                               #   in Loop: Header=BB2_40 Depth=1
	movl	-16(%rbp), %eax
	addl	$1, %eax
	movl	%eax, -16(%rbp)
.LBB2_48:                               #   in Loop: Header=BB2_40 Depth=1
	jmp	.LBB2_49
.LBB2_49:                               #   in Loop: Header=BB2_40 Depth=1
	leaq	-40(%rbp), %rdi
	callq	_ZN9__gnu_cxx17__normal_iteratorIP9DataPointSt6vectorIS1_SaIS1_EEEppEv
	jmp	.LBB2_40
.LBB2_50:
	cvtsi2sdl	-16(%rbp), %xmm0
	movsd	%xmm0, -80(%rbp)                # 8-byte Spill
	leaq	-144(%rbp), %rdi
	callq	_ZNKSt6vectorI9DataPointSaIS0_EE4sizeEv
	movq	%rax, %xmm0
	movaps	.LCPI2_0(%rip), %xmm1           # xmm1 = [1127219200,1160773632,0,0]
	punpckldq	%xmm1, %xmm0            # xmm0 = xmm0[0],xmm1[0],xmm0[1],xmm1[1]
	movapd	.LCPI2_1(%rip), %xmm1           # xmm1 = [4.503599627370496E+15,1.9342813113834067E+25]
	subpd	%xmm1, %xmm0
	movaps	%xmm0, %xmm1
	unpckhpd	%xmm1, %xmm1                    # xmm1 = xmm1[1,1]
	addsd	%xmm0, %xmm1
	movsd	-80(%rbp), %xmm0                # 8-byte Reload
                                        # xmm0 = mem[0],zero
	divsd	%xmm1, %xmm0
	movsd	%xmm0, -88(%rbp)
.Ltmp13:
	movq	_ZSt4cout@GOTPCREL(%rip), %rdi
	movl	$.L.str.3, %esi
	callq	_ZStlsISt11char_traitsIcEERSt13basic_ostreamIcT_ES5_PKc@PLT
.Ltmp14:
	jmp	.LBB2_51
.LBB2_51:
	movsd	-88(%rbp), %xmm0                # xmm0 = mem[0],zero
.Ltmp15:
	movq	%rax, %rdi
	callq	_ZNSolsEd@PLT
.Ltmp16:
	jmp	.LBB2_52
.LBB2_52:
.Ltmp17:
	movq	_ZSt4endlIcSt11char_traitsIcEERSt13basic_ostreamIT_T0_ES6_@GOTPCREL(%rip), %rsi
	movq	%rax, %rdi
	callq	_ZNSolsEPFRSoS_E@PLT
.Ltmp18:
	jmp	.LBB2_53
.LBB2_53:
	movl	$0, -20(%rbp)
	movl	$1, -52(%rbp)
	leaq	-264(%rbp), %rdi
	callq	_ZNSt7__cxx1112basic_stringIcSt11char_traitsIcESaIcEED1Ev@PLT
	leaq	-144(%rbp), %rdi
	callq	_ZNSt6vectorI9DataPointSaIS0_EED2Ev
	leaq	-168(%rbp), %rdi
	callq	_ZNSt6vectorI9DataPointSaIS0_EED2Ev
	jmp	.LBB2_55
.LBB2_54:
	leaq	-264(%rbp), %rdi
	callq	_ZNSt7__cxx1112basic_stringIcSt11char_traitsIcESaIcEED1Ev@PLT
	leaq	-144(%rbp), %rdi
	callq	_ZNSt6vectorI9DataPointSaIS0_EED2Ev
	leaq	-168(%rbp), %rdi
	callq	_ZNSt6vectorI9DataPointSaIS0_EED2Ev
	jmp	.LBB2_56
.LBB2_55:
	leaq	-1168(%rbp), %rdi
	callq	_ZNSt14basic_ifstreamIcSt11char_traitsIcEED1Ev@PLT
	movl	-20(%rbp), %eax
	addq	$1160, %rsp                     # imm = 0x488
	popq	%rbx
	popq	%rbp
	.cfi_def_cfa %rsp, 8
	retq
.LBB2_56:
	.cfi_def_cfa %rbp, 16
	leaq	-1168(%rbp), %rdi
	callq	_ZNSt14basic_ifstreamIcSt11char_traitsIcEED1Ev@PLT
# %bb.57:
	movq	-48(%rbp), %rdi
	callq	_Unwind_Resume@PLT
.Lfunc_end2:
	.size	main, .Lfunc_end2-main
	.cfi_endproc
	.section	.gcc_except_table,"a",@progbits
	.p2align	2
GCC_except_table2:
.Lexception0:
	.byte	255                             # @LPStart Encoding = omit
	.byte	255                             # @TType Encoding = omit
	.byte	1                               # Call site Encoding = uleb128
	.uleb128 .Lcst_end0-.Lcst_begin0
.Lcst_begin0:
	.uleb128 .Lfunc_begin0-.Lfunc_begin0    # >> Call Site 1 <<
	.uleb128 .Ltmp0-.Lfunc_begin0           #   Call between .Lfunc_begin0 and .Ltmp0
	.byte	0                               #     has no landing pad
	.byte	0                               #   On action: cleanup
	.uleb128 .Ltmp0-.Lfunc_begin0           # >> Call Site 2 <<
	.uleb128 .Ltmp5-.Ltmp0                  #   Call between .Ltmp0 and .Ltmp5
	.uleb128 .Ltmp6-.Lfunc_begin0           #     jumps to .Ltmp6
	.byte	0                               #   On action: cleanup
	.uleb128 .Ltmp7-.Lfunc_begin0           # >> Call Site 3 <<
	.uleb128 .Ltmp8-.Ltmp7                  #   Call between .Ltmp7 and .Ltmp8
	.uleb128 .Ltmp19-.Lfunc_begin0          #     jumps to .Ltmp19
	.byte	0                               #   On action: cleanup
	.uleb128 .Ltmp9-.Lfunc_begin0           # >> Call Site 4 <<
	.uleb128 .Ltmp26-.Ltmp9                 #   Call between .Ltmp9 and .Ltmp26
	.uleb128 .Ltmp27-.Lfunc_begin0          #     jumps to .Ltmp27
	.byte	0                               #   On action: cleanup
	.uleb128 .Ltmp28-.Lfunc_begin0          # >> Call Site 5 <<
	.uleb128 .Ltmp38-.Ltmp28                #   Call between .Ltmp28 and .Ltmp38
	.uleb128 .Ltmp41-.Lfunc_begin0          #     jumps to .Ltmp41
	.byte	0                               #   On action: cleanup
	.uleb128 .Ltmp34-.Lfunc_begin0          # >> Call Site 6 <<
	.uleb128 .Ltmp33-.Ltmp34                #   Call between .Ltmp34 and .Ltmp33
	.uleb128 .Ltmp36-.Lfunc_begin0          #     jumps to .Ltmp36
	.byte	0                               #   On action: cleanup
	.uleb128 .Ltmp20-.Lfunc_begin0          # >> Call Site 7 <<
	.uleb128 .Ltmp23-.Ltmp20                #   Call between .Ltmp20 and .Ltmp23
	.uleb128 .Ltmp24-.Lfunc_begin0          #     jumps to .Ltmp24
	.byte	0                               #   On action: cleanup
	.uleb128 .Ltmp13-.Lfunc_begin0          # >> Call Site 8 <<
	.uleb128 .Ltmp18-.Ltmp13                #   Call between .Ltmp13 and .Ltmp18
	.uleb128 .Ltmp19-.Lfunc_begin0          #     jumps to .Ltmp19
	.byte	0                               #   On action: cleanup
	.uleb128 .Ltmp18-.Lfunc_begin0          # >> Call Site 9 <<
	.uleb128 .Lfunc_end2-.Ltmp18            #   Call between .Ltmp18 and .Lfunc_end2
	.byte	0                               #     has no landing pad
	.byte	0                               #   On action: cleanup
.Lcst_end0:
	.p2align	2
                                        # -- End function
	.section	.text._ZNSt6vectorI9DataPointSaIS0_EEC2Ev,"axG",@progbits,_ZNSt6vectorI9DataPointSaIS0_EEC2Ev,comdat
	.weak	_ZNSt6vectorI9DataPointSaIS0_EEC2Ev # -- Begin function _ZNSt6vectorI9DataPointSaIS0_EEC2Ev
	.p2align	4, 0x90
	.type	_ZNSt6vectorI9DataPointSaIS0_EEC2Ev,@function
_ZNSt6vectorI9DataPointSaIS0_EEC2Ev:    # @_ZNSt6vectorI9DataPointSaIS0_EEC2Ev
	.cfi_startproc
# %bb.0:
	pushq	%rbp
	.cfi_def_cfa_offset 16
	.cfi_offset %rbp, -16
	movq	%rsp, %rbp
	.cfi_def_cfa_register %rbp
	subq	$16, %rsp
	movq	%rdi, -8(%rbp)
	movq	-8(%rbp), %rdi
	callq	_ZNSt12_Vector_baseI9DataPointSaIS0_EEC2Ev
	addq	$16, %rsp
	popq	%rbp
	.cfi_def_cfa %rsp, 8
	retq
.Lfunc_end3:
	.size	_ZNSt6vectorI9DataPointSaIS0_EEC2Ev, .Lfunc_end3-_ZNSt6vectorI9DataPointSaIS0_EEC2Ev
	.cfi_endproc
                                        # -- End function
	.section	.text._ZNSt6vectorINSt7__cxx1112basic_stringIcSt11char_traitsIcESaIcEEESaIS5_EEC2Ev,"axG",@progbits,_ZNSt6vectorINSt7__cxx1112basic_stringIcSt11char_traitsIcESaIcEEESaIS5_EEC2Ev,comdat
	.weak	_ZNSt6vectorINSt7__cxx1112basic_stringIcSt11char_traitsIcESaIcEEESaIS5_EEC2Ev # -- Begin function _ZNSt6vectorINSt7__cxx1112basic_stringIcSt11char_traitsIcESaIcEEESaIS5_EEC2Ev
	.p2align	4, 0x90
	.type	_ZNSt6vectorINSt7__cxx1112basic_stringIcSt11char_traitsIcESaIcEEESaIS5_EEC2Ev,@function
_ZNSt6vectorINSt7__cxx1112basic_stringIcSt11char_traitsIcESaIcEEESaIS5_EEC2Ev: # @_ZNSt6vectorINSt7__cxx1112basic_stringIcSt11char_traitsIcESaIcEEESaIS5_EEC2Ev
	.cfi_startproc
# %bb.0:
	pushq	%rbp
	.cfi_def_cfa_offset 16
	.cfi_offset %rbp, -16
	movq	%rsp, %rbp
	.cfi_def_cfa_register %rbp
	subq	$16, %rsp
	movq	%rdi, -8(%rbp)
	movq	-8(%rbp), %rdi
	callq	_ZNSt12_Vector_baseINSt7__cxx1112basic_stringIcSt11char_traitsIcESaIcEEESaIS5_EEC2Ev
	addq	$16, %rsp
	popq	%rbp
	.cfi_def_cfa %rsp, 8
	retq
.Lfunc_end4:
	.size	_ZNSt6vectorINSt7__cxx1112basic_stringIcSt11char_traitsIcESaIcEEESaIS5_EEC2Ev, .Lfunc_end4-_ZNSt6vectorINSt7__cxx1112basic_stringIcSt11char_traitsIcESaIcEEESaIS5_EEC2Ev
	.cfi_endproc
                                        # -- End function
	.section	.text._ZNSt6vectorINSt7__cxx1112basic_stringIcSt11char_traitsIcESaIcEEESaIS5_EE9push_backERKS5_,"axG",@progbits,_ZNSt6vectorINSt7__cxx1112basic_stringIcSt11char_traitsIcESaIcEEESaIS5_EE9push_backERKS5_,comdat
	.weak	_ZNSt6vectorINSt7__cxx1112basic_stringIcSt11char_traitsIcESaIcEEESaIS5_EE9push_backERKS5_ # -- Begin function _ZNSt6vectorINSt7__cxx1112basic_stringIcSt11char_traitsIcESaIcEEESaIS5_EE9push_backERKS5_
	.p2align	4, 0x90
	.type	_ZNSt6vectorINSt7__cxx1112basic_stringIcSt11char_traitsIcESaIcEEESaIS5_EE9push_backERKS5_,@function
_ZNSt6vectorINSt7__cxx1112basic_stringIcSt11char_traitsIcESaIcEEESaIS5_EE9push_backERKS5_: # @_ZNSt6vectorINSt7__cxx1112basic_stringIcSt11char_traitsIcESaIcEEESaIS5_EE9push_backERKS5_
	.cfi_startproc
# %bb.0:
	pushq	%rbp
	.cfi_def_cfa_offset 16
	.cfi_offset %rbp, -16
	movq	%rsp, %rbp
	.cfi_def_cfa_register %rbp
	pushq	%rbx
	subq	$24, %rsp
	.cfi_offset %rbx, -24
	movq	%rdi, -32(%rbp)
	movq	%rsi, -16(%rbp)
	movq	-32(%rbp), %rbx
	movq	8(%rbx), %rax
	cmpq	16(%rbx), %rax
	je	.LBB5_2
# %bb.1:
	movq	8(%rbx), %rsi
	movq	-16(%rbp), %rdx
	movq	%rbx, %rdi
	callq	_ZNSt16allocator_traitsISaINSt7__cxx1112basic_stringIcSt11char_traitsIcESaIcEEEEE9constructIS5_JRKS5_EEEvRS6_PT_DpOT0_
	movq	8(%rbx), %rax
	addq	$32, %rax
	movq	%rax, 8(%rbx)
	jmp	.LBB5_3
.LBB5_2:
	movq	%rbx, %rdi
	callq	_ZNSt6vectorINSt7__cxx1112basic_stringIcSt11char_traitsIcESaIcEEESaIS5_EE3endEv
	movq	%rax, -24(%rbp)
	movq	-16(%rbp), %rdx
	movq	-24(%rbp), %rsi
	movq	%rbx, %rdi
	callq	_ZNSt6vectorINSt7__cxx1112basic_stringIcSt11char_traitsIcESaIcEEESaIS5_EE17_M_realloc_insertIJRKS5_EEEvN9__gnu_cxx17__normal_iteratorIPS5_S7_EEDpOT_
.LBB5_3:
	addq	$24, %rsp
	popq	%rbx
	popq	%rbp
	.cfi_def_cfa %rsp, 8
	retq
.Lfunc_end5:
	.size	_ZNSt6vectorINSt7__cxx1112basic_stringIcSt11char_traitsIcESaIcEEESaIS5_EE9push_backERKS5_, .Lfunc_end5-_ZNSt6vectorINSt7__cxx1112basic_stringIcSt11char_traitsIcESaIcEEESaIS5_EE9push_backERKS5_
	.cfi_endproc
                                        # -- End function
	.section	.text._ZNSt6vectorI9DataPointSaIS0_EE12emplace_backIJRS_INSt7__cxx1112basic_stringIcSt11char_traitsIcESaIcEEESaIS9_EERS9_EEEvDpOT_,"axG",@progbits,_ZNSt6vectorI9DataPointSaIS0_EE12emplace_backIJRS_INSt7__cxx1112basic_stringIcSt11char_traitsIcESaIcEEESaIS9_EERS9_EEEvDpOT_,comdat
	.weak	_ZNSt6vectorI9DataPointSaIS0_EE12emplace_backIJRS_INSt7__cxx1112basic_stringIcSt11char_traitsIcESaIcEEESaIS9_EERS9_EEEvDpOT_ # -- Begin function _ZNSt6vectorI9DataPointSaIS0_EE12emplace_backIJRS_INSt7__cxx1112basic_stringIcSt11char_traitsIcESaIcEEESaIS9_EERS9_EEEvDpOT_
	.p2align	4, 0x90
	.type	_ZNSt6vectorI9DataPointSaIS0_EE12emplace_backIJRS_INSt7__cxx1112basic_stringIcSt11char_traitsIcESaIcEEESaIS9_EERS9_EEEvDpOT_,@function
_ZNSt6vectorI9DataPointSaIS0_EE12emplace_backIJRS_INSt7__cxx1112basic_stringIcSt11char_traitsIcESaIcEEESaIS9_EERS9_EEEvDpOT_: # @_ZNSt6vectorI9DataPointSaIS0_EE12emplace_backIJRS_INSt7__cxx1112basic_stringIcSt11char_traitsIcESaIcEEESaIS9_EERS9_EEEvDpOT_
	.cfi_startproc
# %bb.0:
	pushq	%rbp
	.cfi_def_cfa_offset 16
	.cfi_offset %rbp, -16
	movq	%rsp, %rbp
	.cfi_def_cfa_register %rbp
	pushq	%r15
	pushq	%r14
	pushq	%rbx
	subq	$40, %rsp
	.cfi_offset %rbx, -40
	.cfi_offset %r14, -32
	.cfi_offset %r15, -24
	movq	%rdi, -56(%rbp)
	movq	%rsi, -40(%rbp)
	movq	%rdx, -32(%rbp)
	movq	-56(%rbp), %rbx
	movq	8(%rbx), %rax
	cmpq	16(%rbx), %rax
	je	.LBB6_2
# %bb.1:
	movq	8(%rbx), %r14
	movq	-40(%rbp), %rdi
	callq	_ZSt7forwardIRSt6vectorINSt7__cxx1112basic_stringIcSt11char_traitsIcESaIcEEESaIS6_EEEOT_RNSt16remove_referenceISA_E4typeE
	movq	%rax, %r15
	movq	-32(%rbp), %rdi
	callq	_ZSt7forwardIRNSt7__cxx1112basic_stringIcSt11char_traitsIcESaIcEEEEOT_RNSt16remove_referenceIS7_E4typeE
	movq	%rbx, %rdi
	movq	%r14, %rsi
	movq	%r15, %rdx
	movq	%rax, %rcx
	callq	_ZNSt16allocator_traitsISaI9DataPointEE9constructIS0_JRSt6vectorINSt7__cxx1112basic_stringIcSt11char_traitsIcESaIcEEESaISA_EERSA_EEEvRS1_PT_DpOT0_
	movq	8(%rbx), %rax
	addq	$56, %rax
	movq	%rax, 8(%rbx)
	jmp	.LBB6_3
.LBB6_2:
	movq	%rbx, %rdi
	callq	_ZNSt6vectorI9DataPointSaIS0_EE3endEv
	movq	%rax, -48(%rbp)
	movq	-40(%rbp), %rdi
	callq	_ZSt7forwardIRSt6vectorINSt7__cxx1112basic_stringIcSt11char_traitsIcESaIcEEESaIS6_EEEOT_RNSt16remove_referenceISA_E4typeE
	movq	%rax, %r14
	movq	-32(%rbp), %rdi
	callq	_ZSt7forwardIRNSt7__cxx1112basic_stringIcSt11char_traitsIcESaIcEEEEOT_RNSt16remove_referenceIS7_E4typeE
	movq	-48(%rbp), %rsi
	movq	%rbx, %rdi
	movq	%r14, %rdx
	movq	%rax, %rcx
	callq	_ZNSt6vectorI9DataPointSaIS0_EE17_M_realloc_insertIJRS_INSt7__cxx1112basic_stringIcSt11char_traitsIcESaIcEEESaIS9_EERS9_EEEvN9__gnu_cxx17__normal_iteratorIPS0_S2_EEDpOT_
.LBB6_3:
	addq	$40, %rsp
	popq	%rbx
	popq	%r14
	popq	%r15
	popq	%rbp
	.cfi_def_cfa %rsp, 8
	retq
.Lfunc_end6:
	.size	_ZNSt6vectorI9DataPointSaIS0_EE12emplace_backIJRS_INSt7__cxx1112basic_stringIcSt11char_traitsIcESaIcEEESaIS9_EERS9_EEEvDpOT_, .Lfunc_end6-_ZNSt6vectorI9DataPointSaIS0_EE12emplace_backIJRS_INSt7__cxx1112basic_stringIcSt11char_traitsIcESaIcEEESaIS9_EERS9_EEEvDpOT_
	.cfi_endproc
                                        # -- End function
	.section	.text._ZNSt6vectorINSt7__cxx1112basic_stringIcSt11char_traitsIcESaIcEEESaIS5_EED2Ev,"axG",@progbits,_ZNSt6vectorINSt7__cxx1112basic_stringIcSt11char_traitsIcESaIcEEESaIS5_EED2Ev,comdat
	.weak	_ZNSt6vectorINSt7__cxx1112basic_stringIcSt11char_traitsIcESaIcEEESaIS5_EED2Ev # -- Begin function _ZNSt6vectorINSt7__cxx1112basic_stringIcSt11char_traitsIcESaIcEEESaIS5_EED2Ev
	.p2align	4, 0x90
	.type	_ZNSt6vectorINSt7__cxx1112basic_stringIcSt11char_traitsIcESaIcEEESaIS5_EED2Ev,@function
_ZNSt6vectorINSt7__cxx1112basic_stringIcSt11char_traitsIcESaIcEEESaIS5_EED2Ev: # @_ZNSt6vectorINSt7__cxx1112basic_stringIcSt11char_traitsIcESaIcEEESaIS5_EED2Ev
.Lfunc_begin1:
	.cfi_startproc
	.cfi_personality 3, __gxx_personality_v0
	.cfi_lsda 3, .Lexception1
# %bb.0:
	pushq	%rbp
	.cfi_def_cfa_offset 16
	.cfi_offset %rbp, -16
	movq	%rsp, %rbp
	.cfi_def_cfa_register %rbp
	pushq	%r15
	pushq	%r14
	pushq	%rbx
	subq	$24, %rsp
	.cfi_offset %rbx, -40
	.cfi_offset %r14, -32
	.cfi_offset %r15, -24
	movq	%rdi, -40(%rbp)
	movq	-40(%rbp), %rbx
	movq	(%rbx), %r14
	movq	8(%rbx), %r15
	movq	%rbx, %rdi
	callq	_ZNSt12_Vector_baseINSt7__cxx1112basic_stringIcSt11char_traitsIcESaIcEEESaIS5_EE19_M_get_Tp_allocatorEv
.Ltmp42:
	movq	%r14, %rdi
	movq	%r15, %rsi
	movq	%rax, %rdx
	callq	_ZSt8_DestroyIPNSt7__cxx1112basic_stringIcSt11char_traitsIcESaIcEEES5_EvT_S7_RSaIT0_E
.Ltmp43:
	jmp	.LBB7_1
.LBB7_1:
	movq	%rbx, %rdi
	callq	_ZNSt12_Vector_baseINSt7__cxx1112basic_stringIcSt11char_traitsIcESaIcEEESaIS5_EED2Ev
	addq	$24, %rsp
	popq	%rbx
	popq	%r14
	popq	%r15
	popq	%rbp
	.cfi_def_cfa %rsp, 8
	retq
.LBB7_2:
	.cfi_def_cfa %rbp, 16
.Ltmp44:
	movq	%rax, -32(%rbp)
	movl	%edx, -44(%rbp)
	movq	%rbx, %rdi
	callq	_ZNSt12_Vector_baseINSt7__cxx1112basic_stringIcSt11char_traitsIcESaIcEEESaIS5_EED2Ev
# %bb.3:
	movq	-32(%rbp), %rdi
	callq	__clang_call_terminate
.Lfunc_end7:
	.size	_ZNSt6vectorINSt7__cxx1112basic_stringIcSt11char_traitsIcESaIcEEESaIS5_EED2Ev, .Lfunc_end7-_ZNSt6vectorINSt7__cxx1112basic_stringIcSt11char_traitsIcESaIcEEESaIS5_EED2Ev
	.cfi_endproc
	.section	.gcc_except_table._ZNSt6vectorINSt7__cxx1112basic_stringIcSt11char_traitsIcESaIcEEESaIS5_EED2Ev,"aG",@progbits,_ZNSt6vectorINSt7__cxx1112basic_stringIcSt11char_traitsIcESaIcEEESaIS5_EED2Ev,comdat
	.p2align	2
GCC_except_table7:
.Lexception1:
	.byte	255                             # @LPStart Encoding = omit
	.byte	3                               # @TType Encoding = udata4
	.uleb128 .Lttbase0-.Lttbaseref0
.Lttbaseref0:
	.byte	1                               # Call site Encoding = uleb128
	.uleb128 .Lcst_end1-.Lcst_begin1
.Lcst_begin1:
	.uleb128 .Ltmp42-.Lfunc_begin1          # >> Call Site 1 <<
	.uleb128 .Ltmp43-.Ltmp42                #   Call between .Ltmp42 and .Ltmp43
	.uleb128 .Ltmp44-.Lfunc_begin1          #     jumps to .Ltmp44
	.byte	1                               #   On action: 1
.Lcst_end1:
	.byte	1                               # >> Action Record 1 <<
                                        #   Catch TypeInfo 1
	.byte	0                               #   No further actions
	.p2align	2
                                        # >> Catch TypeInfos <<
	.long	0                               # TypeInfo 1
.Lttbase0:
	.p2align	2
                                        # -- End function
	.section	.text._ZNSt6vectorI9DataPointSaIS0_EE5beginEv,"axG",@progbits,_ZNSt6vectorI9DataPointSaIS0_EE5beginEv,comdat
	.weak	_ZNSt6vectorI9DataPointSaIS0_EE5beginEv # -- Begin function _ZNSt6vectorI9DataPointSaIS0_EE5beginEv
	.p2align	4, 0x90
	.type	_ZNSt6vectorI9DataPointSaIS0_EE5beginEv,@function
_ZNSt6vectorI9DataPointSaIS0_EE5beginEv: # @_ZNSt6vectorI9DataPointSaIS0_EE5beginEv
	.cfi_startproc
# %bb.0:
	pushq	%rbp
	.cfi_def_cfa_offset 16
	.cfi_offset %rbp, -16
	movq	%rsp, %rbp
	.cfi_def_cfa_register %rbp
	subq	$16, %rsp
	movq	%rdi, -8(%rbp)
	movq	-8(%rbp), %rsi
	leaq	-16(%rbp), %rdi
	callq	_ZN9__gnu_cxx17__normal_iteratorIP9DataPointSt6vectorIS1_SaIS1_EEEC2ERKS2_
	movq	-16(%rbp), %rax
	addq	$16, %rsp
	popq	%rbp
	.cfi_def_cfa %rsp, 8
	retq
.Lfunc_end8:
	.size	_ZNSt6vectorI9DataPointSaIS0_EE5beginEv, .Lfunc_end8-_ZNSt6vectorI9DataPointSaIS0_EE5beginEv
	.cfi_endproc
                                        # -- End function
	.section	.text._ZNSt6vectorI9DataPointSaIS0_EE3endEv,"axG",@progbits,_ZNSt6vectorI9DataPointSaIS0_EE3endEv,comdat
	.weak	_ZNSt6vectorI9DataPointSaIS0_EE3endEv # -- Begin function _ZNSt6vectorI9DataPointSaIS0_EE3endEv
	.p2align	4, 0x90
	.type	_ZNSt6vectorI9DataPointSaIS0_EE3endEv,@function
_ZNSt6vectorI9DataPointSaIS0_EE3endEv:  # @_ZNSt6vectorI9DataPointSaIS0_EE3endEv
	.cfi_startproc
# %bb.0:
	pushq	%rbp
	.cfi_def_cfa_offset 16
	.cfi_offset %rbp, -16
	movq	%rsp, %rbp
	.cfi_def_cfa_register %rbp
	subq	$16, %rsp
	movq	%rdi, -8(%rbp)
	movq	-8(%rbp), %rsi
	addq	$8, %rsi
	leaq	-16(%rbp), %rdi
	callq	_ZN9__gnu_cxx17__normal_iteratorIP9DataPointSt6vectorIS1_SaIS1_EEEC2ERKS2_
	movq	-16(%rbp), %rax
	addq	$16, %rsp
	popq	%rbp
	.cfi_def_cfa %rsp, 8
	retq
.Lfunc_end9:
	.size	_ZNSt6vectorI9DataPointSaIS0_EE3endEv, .Lfunc_end9-_ZNSt6vectorI9DataPointSaIS0_EE3endEv
	.cfi_endproc
                                        # -- End function
	.section	.text._ZN9__gnu_cxxneIP9DataPointSt6vectorIS1_SaIS1_EEEEbRKNS_17__normal_iteratorIT_T0_EESB_,"axG",@progbits,_ZN9__gnu_cxxneIP9DataPointSt6vectorIS1_SaIS1_EEEEbRKNS_17__normal_iteratorIT_T0_EESB_,comdat
	.weak	_ZN9__gnu_cxxneIP9DataPointSt6vectorIS1_SaIS1_EEEEbRKNS_17__normal_iteratorIT_T0_EESB_ # -- Begin function _ZN9__gnu_cxxneIP9DataPointSt6vectorIS1_SaIS1_EEEEbRKNS_17__normal_iteratorIT_T0_EESB_
	.p2align	4, 0x90
	.type	_ZN9__gnu_cxxneIP9DataPointSt6vectorIS1_SaIS1_EEEEbRKNS_17__normal_iteratorIT_T0_EESB_,@function
_ZN9__gnu_cxxneIP9DataPointSt6vectorIS1_SaIS1_EEEEbRKNS_17__normal_iteratorIT_T0_EESB_: # @_ZN9__gnu_cxxneIP9DataPointSt6vectorIS1_SaIS1_EEEEbRKNS_17__normal_iteratorIT_T0_EESB_
	.cfi_startproc
# %bb.0:
	pushq	%rbp
	.cfi_def_cfa_offset 16
	.cfi_offset %rbp, -16
	movq	%rsp, %rbp
	.cfi_def_cfa_register %rbp
	pushq	%rbx
	subq	$24, %rsp
	.cfi_offset %rbx, -24
	movq	%rdi, -24(%rbp)
	movq	%rsi, -16(%rbp)
	movq	-24(%rbp), %rdi
	callq	_ZNK9__gnu_cxx17__normal_iteratorIP9DataPointSt6vectorIS1_SaIS1_EEE4baseEv
	movq	(%rax), %rbx
	movq	-16(%rbp), %rdi
	callq	_ZNK9__gnu_cxx17__normal_iteratorIP9DataPointSt6vectorIS1_SaIS1_EEE4baseEv
	cmpq	(%rax), %rbx
	setne	%al
	andb	$1, %al
	movzbl	%al, %eax
	addq	$24, %rsp
	popq	%rbx
	popq	%rbp
	.cfi_def_cfa %rsp, 8
	retq
.Lfunc_end10:
	.size	_ZN9__gnu_cxxneIP9DataPointSt6vectorIS1_SaIS1_EEEEbRKNS_17__normal_iteratorIT_T0_EESB_, .Lfunc_end10-_ZN9__gnu_cxxneIP9DataPointSt6vectorIS1_SaIS1_EEEEbRKNS_17__normal_iteratorIT_T0_EESB_
	.cfi_endproc
                                        # -- End function
	.section	.text._ZNK9__gnu_cxx17__normal_iteratorIP9DataPointSt6vectorIS1_SaIS1_EEEdeEv,"axG",@progbits,_ZNK9__gnu_cxx17__normal_iteratorIP9DataPointSt6vectorIS1_SaIS1_EEEdeEv,comdat
	.weak	_ZNK9__gnu_cxx17__normal_iteratorIP9DataPointSt6vectorIS1_SaIS1_EEEdeEv # -- Begin function _ZNK9__gnu_cxx17__normal_iteratorIP9DataPointSt6vectorIS1_SaIS1_EEEdeEv
	.p2align	4, 0x90
	.type	_ZNK9__gnu_cxx17__normal_iteratorIP9DataPointSt6vectorIS1_SaIS1_EEEdeEv,@function
_ZNK9__gnu_cxx17__normal_iteratorIP9DataPointSt6vectorIS1_SaIS1_EEEdeEv: # @_ZNK9__gnu_cxx17__normal_iteratorIP9DataPointSt6vectorIS1_SaIS1_EEEdeEv
	.cfi_startproc
# %bb.0:
	pushq	%rbp
	.cfi_def_cfa_offset 16
	.cfi_offset %rbp, -16
	movq	%rsp, %rbp
	.cfi_def_cfa_register %rbp
	movq	%rdi, -8(%rbp)
	movq	-8(%rbp), %rax
	movq	(%rax), %rax
	popq	%rbp
	.cfi_def_cfa %rsp, 8
	retq
.Lfunc_end11:
	.size	_ZNK9__gnu_cxx17__normal_iteratorIP9DataPointSt6vectorIS1_SaIS1_EEEdeEv, .Lfunc_end11-_ZNK9__gnu_cxx17__normal_iteratorIP9DataPointSt6vectorIS1_SaIS1_EEEdeEv
	.cfi_endproc
                                        # -- End function
	.section	.text._ZSteqIcSt11char_traitsIcESaIcEEbRKNSt7__cxx1112basic_stringIT_T0_T1_EEPKS5_,"axG",@progbits,_ZSteqIcSt11char_traitsIcESaIcEEbRKNSt7__cxx1112basic_stringIT_T0_T1_EEPKS5_,comdat
	.weak	_ZSteqIcSt11char_traitsIcESaIcEEbRKNSt7__cxx1112basic_stringIT_T0_T1_EEPKS5_ # -- Begin function _ZSteqIcSt11char_traitsIcESaIcEEbRKNSt7__cxx1112basic_stringIT_T0_T1_EEPKS5_
	.p2align	4, 0x90
	.type	_ZSteqIcSt11char_traitsIcESaIcEEbRKNSt7__cxx1112basic_stringIT_T0_T1_EEPKS5_,@function
_ZSteqIcSt11char_traitsIcESaIcEEbRKNSt7__cxx1112basic_stringIT_T0_T1_EEPKS5_: # @_ZSteqIcSt11char_traitsIcESaIcEEbRKNSt7__cxx1112basic_stringIT_T0_T1_EEPKS5_
	.cfi_startproc
# %bb.0:
	pushq	%rbp
	.cfi_def_cfa_offset 16
	.cfi_offset %rbp, -16
	movq	%rsp, %rbp
	.cfi_def_cfa_register %rbp
	subq	$16, %rsp
	movq	%rdi, -16(%rbp)
	movq	%rsi, -8(%rbp)
	movq	-16(%rbp), %rdi
	movq	-8(%rbp), %rsi
	callq	_ZNKSt7__cxx1112basic_stringIcSt11char_traitsIcESaIcEE7compareEPKc@PLT
	cmpl	$0, %eax
	sete	%al
	andb	$1, %al
	movzbl	%al, %eax
	addq	$16, %rsp
	popq	%rbp
	.cfi_def_cfa %rsp, 8
	retq
.Lfunc_end12:
	.size	_ZSteqIcSt11char_traitsIcESaIcEEbRKNSt7__cxx1112basic_stringIT_T0_T1_EEPKS5_, .Lfunc_end12-_ZSteqIcSt11char_traitsIcESaIcEEbRKNSt7__cxx1112basic_stringIT_T0_T1_EEPKS5_
	.cfi_endproc
                                        # -- End function
	.section	.text._ZStneIcSt11char_traitsIcESaIcEEbRKNSt7__cxx1112basic_stringIT_T0_T1_EEPKS5_,"axG",@progbits,_ZStneIcSt11char_traitsIcESaIcEEbRKNSt7__cxx1112basic_stringIT_T0_T1_EEPKS5_,comdat
	.weak	_ZStneIcSt11char_traitsIcESaIcEEbRKNSt7__cxx1112basic_stringIT_T0_T1_EEPKS5_ # -- Begin function _ZStneIcSt11char_traitsIcESaIcEEbRKNSt7__cxx1112basic_stringIT_T0_T1_EEPKS5_
	.p2align	4, 0x90
	.type	_ZStneIcSt11char_traitsIcESaIcEEbRKNSt7__cxx1112basic_stringIT_T0_T1_EEPKS5_,@function
_ZStneIcSt11char_traitsIcESaIcEEbRKNSt7__cxx1112basic_stringIT_T0_T1_EEPKS5_: # @_ZStneIcSt11char_traitsIcESaIcEEbRKNSt7__cxx1112basic_stringIT_T0_T1_EEPKS5_
	.cfi_startproc
# %bb.0:
	pushq	%rbp
	.cfi_def_cfa_offset 16
	.cfi_offset %rbp, -16
	movq	%rsp, %rbp
	.cfi_def_cfa_register %rbp
	subq	$16, %rsp
	movq	%rdi, -16(%rbp)
	movq	%rsi, -8(%rbp)
	movq	-16(%rbp), %rdi
	movq	-8(%rbp), %rsi
	callq	_ZSteqIcSt11char_traitsIcESaIcEEbRKNSt7__cxx1112basic_stringIT_T0_T1_EEPKS5_
	xorb	$-1, %al
	andb	$1, %al
	movzbl	%al, %eax
	addq	$16, %rsp
	popq	%rbp
	.cfi_def_cfa %rsp, 8
	retq
.Lfunc_end13:
	.size	_ZStneIcSt11char_traitsIcESaIcEEbRKNSt7__cxx1112basic_stringIT_T0_T1_EEPKS5_, .Lfunc_end13-_ZStneIcSt11char_traitsIcESaIcEEbRKNSt7__cxx1112basic_stringIT_T0_T1_EEPKS5_
	.cfi_endproc
                                        # -- End function
	.section	.text._ZN9__gnu_cxx17__normal_iteratorIP9DataPointSt6vectorIS1_SaIS1_EEEppEv,"axG",@progbits,_ZN9__gnu_cxx17__normal_iteratorIP9DataPointSt6vectorIS1_SaIS1_EEEppEv,comdat
	.weak	_ZN9__gnu_cxx17__normal_iteratorIP9DataPointSt6vectorIS1_SaIS1_EEEppEv # -- Begin function _ZN9__gnu_cxx17__normal_iteratorIP9DataPointSt6vectorIS1_SaIS1_EEEppEv
	.p2align	4, 0x90
	.type	_ZN9__gnu_cxx17__normal_iteratorIP9DataPointSt6vectorIS1_SaIS1_EEEppEv,@function
_ZN9__gnu_cxx17__normal_iteratorIP9DataPointSt6vectorIS1_SaIS1_EEEppEv: # @_ZN9__gnu_cxx17__normal_iteratorIP9DataPointSt6vectorIS1_SaIS1_EEEppEv
	.cfi_startproc
# %bb.0:
	pushq	%rbp
	.cfi_def_cfa_offset 16
	.cfi_offset %rbp, -16
	movq	%rsp, %rbp
	.cfi_def_cfa_register %rbp
	movq	%rdi, -8(%rbp)
	movq	-8(%rbp), %rax
	movq	(%rax), %rcx
	addq	$56, %rcx
	movq	%rcx, (%rax)
	popq	%rbp
	.cfi_def_cfa %rsp, 8
	retq
.Lfunc_end14:
	.size	_ZN9__gnu_cxx17__normal_iteratorIP9DataPointSt6vectorIS1_SaIS1_EEEppEv, .Lfunc_end14-_ZN9__gnu_cxx17__normal_iteratorIP9DataPointSt6vectorIS1_SaIS1_EEEppEv
	.cfi_endproc
                                        # -- End function
	.section	.text._ZNKSt6vectorI9DataPointSaIS0_EE4sizeEv,"axG",@progbits,_ZNKSt6vectorI9DataPointSaIS0_EE4sizeEv,comdat
	.weak	_ZNKSt6vectorI9DataPointSaIS0_EE4sizeEv # -- Begin function _ZNKSt6vectorI9DataPointSaIS0_EE4sizeEv
	.p2align	4, 0x90
	.type	_ZNKSt6vectorI9DataPointSaIS0_EE4sizeEv,@function
_ZNKSt6vectorI9DataPointSaIS0_EE4sizeEv: # @_ZNKSt6vectorI9DataPointSaIS0_EE4sizeEv
	.cfi_startproc
# %bb.0:
	pushq	%rbp
	.cfi_def_cfa_offset 16
	.cfi_offset %rbp, -16
	movq	%rsp, %rbp
	.cfi_def_cfa_register %rbp
	movq	%rdi, -8(%rbp)
	movq	-8(%rbp), %rcx
	movq	8(%rcx), %rax
	movq	(%rcx), %rcx
	subq	%rcx, %rax
	movl	$56, %ecx
	cqto
	idivq	%rcx
	popq	%rbp
	.cfi_def_cfa %rsp, 8
	retq
.Lfunc_end15:
	.size	_ZNKSt6vectorI9DataPointSaIS0_EE4sizeEv, .Lfunc_end15-_ZNKSt6vectorI9DataPointSaIS0_EE4sizeEv
	.cfi_endproc
                                        # -- End function
	.section	.text._ZNSt6vectorI9DataPointSaIS0_EED2Ev,"axG",@progbits,_ZNSt6vectorI9DataPointSaIS0_EED2Ev,comdat
	.weak	_ZNSt6vectorI9DataPointSaIS0_EED2Ev # -- Begin function _ZNSt6vectorI9DataPointSaIS0_EED2Ev
	.p2align	4, 0x90
	.type	_ZNSt6vectorI9DataPointSaIS0_EED2Ev,@function
_ZNSt6vectorI9DataPointSaIS0_EED2Ev:    # @_ZNSt6vectorI9DataPointSaIS0_EED2Ev
.Lfunc_begin2:
	.cfi_startproc
	.cfi_personality 3, __gxx_personality_v0
	.cfi_lsda 3, .Lexception2
# %bb.0:
	pushq	%rbp
	.cfi_def_cfa_offset 16
	.cfi_offset %rbp, -16
	movq	%rsp, %rbp
	.cfi_def_cfa_register %rbp
	pushq	%r15
	pushq	%r14
	pushq	%rbx
	subq	$24, %rsp
	.cfi_offset %rbx, -40
	.cfi_offset %r14, -32
	.cfi_offset %r15, -24
	movq	%rdi, -40(%rbp)
	movq	-40(%rbp), %rbx
	movq	(%rbx), %r14
	movq	8(%rbx), %r15
	movq	%rbx, %rdi
	callq	_ZNSt12_Vector_baseI9DataPointSaIS0_EE19_M_get_Tp_allocatorEv
.Ltmp45:
	movq	%r14, %rdi
	movq	%r15, %rsi
	movq	%rax, %rdx
	callq	_ZSt8_DestroyIP9DataPointS0_EvT_S2_RSaIT0_E
.Ltmp46:
	jmp	.LBB16_1
.LBB16_1:
	movq	%rbx, %rdi
	callq	_ZNSt12_Vector_baseI9DataPointSaIS0_EED2Ev
	addq	$24, %rsp
	popq	%rbx
	popq	%r14
	popq	%r15
	popq	%rbp
	.cfi_def_cfa %rsp, 8
	retq
.LBB16_2:
	.cfi_def_cfa %rbp, 16
.Ltmp47:
	movq	%rax, -32(%rbp)
	movl	%edx, -44(%rbp)
	movq	%rbx, %rdi
	callq	_ZNSt12_Vector_baseI9DataPointSaIS0_EED2Ev
# %bb.3:
	movq	-32(%rbp), %rdi
	callq	__clang_call_terminate
.Lfunc_end16:
	.size	_ZNSt6vectorI9DataPointSaIS0_EED2Ev, .Lfunc_end16-_ZNSt6vectorI9DataPointSaIS0_EED2Ev
	.cfi_endproc
	.section	.gcc_except_table._ZNSt6vectorI9DataPointSaIS0_EED2Ev,"aG",@progbits,_ZNSt6vectorI9DataPointSaIS0_EED2Ev,comdat
	.p2align	2
GCC_except_table16:
.Lexception2:
	.byte	255                             # @LPStart Encoding = omit
	.byte	3                               # @TType Encoding = udata4
	.uleb128 .Lttbase1-.Lttbaseref1
.Lttbaseref1:
	.byte	1                               # Call site Encoding = uleb128
	.uleb128 .Lcst_end2-.Lcst_begin2
.Lcst_begin2:
	.uleb128 .Ltmp45-.Lfunc_begin2          # >> Call Site 1 <<
	.uleb128 .Ltmp46-.Ltmp45                #   Call between .Ltmp45 and .Ltmp46
	.uleb128 .Ltmp47-.Lfunc_begin2          #     jumps to .Ltmp47
	.byte	1                               #   On action: 1
.Lcst_end2:
	.byte	1                               # >> Action Record 1 <<
                                        #   Catch TypeInfo 1
	.byte	0                               #   No further actions
	.p2align	2
                                        # >> Catch TypeInfos <<
	.long	0                               # TypeInfo 1
.Lttbase1:
	.p2align	2
                                        # -- End function
	.section	.text._ZNSt12_Vector_baseI9DataPointSaIS0_EEC2Ev,"axG",@progbits,_ZNSt12_Vector_baseI9DataPointSaIS0_EEC2Ev,comdat
	.weak	_ZNSt12_Vector_baseI9DataPointSaIS0_EEC2Ev # -- Begin function _ZNSt12_Vector_baseI9DataPointSaIS0_EEC2Ev
	.p2align	4, 0x90
	.type	_ZNSt12_Vector_baseI9DataPointSaIS0_EEC2Ev,@function
_ZNSt12_Vector_baseI9DataPointSaIS0_EEC2Ev: # @_ZNSt12_Vector_baseI9DataPointSaIS0_EEC2Ev
	.cfi_startproc
# %bb.0:
	pushq	%rbp
	.cfi_def_cfa_offset 16
	.cfi_offset %rbp, -16
	movq	%rsp, %rbp
	.cfi_def_cfa_register %rbp
	subq	$16, %rsp
	movq	%rdi, -8(%rbp)
	movq	-8(%rbp), %rdi
	callq	_ZNSt12_Vector_baseI9DataPointSaIS0_EE12_Vector_implC2Ev
	addq	$16, %rsp
	popq	%rbp
	.cfi_def_cfa %rsp, 8
	retq
.Lfunc_end17:
	.size	_ZNSt12_Vector_baseI9DataPointSaIS0_EEC2Ev, .Lfunc_end17-_ZNSt12_Vector_baseI9DataPointSaIS0_EEC2Ev
	.cfi_endproc
                                        # -- End function
	.section	.text._ZNSt12_Vector_baseI9DataPointSaIS0_EE12_Vector_implC2Ev,"axG",@progbits,_ZNSt12_Vector_baseI9DataPointSaIS0_EE12_Vector_implC2Ev,comdat
	.weak	_ZNSt12_Vector_baseI9DataPointSaIS0_EE12_Vector_implC2Ev # -- Begin function _ZNSt12_Vector_baseI9DataPointSaIS0_EE12_Vector_implC2Ev
	.p2align	4, 0x90
	.type	_ZNSt12_Vector_baseI9DataPointSaIS0_EE12_Vector_implC2Ev,@function
_ZNSt12_Vector_baseI9DataPointSaIS0_EE12_Vector_implC2Ev: # @_ZNSt12_Vector_baseI9DataPointSaIS0_EE12_Vector_implC2Ev
	.cfi_startproc
# %bb.0:
	pushq	%rbp
	.cfi_def_cfa_offset 16
	.cfi_offset %rbp, -16
	movq	%rsp, %rbp
	.cfi_def_cfa_register %rbp
	pushq	%rbx
	pushq	%rax
	.cfi_offset %rbx, -24
	movq	%rdi, -16(%rbp)
	movq	-16(%rbp), %rbx
	movq	%rbx, %rdi
	callq	_ZNSaI9DataPointEC2Ev
	movq	%rbx, %rdi
	callq	_ZNSt12_Vector_baseI9DataPointSaIS0_EE17_Vector_impl_dataC2Ev
	addq	$8, %rsp
	popq	%rbx
	popq	%rbp
	.cfi_def_cfa %rsp, 8
	retq
.Lfunc_end18:
	.size	_ZNSt12_Vector_baseI9DataPointSaIS0_EE12_Vector_implC2Ev, .Lfunc_end18-_ZNSt12_Vector_baseI9DataPointSaIS0_EE12_Vector_implC2Ev
	.cfi_endproc
                                        # -- End function
	.section	.text._ZNSaI9DataPointEC2Ev,"axG",@progbits,_ZNSaI9DataPointEC2Ev,comdat
	.weak	_ZNSaI9DataPointEC2Ev           # -- Begin function _ZNSaI9DataPointEC2Ev
	.p2align	4, 0x90
	.type	_ZNSaI9DataPointEC2Ev,@function
_ZNSaI9DataPointEC2Ev:                  # @_ZNSaI9DataPointEC2Ev
	.cfi_startproc
# %bb.0:
	pushq	%rbp
	.cfi_def_cfa_offset 16
	.cfi_offset %rbp, -16
	movq	%rsp, %rbp
	.cfi_def_cfa_register %rbp
	subq	$16, %rsp
	movq	%rdi, -8(%rbp)
	movq	-8(%rbp), %rdi
	callq	_ZN9__gnu_cxx13new_allocatorI9DataPointEC2Ev
	addq	$16, %rsp
	popq	%rbp
	.cfi_def_cfa %rsp, 8
	retq
.Lfunc_end19:
	.size	_ZNSaI9DataPointEC2Ev, .Lfunc_end19-_ZNSaI9DataPointEC2Ev
	.cfi_endproc
                                        # -- End function
	.section	.text._ZNSt12_Vector_baseI9DataPointSaIS0_EE17_Vector_impl_dataC2Ev,"axG",@progbits,_ZNSt12_Vector_baseI9DataPointSaIS0_EE17_Vector_impl_dataC2Ev,comdat
	.weak	_ZNSt12_Vector_baseI9DataPointSaIS0_EE17_Vector_impl_dataC2Ev # -- Begin function _ZNSt12_Vector_baseI9DataPointSaIS0_EE17_Vector_impl_dataC2Ev
	.p2align	4, 0x90
	.type	_ZNSt12_Vector_baseI9DataPointSaIS0_EE17_Vector_impl_dataC2Ev,@function
_ZNSt12_Vector_baseI9DataPointSaIS0_EE17_Vector_impl_dataC2Ev: # @_ZNSt12_Vector_baseI9DataPointSaIS0_EE17_Vector_impl_dataC2Ev
	.cfi_startproc
# %bb.0:
	pushq	%rbp
	.cfi_def_cfa_offset 16
	.cfi_offset %rbp, -16
	movq	%rsp, %rbp
	.cfi_def_cfa_register %rbp
	movq	%rdi, -8(%rbp)
	movq	-8(%rbp), %rax
	movq	$0, (%rax)
	movq	$0, 8(%rax)
	movq	$0, 16(%rax)
	popq	%rbp
	.cfi_def_cfa %rsp, 8
	retq
.Lfunc_end20:
	.size	_ZNSt12_Vector_baseI9DataPointSaIS0_EE17_Vector_impl_dataC2Ev, .Lfunc_end20-_ZNSt12_Vector_baseI9DataPointSaIS0_EE17_Vector_impl_dataC2Ev
	.cfi_endproc
                                        # -- End function
	.section	.text._ZN9__gnu_cxx13new_allocatorI9DataPointEC2Ev,"axG",@progbits,_ZN9__gnu_cxx13new_allocatorI9DataPointEC2Ev,comdat
	.weak	_ZN9__gnu_cxx13new_allocatorI9DataPointEC2Ev # -- Begin function _ZN9__gnu_cxx13new_allocatorI9DataPointEC2Ev
	.p2align	4, 0x90
	.type	_ZN9__gnu_cxx13new_allocatorI9DataPointEC2Ev,@function
_ZN9__gnu_cxx13new_allocatorI9DataPointEC2Ev: # @_ZN9__gnu_cxx13new_allocatorI9DataPointEC2Ev
	.cfi_startproc
# %bb.0:
	pushq	%rbp
	.cfi_def_cfa_offset 16
	.cfi_offset %rbp, -16
	movq	%rsp, %rbp
	.cfi_def_cfa_register %rbp
	movq	%rdi, -8(%rbp)
	popq	%rbp
	.cfi_def_cfa %rsp, 8
	retq
.Lfunc_end21:
	.size	_ZN9__gnu_cxx13new_allocatorI9DataPointEC2Ev, .Lfunc_end21-_ZN9__gnu_cxx13new_allocatorI9DataPointEC2Ev
	.cfi_endproc
                                        # -- End function
	.section	.text._ZNSt12_Vector_baseINSt7__cxx1112basic_stringIcSt11char_traitsIcESaIcEEESaIS5_EEC2Ev,"axG",@progbits,_ZNSt12_Vector_baseINSt7__cxx1112basic_stringIcSt11char_traitsIcESaIcEEESaIS5_EEC2Ev,comdat
	.weak	_ZNSt12_Vector_baseINSt7__cxx1112basic_stringIcSt11char_traitsIcESaIcEEESaIS5_EEC2Ev # -- Begin function _ZNSt12_Vector_baseINSt7__cxx1112basic_stringIcSt11char_traitsIcESaIcEEESaIS5_EEC2Ev
	.p2align	4, 0x90
	.type	_ZNSt12_Vector_baseINSt7__cxx1112basic_stringIcSt11char_traitsIcESaIcEEESaIS5_EEC2Ev,@function
_ZNSt12_Vector_baseINSt7__cxx1112basic_stringIcSt11char_traitsIcESaIcEEESaIS5_EEC2Ev: # @_ZNSt12_Vector_baseINSt7__cxx1112basic_stringIcSt11char_traitsIcESaIcEEESaIS5_EEC2Ev
	.cfi_startproc
# %bb.0:
	pushq	%rbp
	.cfi_def_cfa_offset 16
	.cfi_offset %rbp, -16
	movq	%rsp, %rbp
	.cfi_def_cfa_register %rbp
	subq	$16, %rsp
	movq	%rdi, -8(%rbp)
	movq	-8(%rbp), %rdi
	callq	_ZNSt12_Vector_baseINSt7__cxx1112basic_stringIcSt11char_traitsIcESaIcEEESaIS5_EE12_Vector_implC2Ev
	addq	$16, %rsp
	popq	%rbp
	.cfi_def_cfa %rsp, 8
	retq
.Lfunc_end22:
	.size	_ZNSt12_Vector_baseINSt7__cxx1112basic_stringIcSt11char_traitsIcESaIcEEESaIS5_EEC2Ev, .Lfunc_end22-_ZNSt12_Vector_baseINSt7__cxx1112basic_stringIcSt11char_traitsIcESaIcEEESaIS5_EEC2Ev
	.cfi_endproc
                                        # -- End function
	.section	.text._ZNSt12_Vector_baseINSt7__cxx1112basic_stringIcSt11char_traitsIcESaIcEEESaIS5_EE12_Vector_implC2Ev,"axG",@progbits,_ZNSt12_Vector_baseINSt7__cxx1112basic_stringIcSt11char_traitsIcESaIcEEESaIS5_EE12_Vector_implC2Ev,comdat
	.weak	_ZNSt12_Vector_baseINSt7__cxx1112basic_stringIcSt11char_traitsIcESaIcEEESaIS5_EE12_Vector_implC2Ev # -- Begin function _ZNSt12_Vector_baseINSt7__cxx1112basic_stringIcSt11char_traitsIcESaIcEEESaIS5_EE12_Vector_implC2Ev
	.p2align	4, 0x90
	.type	_ZNSt12_Vector_baseINSt7__cxx1112basic_stringIcSt11char_traitsIcESaIcEEESaIS5_EE12_Vector_implC2Ev,@function
_ZNSt12_Vector_baseINSt7__cxx1112basic_stringIcSt11char_traitsIcESaIcEEESaIS5_EE12_Vector_implC2Ev: # @_ZNSt12_Vector_baseINSt7__cxx1112basic_stringIcSt11char_traitsIcESaIcEEESaIS5_EE12_Vector_implC2Ev
	.cfi_startproc
# %bb.0:
	pushq	%rbp
	.cfi_def_cfa_offset 16
	.cfi_offset %rbp, -16
	movq	%rsp, %rbp
	.cfi_def_cfa_register %rbp
	pushq	%rbx
	pushq	%rax
	.cfi_offset %rbx, -24
	movq	%rdi, -16(%rbp)
	movq	-16(%rbp), %rbx
	movq	%rbx, %rdi
	callq	_ZNSaINSt7__cxx1112basic_stringIcSt11char_traitsIcESaIcEEEEC2Ev
	movq	%rbx, %rdi
	callq	_ZNSt12_Vector_baseINSt7__cxx1112basic_stringIcSt11char_traitsIcESaIcEEESaIS5_EE17_Vector_impl_dataC2Ev
	addq	$8, %rsp
	popq	%rbx
	popq	%rbp
	.cfi_def_cfa %rsp, 8
	retq
.Lfunc_end23:
	.size	_ZNSt12_Vector_baseINSt7__cxx1112basic_stringIcSt11char_traitsIcESaIcEEESaIS5_EE12_Vector_implC2Ev, .Lfunc_end23-_ZNSt12_Vector_baseINSt7__cxx1112basic_stringIcSt11char_traitsIcESaIcEEESaIS5_EE12_Vector_implC2Ev
	.cfi_endproc
                                        # -- End function
	.section	.text._ZNSaINSt7__cxx1112basic_stringIcSt11char_traitsIcESaIcEEEEC2Ev,"axG",@progbits,_ZNSaINSt7__cxx1112basic_stringIcSt11char_traitsIcESaIcEEEEC2Ev,comdat
	.weak	_ZNSaINSt7__cxx1112basic_stringIcSt11char_traitsIcESaIcEEEEC2Ev # -- Begin function _ZNSaINSt7__cxx1112basic_stringIcSt11char_traitsIcESaIcEEEEC2Ev
	.p2align	4, 0x90
	.type	_ZNSaINSt7__cxx1112basic_stringIcSt11char_traitsIcESaIcEEEEC2Ev,@function
_ZNSaINSt7__cxx1112basic_stringIcSt11char_traitsIcESaIcEEEEC2Ev: # @_ZNSaINSt7__cxx1112basic_stringIcSt11char_traitsIcESaIcEEEEC2Ev
	.cfi_startproc
# %bb.0:
	pushq	%rbp
	.cfi_def_cfa_offset 16
	.cfi_offset %rbp, -16
	movq	%rsp, %rbp
	.cfi_def_cfa_register %rbp
	subq	$16, %rsp
	movq	%rdi, -8(%rbp)
	movq	-8(%rbp), %rdi
	callq	_ZN9__gnu_cxx13new_allocatorINSt7__cxx1112basic_stringIcSt11char_traitsIcESaIcEEEEC2Ev
	addq	$16, %rsp
	popq	%rbp
	.cfi_def_cfa %rsp, 8
	retq
.Lfunc_end24:
	.size	_ZNSaINSt7__cxx1112basic_stringIcSt11char_traitsIcESaIcEEEEC2Ev, .Lfunc_end24-_ZNSaINSt7__cxx1112basic_stringIcSt11char_traitsIcESaIcEEEEC2Ev
	.cfi_endproc
                                        # -- End function
	.section	.text._ZNSt12_Vector_baseINSt7__cxx1112basic_stringIcSt11char_traitsIcESaIcEEESaIS5_EE17_Vector_impl_dataC2Ev,"axG",@progbits,_ZNSt12_Vector_baseINSt7__cxx1112basic_stringIcSt11char_traitsIcESaIcEEESaIS5_EE17_Vector_impl_dataC2Ev,comdat
	.weak	_ZNSt12_Vector_baseINSt7__cxx1112basic_stringIcSt11char_traitsIcESaIcEEESaIS5_EE17_Vector_impl_dataC2Ev # -- Begin function _ZNSt12_Vector_baseINSt7__cxx1112basic_stringIcSt11char_traitsIcESaIcEEESaIS5_EE17_Vector_impl_dataC2Ev
	.p2align	4, 0x90
	.type	_ZNSt12_Vector_baseINSt7__cxx1112basic_stringIcSt11char_traitsIcESaIcEEESaIS5_EE17_Vector_impl_dataC2Ev,@function
_ZNSt12_Vector_baseINSt7__cxx1112basic_stringIcSt11char_traitsIcESaIcEEESaIS5_EE17_Vector_impl_dataC2Ev: # @_ZNSt12_Vector_baseINSt7__cxx1112basic_stringIcSt11char_traitsIcESaIcEEESaIS5_EE17_Vector_impl_dataC2Ev
	.cfi_startproc
# %bb.0:
	pushq	%rbp
	.cfi_def_cfa_offset 16
	.cfi_offset %rbp, -16
	movq	%rsp, %rbp
	.cfi_def_cfa_register %rbp
	movq	%rdi, -8(%rbp)
	movq	-8(%rbp), %rax
	movq	$0, (%rax)
	movq	$0, 8(%rax)
	movq	$0, 16(%rax)
	popq	%rbp
	.cfi_def_cfa %rsp, 8
	retq
.Lfunc_end25:
	.size	_ZNSt12_Vector_baseINSt7__cxx1112basic_stringIcSt11char_traitsIcESaIcEEESaIS5_EE17_Vector_impl_dataC2Ev, .Lfunc_end25-_ZNSt12_Vector_baseINSt7__cxx1112basic_stringIcSt11char_traitsIcESaIcEEESaIS5_EE17_Vector_impl_dataC2Ev
	.cfi_endproc
                                        # -- End function
	.section	.text._ZN9__gnu_cxx13new_allocatorINSt7__cxx1112basic_stringIcSt11char_traitsIcESaIcEEEEC2Ev,"axG",@progbits,_ZN9__gnu_cxx13new_allocatorINSt7__cxx1112basic_stringIcSt11char_traitsIcESaIcEEEEC2Ev,comdat
	.weak	_ZN9__gnu_cxx13new_allocatorINSt7__cxx1112basic_stringIcSt11char_traitsIcESaIcEEEEC2Ev # -- Begin function _ZN9__gnu_cxx13new_allocatorINSt7__cxx1112basic_stringIcSt11char_traitsIcESaIcEEEEC2Ev
	.p2align	4, 0x90
	.type	_ZN9__gnu_cxx13new_allocatorINSt7__cxx1112basic_stringIcSt11char_traitsIcESaIcEEEEC2Ev,@function
_ZN9__gnu_cxx13new_allocatorINSt7__cxx1112basic_stringIcSt11char_traitsIcESaIcEEEEC2Ev: # @_ZN9__gnu_cxx13new_allocatorINSt7__cxx1112basic_stringIcSt11char_traitsIcESaIcEEEEC2Ev
	.cfi_startproc
# %bb.0:
	pushq	%rbp
	.cfi_def_cfa_offset 16
	.cfi_offset %rbp, -16
	movq	%rsp, %rbp
	.cfi_def_cfa_register %rbp
	movq	%rdi, -8(%rbp)
	popq	%rbp
	.cfi_def_cfa %rsp, 8
	retq
.Lfunc_end26:
	.size	_ZN9__gnu_cxx13new_allocatorINSt7__cxx1112basic_stringIcSt11char_traitsIcESaIcEEEEC2Ev, .Lfunc_end26-_ZN9__gnu_cxx13new_allocatorINSt7__cxx1112basic_stringIcSt11char_traitsIcESaIcEEEEC2Ev
	.cfi_endproc
                                        # -- End function
	.section	.text._ZSt8_DestroyIPNSt7__cxx1112basic_stringIcSt11char_traitsIcESaIcEEES5_EvT_S7_RSaIT0_E,"axG",@progbits,_ZSt8_DestroyIPNSt7__cxx1112basic_stringIcSt11char_traitsIcESaIcEEES5_EvT_S7_RSaIT0_E,comdat
	.weak	_ZSt8_DestroyIPNSt7__cxx1112basic_stringIcSt11char_traitsIcESaIcEEES5_EvT_S7_RSaIT0_E # -- Begin function _ZSt8_DestroyIPNSt7__cxx1112basic_stringIcSt11char_traitsIcESaIcEEES5_EvT_S7_RSaIT0_E
	.p2align	4, 0x90
	.type	_ZSt8_DestroyIPNSt7__cxx1112basic_stringIcSt11char_traitsIcESaIcEEES5_EvT_S7_RSaIT0_E,@function
_ZSt8_DestroyIPNSt7__cxx1112basic_stringIcSt11char_traitsIcESaIcEEES5_EvT_S7_RSaIT0_E: # @_ZSt8_DestroyIPNSt7__cxx1112basic_stringIcSt11char_traitsIcESaIcEEES5_EvT_S7_RSaIT0_E
	.cfi_startproc
# %bb.0:
	pushq	%rbp
	.cfi_def_cfa_offset 16
	.cfi_offset %rbp, -16
	movq	%rsp, %rbp
	.cfi_def_cfa_register %rbp
	subq	$32, %rsp
	movq	%rdi, -16(%rbp)
	movq	%rsi, -8(%rbp)
	movq	%rdx, -24(%rbp)
	movq	-16(%rbp), %rdi
	movq	-8(%rbp), %rsi
	callq	_ZSt8_DestroyIPNSt7__cxx1112basic_stringIcSt11char_traitsIcESaIcEEEEvT_S7_
	addq	$32, %rsp
	popq	%rbp
	.cfi_def_cfa %rsp, 8
	retq
.Lfunc_end27:
	.size	_ZSt8_DestroyIPNSt7__cxx1112basic_stringIcSt11char_traitsIcESaIcEEES5_EvT_S7_RSaIT0_E, .Lfunc_end27-_ZSt8_DestroyIPNSt7__cxx1112basic_stringIcSt11char_traitsIcESaIcEEES5_EvT_S7_RSaIT0_E
	.cfi_endproc
                                        # -- End function
	.section	.text._ZNSt12_Vector_baseINSt7__cxx1112basic_stringIcSt11char_traitsIcESaIcEEESaIS5_EE19_M_get_Tp_allocatorEv,"axG",@progbits,_ZNSt12_Vector_baseINSt7__cxx1112basic_stringIcSt11char_traitsIcESaIcEEESaIS5_EE19_M_get_Tp_allocatorEv,comdat
	.weak	_ZNSt12_Vector_baseINSt7__cxx1112basic_stringIcSt11char_traitsIcESaIcEEESaIS5_EE19_M_get_Tp_allocatorEv # -- Begin function _ZNSt12_Vector_baseINSt7__cxx1112basic_stringIcSt11char_traitsIcESaIcEEESaIS5_EE19_M_get_Tp_allocatorEv
	.p2align	4, 0x90
	.type	_ZNSt12_Vector_baseINSt7__cxx1112basic_stringIcSt11char_traitsIcESaIcEEESaIS5_EE19_M_get_Tp_allocatorEv,@function
_ZNSt12_Vector_baseINSt7__cxx1112basic_stringIcSt11char_traitsIcESaIcEEESaIS5_EE19_M_get_Tp_allocatorEv: # @_ZNSt12_Vector_baseINSt7__cxx1112basic_stringIcSt11char_traitsIcESaIcEEESaIS5_EE19_M_get_Tp_allocatorEv
	.cfi_startproc
# %bb.0:
	pushq	%rbp
	.cfi_def_cfa_offset 16
	.cfi_offset %rbp, -16
	movq	%rsp, %rbp
	.cfi_def_cfa_register %rbp
	movq	%rdi, -8(%rbp)
	movq	-8(%rbp), %rax
	popq	%rbp
	.cfi_def_cfa %rsp, 8
	retq
.Lfunc_end28:
	.size	_ZNSt12_Vector_baseINSt7__cxx1112basic_stringIcSt11char_traitsIcESaIcEEESaIS5_EE19_M_get_Tp_allocatorEv, .Lfunc_end28-_ZNSt12_Vector_baseINSt7__cxx1112basic_stringIcSt11char_traitsIcESaIcEEESaIS5_EE19_M_get_Tp_allocatorEv
	.cfi_endproc
                                        # -- End function
	.section	.text._ZNSt12_Vector_baseINSt7__cxx1112basic_stringIcSt11char_traitsIcESaIcEEESaIS5_EED2Ev,"axG",@progbits,_ZNSt12_Vector_baseINSt7__cxx1112basic_stringIcSt11char_traitsIcESaIcEEESaIS5_EED2Ev,comdat
	.weak	_ZNSt12_Vector_baseINSt7__cxx1112basic_stringIcSt11char_traitsIcESaIcEEESaIS5_EED2Ev # -- Begin function _ZNSt12_Vector_baseINSt7__cxx1112basic_stringIcSt11char_traitsIcESaIcEEESaIS5_EED2Ev
	.p2align	4, 0x90
	.type	_ZNSt12_Vector_baseINSt7__cxx1112basic_stringIcSt11char_traitsIcESaIcEEESaIS5_EED2Ev,@function
_ZNSt12_Vector_baseINSt7__cxx1112basic_stringIcSt11char_traitsIcESaIcEEESaIS5_EED2Ev: # @_ZNSt12_Vector_baseINSt7__cxx1112basic_stringIcSt11char_traitsIcESaIcEEESaIS5_EED2Ev
.Lfunc_begin3:
	.cfi_startproc
	.cfi_personality 3, __gxx_personality_v0
	.cfi_lsda 3, .Lexception3
# %bb.0:
	pushq	%rbp
	.cfi_def_cfa_offset 16
	.cfi_offset %rbp, -16
	movq	%rsp, %rbp
	.cfi_def_cfa_register %rbp
	pushq	%rbx
	subq	$24, %rsp
	.cfi_offset %rbx, -24
	movq	%rdi, -24(%rbp)
	movq	-24(%rbp), %rbx
	movq	(%rbx), %rsi
	movq	16(%rbx), %rdx
	subq	%rsi, %rdx
	sarq	$5, %rdx
.Ltmp48:
	movq	%rbx, %rdi
	callq	_ZNSt12_Vector_baseINSt7__cxx1112basic_stringIcSt11char_traitsIcESaIcEEESaIS5_EE13_M_deallocateEPS5_m
.Ltmp49:
	jmp	.LBB29_1
.LBB29_1:
	movq	%rbx, %rdi
	callq	_ZNSt12_Vector_baseINSt7__cxx1112basic_stringIcSt11char_traitsIcESaIcEEESaIS5_EE12_Vector_implD2Ev
	addq	$24, %rsp
	popq	%rbx
	popq	%rbp
	.cfi_def_cfa %rsp, 8
	retq
.LBB29_2:
	.cfi_def_cfa %rbp, 16
.Ltmp50:
	movq	%rax, -16(%rbp)
	movl	%edx, -28(%rbp)
	movq	%rbx, %rdi
	callq	_ZNSt12_Vector_baseINSt7__cxx1112basic_stringIcSt11char_traitsIcESaIcEEESaIS5_EE12_Vector_implD2Ev
# %bb.3:
	movq	-16(%rbp), %rdi
	callq	__clang_call_terminate
.Lfunc_end29:
	.size	_ZNSt12_Vector_baseINSt7__cxx1112basic_stringIcSt11char_traitsIcESaIcEEESaIS5_EED2Ev, .Lfunc_end29-_ZNSt12_Vector_baseINSt7__cxx1112basic_stringIcSt11char_traitsIcESaIcEEESaIS5_EED2Ev
	.cfi_endproc
	.section	.gcc_except_table._ZNSt12_Vector_baseINSt7__cxx1112basic_stringIcSt11char_traitsIcESaIcEEESaIS5_EED2Ev,"aG",@progbits,_ZNSt12_Vector_baseINSt7__cxx1112basic_stringIcSt11char_traitsIcESaIcEEESaIS5_EED2Ev,comdat
	.p2align	2
GCC_except_table29:
.Lexception3:
	.byte	255                             # @LPStart Encoding = omit
	.byte	3                               # @TType Encoding = udata4
	.uleb128 .Lttbase2-.Lttbaseref2
.Lttbaseref2:
	.byte	1                               # Call site Encoding = uleb128
	.uleb128 .Lcst_end3-.Lcst_begin3
.Lcst_begin3:
	.uleb128 .Ltmp48-.Lfunc_begin3          # >> Call Site 1 <<
	.uleb128 .Ltmp49-.Ltmp48                #   Call between .Ltmp48 and .Ltmp49
	.uleb128 .Ltmp50-.Lfunc_begin3          #     jumps to .Ltmp50
	.byte	1                               #   On action: 1
.Lcst_end3:
	.byte	1                               # >> Action Record 1 <<
                                        #   Catch TypeInfo 1
	.byte	0                               #   No further actions
	.p2align	2
                                        # >> Catch TypeInfos <<
	.long	0                               # TypeInfo 1
.Lttbase2:
	.p2align	2
                                        # -- End function
	.section	.text.__clang_call_terminate,"axG",@progbits,__clang_call_terminate,comdat
	.hidden	__clang_call_terminate          # -- Begin function __clang_call_terminate
	.weak	__clang_call_terminate
	.p2align	4, 0x90
	.type	__clang_call_terminate,@function
__clang_call_terminate:                 # @__clang_call_terminate
# %bb.0:
	pushq	%rax
	callq	__cxa_begin_catch@PLT
	callq	_ZSt9terminatev@PLT
.Lfunc_end30:
	.size	__clang_call_terminate, .Lfunc_end30-__clang_call_terminate
                                        # -- End function
	.section	.text._ZSt8_DestroyIPNSt7__cxx1112basic_stringIcSt11char_traitsIcESaIcEEEEvT_S7_,"axG",@progbits,_ZSt8_DestroyIPNSt7__cxx1112basic_stringIcSt11char_traitsIcESaIcEEEEvT_S7_,comdat
	.weak	_ZSt8_DestroyIPNSt7__cxx1112basic_stringIcSt11char_traitsIcESaIcEEEEvT_S7_ # -- Begin function _ZSt8_DestroyIPNSt7__cxx1112basic_stringIcSt11char_traitsIcESaIcEEEEvT_S7_
	.p2align	4, 0x90
	.type	_ZSt8_DestroyIPNSt7__cxx1112basic_stringIcSt11char_traitsIcESaIcEEEEvT_S7_,@function
_ZSt8_DestroyIPNSt7__cxx1112basic_stringIcSt11char_traitsIcESaIcEEEEvT_S7_: # @_ZSt8_DestroyIPNSt7__cxx1112basic_stringIcSt11char_traitsIcESaIcEEEEvT_S7_
	.cfi_startproc
# %bb.0:
	pushq	%rbp
	.cfi_def_cfa_offset 16
	.cfi_offset %rbp, -16
	movq	%rsp, %rbp
	.cfi_def_cfa_register %rbp
	subq	$16, %rsp
	movq	%rdi, -16(%rbp)
	movq	%rsi, -8(%rbp)
	movq	-16(%rbp), %rdi
	movq	-8(%rbp), %rsi
	callq	_ZNSt12_Destroy_auxILb0EE9__destroyIPNSt7__cxx1112basic_stringIcSt11char_traitsIcESaIcEEEEEvT_S9_
	addq	$16, %rsp
	popq	%rbp
	.cfi_def_cfa %rsp, 8
	retq
.Lfunc_end31:
	.size	_ZSt8_DestroyIPNSt7__cxx1112basic_stringIcSt11char_traitsIcESaIcEEEEvT_S7_, .Lfunc_end31-_ZSt8_DestroyIPNSt7__cxx1112basic_stringIcSt11char_traitsIcESaIcEEEEvT_S7_
	.cfi_endproc
                                        # -- End function
	.section	.text._ZNSt12_Destroy_auxILb0EE9__destroyIPNSt7__cxx1112basic_stringIcSt11char_traitsIcESaIcEEEEEvT_S9_,"axG",@progbits,_ZNSt12_Destroy_auxILb0EE9__destroyIPNSt7__cxx1112basic_stringIcSt11char_traitsIcESaIcEEEEEvT_S9_,comdat
	.weak	_ZNSt12_Destroy_auxILb0EE9__destroyIPNSt7__cxx1112basic_stringIcSt11char_traitsIcESaIcEEEEEvT_S9_ # -- Begin function _ZNSt12_Destroy_auxILb0EE9__destroyIPNSt7__cxx1112basic_stringIcSt11char_traitsIcESaIcEEEEEvT_S9_
	.p2align	4, 0x90
	.type	_ZNSt12_Destroy_auxILb0EE9__destroyIPNSt7__cxx1112basic_stringIcSt11char_traitsIcESaIcEEEEEvT_S9_,@function
_ZNSt12_Destroy_auxILb0EE9__destroyIPNSt7__cxx1112basic_stringIcSt11char_traitsIcESaIcEEEEEvT_S9_: # @_ZNSt12_Destroy_auxILb0EE9__destroyIPNSt7__cxx1112basic_stringIcSt11char_traitsIcESaIcEEEEEvT_S9_
	.cfi_startproc
# %bb.0:
	pushq	%rbp
	.cfi_def_cfa_offset 16
	.cfi_offset %rbp, -16
	movq	%rsp, %rbp
	.cfi_def_cfa_register %rbp
	subq	$16, %rsp
	movq	%rdi, -8(%rbp)
	movq	%rsi, -16(%rbp)
.LBB32_1:                               # =>This Inner Loop Header: Depth=1
	movq	-8(%rbp), %rax
	cmpq	-16(%rbp), %rax
	je	.LBB32_4
# %bb.2:                                #   in Loop: Header=BB32_1 Depth=1
	movq	-8(%rbp), %rdi
	callq	_ZSt11__addressofINSt7__cxx1112basic_stringIcSt11char_traitsIcESaIcEEEEPT_RS6_
	movq	%rax, %rdi
	callq	_ZSt8_DestroyINSt7__cxx1112basic_stringIcSt11char_traitsIcESaIcEEEEvPT_
# %bb.3:                                #   in Loop: Header=BB32_1 Depth=1
	movq	-8(%rbp), %rax
	addq	$32, %rax
	movq	%rax, -8(%rbp)
	jmp	.LBB32_1
.LBB32_4:
	addq	$16, %rsp
	popq	%rbp
	.cfi_def_cfa %rsp, 8
	retq
.Lfunc_end32:
	.size	_ZNSt12_Destroy_auxILb0EE9__destroyIPNSt7__cxx1112basic_stringIcSt11char_traitsIcESaIcEEEEEvT_S9_, .Lfunc_end32-_ZNSt12_Destroy_auxILb0EE9__destroyIPNSt7__cxx1112basic_stringIcSt11char_traitsIcESaIcEEEEEvT_S9_
	.cfi_endproc
                                        # -- End function
	.section	.text._ZSt8_DestroyINSt7__cxx1112basic_stringIcSt11char_traitsIcESaIcEEEEvPT_,"axG",@progbits,_ZSt8_DestroyINSt7__cxx1112basic_stringIcSt11char_traitsIcESaIcEEEEvPT_,comdat
	.weak	_ZSt8_DestroyINSt7__cxx1112basic_stringIcSt11char_traitsIcESaIcEEEEvPT_ # -- Begin function _ZSt8_DestroyINSt7__cxx1112basic_stringIcSt11char_traitsIcESaIcEEEEvPT_
	.p2align	4, 0x90
	.type	_ZSt8_DestroyINSt7__cxx1112basic_stringIcSt11char_traitsIcESaIcEEEEvPT_,@function
_ZSt8_DestroyINSt7__cxx1112basic_stringIcSt11char_traitsIcESaIcEEEEvPT_: # @_ZSt8_DestroyINSt7__cxx1112basic_stringIcSt11char_traitsIcESaIcEEEEvPT_
	.cfi_startproc
# %bb.0:
	pushq	%rbp
	.cfi_def_cfa_offset 16
	.cfi_offset %rbp, -16
	movq	%rsp, %rbp
	.cfi_def_cfa_register %rbp
	subq	$16, %rsp
	movq	%rdi, -8(%rbp)
	movq	-8(%rbp), %rdi
	callq	_ZNSt7__cxx1112basic_stringIcSt11char_traitsIcESaIcEED1Ev@PLT
	addq	$16, %rsp
	popq	%rbp
	.cfi_def_cfa %rsp, 8
	retq
.Lfunc_end33:
	.size	_ZSt8_DestroyINSt7__cxx1112basic_stringIcSt11char_traitsIcESaIcEEEEvPT_, .Lfunc_end33-_ZSt8_DestroyINSt7__cxx1112basic_stringIcSt11char_traitsIcESaIcEEEEvPT_
	.cfi_endproc
                                        # -- End function
	.section	.text._ZSt11__addressofINSt7__cxx1112basic_stringIcSt11char_traitsIcESaIcEEEEPT_RS6_,"axG",@progbits,_ZSt11__addressofINSt7__cxx1112basic_stringIcSt11char_traitsIcESaIcEEEEPT_RS6_,comdat
	.weak	_ZSt11__addressofINSt7__cxx1112basic_stringIcSt11char_traitsIcESaIcEEEEPT_RS6_ # -- Begin function _ZSt11__addressofINSt7__cxx1112basic_stringIcSt11char_traitsIcESaIcEEEEPT_RS6_
	.p2align	4, 0x90
	.type	_ZSt11__addressofINSt7__cxx1112basic_stringIcSt11char_traitsIcESaIcEEEEPT_RS6_,@function
_ZSt11__addressofINSt7__cxx1112basic_stringIcSt11char_traitsIcESaIcEEEEPT_RS6_: # @_ZSt11__addressofINSt7__cxx1112basic_stringIcSt11char_traitsIcESaIcEEEEPT_RS6_
	.cfi_startproc
# %bb.0:
	pushq	%rbp
	.cfi_def_cfa_offset 16
	.cfi_offset %rbp, -16
	movq	%rsp, %rbp
	.cfi_def_cfa_register %rbp
	movq	%rdi, -8(%rbp)
	movq	-8(%rbp), %rax
	popq	%rbp
	.cfi_def_cfa %rsp, 8
	retq
.Lfunc_end34:
	.size	_ZSt11__addressofINSt7__cxx1112basic_stringIcSt11char_traitsIcESaIcEEEEPT_RS6_, .Lfunc_end34-_ZSt11__addressofINSt7__cxx1112basic_stringIcSt11char_traitsIcESaIcEEEEPT_RS6_
	.cfi_endproc
                                        # -- End function
	.section	.text._ZNSt12_Vector_baseINSt7__cxx1112basic_stringIcSt11char_traitsIcESaIcEEESaIS5_EE13_M_deallocateEPS5_m,"axG",@progbits,_ZNSt12_Vector_baseINSt7__cxx1112basic_stringIcSt11char_traitsIcESaIcEEESaIS5_EE13_M_deallocateEPS5_m,comdat
	.weak	_ZNSt12_Vector_baseINSt7__cxx1112basic_stringIcSt11char_traitsIcESaIcEEESaIS5_EE13_M_deallocateEPS5_m # -- Begin function _ZNSt12_Vector_baseINSt7__cxx1112basic_stringIcSt11char_traitsIcESaIcEEESaIS5_EE13_M_deallocateEPS5_m
	.p2align	4, 0x90
	.type	_ZNSt12_Vector_baseINSt7__cxx1112basic_stringIcSt11char_traitsIcESaIcEEESaIS5_EE13_M_deallocateEPS5_m,@function
_ZNSt12_Vector_baseINSt7__cxx1112basic_stringIcSt11char_traitsIcESaIcEEESaIS5_EE13_M_deallocateEPS5_m: # @_ZNSt12_Vector_baseINSt7__cxx1112basic_stringIcSt11char_traitsIcESaIcEEESaIS5_EE13_M_deallocateEPS5_m
	.cfi_startproc
# %bb.0:
	pushq	%rbp
	.cfi_def_cfa_offset 16
	.cfi_offset %rbp, -16
	movq	%rsp, %rbp
	.cfi_def_cfa_register %rbp
	subq	$32, %rsp
	movq	%rdi, -24(%rbp)
	movq	%rsi, -8(%rbp)
	movq	%rdx, -16(%rbp)
	movq	-24(%rbp), %rdi
	cmpq	$0, -8(%rbp)
	je	.LBB35_2
# %bb.1:
	movq	-8(%rbp), %rsi
	movq	-16(%rbp), %rdx
	callq	_ZNSt16allocator_traitsISaINSt7__cxx1112basic_stringIcSt11char_traitsIcESaIcEEEEE10deallocateERS6_PS5_m
.LBB35_2:
	addq	$32, %rsp
	popq	%rbp
	.cfi_def_cfa %rsp, 8
	retq
.Lfunc_end35:
	.size	_ZNSt12_Vector_baseINSt7__cxx1112basic_stringIcSt11char_traitsIcESaIcEEESaIS5_EE13_M_deallocateEPS5_m, .Lfunc_end35-_ZNSt12_Vector_baseINSt7__cxx1112basic_stringIcSt11char_traitsIcESaIcEEESaIS5_EE13_M_deallocateEPS5_m
	.cfi_endproc
                                        # -- End function
	.section	.text._ZNSt12_Vector_baseINSt7__cxx1112basic_stringIcSt11char_traitsIcESaIcEEESaIS5_EE12_Vector_implD2Ev,"axG",@progbits,_ZNSt12_Vector_baseINSt7__cxx1112basic_stringIcSt11char_traitsIcESaIcEEESaIS5_EE12_Vector_implD2Ev,comdat
	.weak	_ZNSt12_Vector_baseINSt7__cxx1112basic_stringIcSt11char_traitsIcESaIcEEESaIS5_EE12_Vector_implD2Ev # -- Begin function _ZNSt12_Vector_baseINSt7__cxx1112basic_stringIcSt11char_traitsIcESaIcEEESaIS5_EE12_Vector_implD2Ev
	.p2align	4, 0x90
	.type	_ZNSt12_Vector_baseINSt7__cxx1112basic_stringIcSt11char_traitsIcESaIcEEESaIS5_EE12_Vector_implD2Ev,@function
_ZNSt12_Vector_baseINSt7__cxx1112basic_stringIcSt11char_traitsIcESaIcEEESaIS5_EE12_Vector_implD2Ev: # @_ZNSt12_Vector_baseINSt7__cxx1112basic_stringIcSt11char_traitsIcESaIcEEESaIS5_EE12_Vector_implD2Ev
	.cfi_startproc
# %bb.0:
	pushq	%rbp
	.cfi_def_cfa_offset 16
	.cfi_offset %rbp, -16
	movq	%rsp, %rbp
	.cfi_def_cfa_register %rbp
	subq	$16, %rsp
	movq	%rdi, -8(%rbp)
	movq	-8(%rbp), %rdi
	callq	_ZNSaINSt7__cxx1112basic_stringIcSt11char_traitsIcESaIcEEEED2Ev
	addq	$16, %rsp
	popq	%rbp
	.cfi_def_cfa %rsp, 8
	retq
.Lfunc_end36:
	.size	_ZNSt12_Vector_baseINSt7__cxx1112basic_stringIcSt11char_traitsIcESaIcEEESaIS5_EE12_Vector_implD2Ev, .Lfunc_end36-_ZNSt12_Vector_baseINSt7__cxx1112basic_stringIcSt11char_traitsIcESaIcEEESaIS5_EE12_Vector_implD2Ev
	.cfi_endproc
                                        # -- End function
	.section	.text._ZNSt16allocator_traitsISaINSt7__cxx1112basic_stringIcSt11char_traitsIcESaIcEEEEE10deallocateERS6_PS5_m,"axG",@progbits,_ZNSt16allocator_traitsISaINSt7__cxx1112basic_stringIcSt11char_traitsIcESaIcEEEEE10deallocateERS6_PS5_m,comdat
	.weak	_ZNSt16allocator_traitsISaINSt7__cxx1112basic_stringIcSt11char_traitsIcESaIcEEEEE10deallocateERS6_PS5_m # -- Begin function _ZNSt16allocator_traitsISaINSt7__cxx1112basic_stringIcSt11char_traitsIcESaIcEEEEE10deallocateERS6_PS5_m
	.p2align	4, 0x90
	.type	_ZNSt16allocator_traitsISaINSt7__cxx1112basic_stringIcSt11char_traitsIcESaIcEEEEE10deallocateERS6_PS5_m,@function
_ZNSt16allocator_traitsISaINSt7__cxx1112basic_stringIcSt11char_traitsIcESaIcEEEEE10deallocateERS6_PS5_m: # @_ZNSt16allocator_traitsISaINSt7__cxx1112basic_stringIcSt11char_traitsIcESaIcEEEEE10deallocateERS6_PS5_m
	.cfi_startproc
# %bb.0:
	pushq	%rbp
	.cfi_def_cfa_offset 16
	.cfi_offset %rbp, -16
	movq	%rsp, %rbp
	.cfi_def_cfa_register %rbp
	subq	$32, %rsp
	movq	%rdi, -24(%rbp)
	movq	%rsi, -16(%rbp)
	movq	%rdx, -8(%rbp)
	movq	-24(%rbp), %rdi
	movq	-16(%rbp), %rsi
	movq	-8(%rbp), %rdx
	callq	_ZN9__gnu_cxx13new_allocatorINSt7__cxx1112basic_stringIcSt11char_traitsIcESaIcEEEE10deallocateEPS6_m
	addq	$32, %rsp
	popq	%rbp
	.cfi_def_cfa %rsp, 8
	retq
.Lfunc_end37:
	.size	_ZNSt16allocator_traitsISaINSt7__cxx1112basic_stringIcSt11char_traitsIcESaIcEEEEE10deallocateERS6_PS5_m, .Lfunc_end37-_ZNSt16allocator_traitsISaINSt7__cxx1112basic_stringIcSt11char_traitsIcESaIcEEEEE10deallocateERS6_PS5_m
	.cfi_endproc
                                        # -- End function
	.section	.text._ZN9__gnu_cxx13new_allocatorINSt7__cxx1112basic_stringIcSt11char_traitsIcESaIcEEEE10deallocateEPS6_m,"axG",@progbits,_ZN9__gnu_cxx13new_allocatorINSt7__cxx1112basic_stringIcSt11char_traitsIcESaIcEEEE10deallocateEPS6_m,comdat
	.weak	_ZN9__gnu_cxx13new_allocatorINSt7__cxx1112basic_stringIcSt11char_traitsIcESaIcEEEE10deallocateEPS6_m # -- Begin function _ZN9__gnu_cxx13new_allocatorINSt7__cxx1112basic_stringIcSt11char_traitsIcESaIcEEEE10deallocateEPS6_m
	.p2align	4, 0x90
	.type	_ZN9__gnu_cxx13new_allocatorINSt7__cxx1112basic_stringIcSt11char_traitsIcESaIcEEEE10deallocateEPS6_m,@function
_ZN9__gnu_cxx13new_allocatorINSt7__cxx1112basic_stringIcSt11char_traitsIcESaIcEEEE10deallocateEPS6_m: # @_ZN9__gnu_cxx13new_allocatorINSt7__cxx1112basic_stringIcSt11char_traitsIcESaIcEEEE10deallocateEPS6_m
	.cfi_startproc
# %bb.0:
	pushq	%rbp
	.cfi_def_cfa_offset 16
	.cfi_offset %rbp, -16
	movq	%rsp, %rbp
	.cfi_def_cfa_register %rbp
	subq	$32, %rsp
	movq	%rdi, -24(%rbp)
	movq	%rsi, -8(%rbp)
	movq	%rdx, -16(%rbp)
	movq	-8(%rbp), %rdi
	callq	_ZdlPv@PLT
	addq	$32, %rsp
	popq	%rbp
	.cfi_def_cfa %rsp, 8
	retq
.Lfunc_end38:
	.size	_ZN9__gnu_cxx13new_allocatorINSt7__cxx1112basic_stringIcSt11char_traitsIcESaIcEEEE10deallocateEPS6_m, .Lfunc_end38-_ZN9__gnu_cxx13new_allocatorINSt7__cxx1112basic_stringIcSt11char_traitsIcESaIcEEEE10deallocateEPS6_m
	.cfi_endproc
                                        # -- End function
	.section	.text._ZN9__gnu_cxx13new_allocatorINSt7__cxx1112basic_stringIcSt11char_traitsIcESaIcEEEED2Ev,"axG",@progbits,_ZN9__gnu_cxx13new_allocatorINSt7__cxx1112basic_stringIcSt11char_traitsIcESaIcEEEED2Ev,comdat
	.weak	_ZN9__gnu_cxx13new_allocatorINSt7__cxx1112basic_stringIcSt11char_traitsIcESaIcEEEED2Ev # -- Begin function _ZN9__gnu_cxx13new_allocatorINSt7__cxx1112basic_stringIcSt11char_traitsIcESaIcEEEED2Ev
	.p2align	4, 0x90
	.type	_ZN9__gnu_cxx13new_allocatorINSt7__cxx1112basic_stringIcSt11char_traitsIcESaIcEEEED2Ev,@function
_ZN9__gnu_cxx13new_allocatorINSt7__cxx1112basic_stringIcSt11char_traitsIcESaIcEEEED2Ev: # @_ZN9__gnu_cxx13new_allocatorINSt7__cxx1112basic_stringIcSt11char_traitsIcESaIcEEEED2Ev
	.cfi_startproc
# %bb.0:
	pushq	%rbp
	.cfi_def_cfa_offset 16
	.cfi_offset %rbp, -16
	movq	%rsp, %rbp
	.cfi_def_cfa_register %rbp
	movq	%rdi, -8(%rbp)
	popq	%rbp
	.cfi_def_cfa %rsp, 8
	retq
.Lfunc_end39:
	.size	_ZN9__gnu_cxx13new_allocatorINSt7__cxx1112basic_stringIcSt11char_traitsIcESaIcEEEED2Ev, .Lfunc_end39-_ZN9__gnu_cxx13new_allocatorINSt7__cxx1112basic_stringIcSt11char_traitsIcESaIcEEEED2Ev
	.cfi_endproc
                                        # -- End function
	.section	.text._ZSt8_DestroyIP9DataPointS0_EvT_S2_RSaIT0_E,"axG",@progbits,_ZSt8_DestroyIP9DataPointS0_EvT_S2_RSaIT0_E,comdat
	.weak	_ZSt8_DestroyIP9DataPointS0_EvT_S2_RSaIT0_E # -- Begin function _ZSt8_DestroyIP9DataPointS0_EvT_S2_RSaIT0_E
	.p2align	4, 0x90
	.type	_ZSt8_DestroyIP9DataPointS0_EvT_S2_RSaIT0_E,@function
_ZSt8_DestroyIP9DataPointS0_EvT_S2_RSaIT0_E: # @_ZSt8_DestroyIP9DataPointS0_EvT_S2_RSaIT0_E
	.cfi_startproc
# %bb.0:
	pushq	%rbp
	.cfi_def_cfa_offset 16
	.cfi_offset %rbp, -16
	movq	%rsp, %rbp
	.cfi_def_cfa_register %rbp
	subq	$32, %rsp
	movq	%rdi, -16(%rbp)
	movq	%rsi, -8(%rbp)
	movq	%rdx, -24(%rbp)
	movq	-16(%rbp), %rdi
	movq	-8(%rbp), %rsi
	callq	_ZSt8_DestroyIP9DataPointEvT_S2_
	addq	$32, %rsp
	popq	%rbp
	.cfi_def_cfa %rsp, 8
	retq
.Lfunc_end40:
	.size	_ZSt8_DestroyIP9DataPointS0_EvT_S2_RSaIT0_E, .Lfunc_end40-_ZSt8_DestroyIP9DataPointS0_EvT_S2_RSaIT0_E
	.cfi_endproc
                                        # -- End function
	.section	.text._ZNSt12_Vector_baseI9DataPointSaIS0_EE19_M_get_Tp_allocatorEv,"axG",@progbits,_ZNSt12_Vector_baseI9DataPointSaIS0_EE19_M_get_Tp_allocatorEv,comdat
	.weak	_ZNSt12_Vector_baseI9DataPointSaIS0_EE19_M_get_Tp_allocatorEv # -- Begin function _ZNSt12_Vector_baseI9DataPointSaIS0_EE19_M_get_Tp_allocatorEv
	.p2align	4, 0x90
	.type	_ZNSt12_Vector_baseI9DataPointSaIS0_EE19_M_get_Tp_allocatorEv,@function
_ZNSt12_Vector_baseI9DataPointSaIS0_EE19_M_get_Tp_allocatorEv: # @_ZNSt12_Vector_baseI9DataPointSaIS0_EE19_M_get_Tp_allocatorEv
	.cfi_startproc
# %bb.0:
	pushq	%rbp
	.cfi_def_cfa_offset 16
	.cfi_offset %rbp, -16
	movq	%rsp, %rbp
	.cfi_def_cfa_register %rbp
	movq	%rdi, -8(%rbp)
	movq	-8(%rbp), %rax
	popq	%rbp
	.cfi_def_cfa %rsp, 8
	retq
.Lfunc_end41:
	.size	_ZNSt12_Vector_baseI9DataPointSaIS0_EE19_M_get_Tp_allocatorEv, .Lfunc_end41-_ZNSt12_Vector_baseI9DataPointSaIS0_EE19_M_get_Tp_allocatorEv
	.cfi_endproc
                                        # -- End function
	.section	.text._ZNSt12_Vector_baseI9DataPointSaIS0_EED2Ev,"axG",@progbits,_ZNSt12_Vector_baseI9DataPointSaIS0_EED2Ev,comdat
	.weak	_ZNSt12_Vector_baseI9DataPointSaIS0_EED2Ev # -- Begin function _ZNSt12_Vector_baseI9DataPointSaIS0_EED2Ev
	.p2align	4, 0x90
	.type	_ZNSt12_Vector_baseI9DataPointSaIS0_EED2Ev,@function
_ZNSt12_Vector_baseI9DataPointSaIS0_EED2Ev: # @_ZNSt12_Vector_baseI9DataPointSaIS0_EED2Ev
.Lfunc_begin4:
	.cfi_startproc
	.cfi_personality 3, __gxx_personality_v0
	.cfi_lsda 3, .Lexception4
# %bb.0:
	pushq	%rbp
	.cfi_def_cfa_offset 16
	.cfi_offset %rbp, -16
	movq	%rsp, %rbp
	.cfi_def_cfa_register %rbp
	pushq	%rbx
	subq	$24, %rsp
	.cfi_offset %rbx, -24
	movq	%rdi, -24(%rbp)
	movq	-24(%rbp), %rbx
	movq	(%rbx), %rsi
	movq	16(%rbx), %rdx
	subq	%rsi, %rdx
	sarq	$3, %rdx
	movabsq	$7905747460161236407, %rax      # imm = 0x6DB6DB6DB6DB6DB7
	imulq	%rax, %rdx
.Ltmp51:
	movq	%rbx, %rdi
	callq	_ZNSt12_Vector_baseI9DataPointSaIS0_EE13_M_deallocateEPS0_m
.Ltmp52:
	jmp	.LBB42_1
.LBB42_1:
	movq	%rbx, %rdi
	callq	_ZNSt12_Vector_baseI9DataPointSaIS0_EE12_Vector_implD2Ev
	addq	$24, %rsp
	popq	%rbx
	popq	%rbp
	.cfi_def_cfa %rsp, 8
	retq
.LBB42_2:
	.cfi_def_cfa %rbp, 16
.Ltmp53:
	movq	%rax, -16(%rbp)
	movl	%edx, -28(%rbp)
	movq	%rbx, %rdi
	callq	_ZNSt12_Vector_baseI9DataPointSaIS0_EE12_Vector_implD2Ev
# %bb.3:
	movq	-16(%rbp), %rdi
	callq	__clang_call_terminate
.Lfunc_end42:
	.size	_ZNSt12_Vector_baseI9DataPointSaIS0_EED2Ev, .Lfunc_end42-_ZNSt12_Vector_baseI9DataPointSaIS0_EED2Ev
	.cfi_endproc
	.section	.gcc_except_table._ZNSt12_Vector_baseI9DataPointSaIS0_EED2Ev,"aG",@progbits,_ZNSt12_Vector_baseI9DataPointSaIS0_EED2Ev,comdat
	.p2align	2
GCC_except_table42:
.Lexception4:
	.byte	255                             # @LPStart Encoding = omit
	.byte	3                               # @TType Encoding = udata4
	.uleb128 .Lttbase3-.Lttbaseref3
.Lttbaseref3:
	.byte	1                               # Call site Encoding = uleb128
	.uleb128 .Lcst_end4-.Lcst_begin4
.Lcst_begin4:
	.uleb128 .Ltmp51-.Lfunc_begin4          # >> Call Site 1 <<
	.uleb128 .Ltmp52-.Ltmp51                #   Call between .Ltmp51 and .Ltmp52
	.uleb128 .Ltmp53-.Lfunc_begin4          #     jumps to .Ltmp53
	.byte	1                               #   On action: 1
.Lcst_end4:
	.byte	1                               # >> Action Record 1 <<
                                        #   Catch TypeInfo 1
	.byte	0                               #   No further actions
	.p2align	2
                                        # >> Catch TypeInfos <<
	.long	0                               # TypeInfo 1
.Lttbase3:
	.p2align	2
                                        # -- End function
	.section	.text._ZSt8_DestroyIP9DataPointEvT_S2_,"axG",@progbits,_ZSt8_DestroyIP9DataPointEvT_S2_,comdat
	.weak	_ZSt8_DestroyIP9DataPointEvT_S2_ # -- Begin function _ZSt8_DestroyIP9DataPointEvT_S2_
	.p2align	4, 0x90
	.type	_ZSt8_DestroyIP9DataPointEvT_S2_,@function
_ZSt8_DestroyIP9DataPointEvT_S2_:       # @_ZSt8_DestroyIP9DataPointEvT_S2_
	.cfi_startproc
# %bb.0:
	pushq	%rbp
	.cfi_def_cfa_offset 16
	.cfi_offset %rbp, -16
	movq	%rsp, %rbp
	.cfi_def_cfa_register %rbp
	subq	$16, %rsp
	movq	%rdi, -16(%rbp)
	movq	%rsi, -8(%rbp)
	movq	-16(%rbp), %rdi
	movq	-8(%rbp), %rsi
	callq	_ZNSt12_Destroy_auxILb0EE9__destroyIP9DataPointEEvT_S4_
	addq	$16, %rsp
	popq	%rbp
	.cfi_def_cfa %rsp, 8
	retq
.Lfunc_end43:
	.size	_ZSt8_DestroyIP9DataPointEvT_S2_, .Lfunc_end43-_ZSt8_DestroyIP9DataPointEvT_S2_
	.cfi_endproc
                                        # -- End function
	.section	.text._ZNSt12_Destroy_auxILb0EE9__destroyIP9DataPointEEvT_S4_,"axG",@progbits,_ZNSt12_Destroy_auxILb0EE9__destroyIP9DataPointEEvT_S4_,comdat
	.weak	_ZNSt12_Destroy_auxILb0EE9__destroyIP9DataPointEEvT_S4_ # -- Begin function _ZNSt12_Destroy_auxILb0EE9__destroyIP9DataPointEEvT_S4_
	.p2align	4, 0x90
	.type	_ZNSt12_Destroy_auxILb0EE9__destroyIP9DataPointEEvT_S4_,@function
_ZNSt12_Destroy_auxILb0EE9__destroyIP9DataPointEEvT_S4_: # @_ZNSt12_Destroy_auxILb0EE9__destroyIP9DataPointEEvT_S4_
	.cfi_startproc
# %bb.0:
	pushq	%rbp
	.cfi_def_cfa_offset 16
	.cfi_offset %rbp, -16
	movq	%rsp, %rbp
	.cfi_def_cfa_register %rbp
	subq	$16, %rsp
	movq	%rdi, -8(%rbp)
	movq	%rsi, -16(%rbp)
.LBB44_1:                               # =>This Inner Loop Header: Depth=1
	movq	-8(%rbp), %rax
	cmpq	-16(%rbp), %rax
	je	.LBB44_4
# %bb.2:                                #   in Loop: Header=BB44_1 Depth=1
	movq	-8(%rbp), %rdi
	callq	_ZSt11__addressofI9DataPointEPT_RS1_
	movq	%rax, %rdi
	callq	_ZSt8_DestroyI9DataPointEvPT_
# %bb.3:                                #   in Loop: Header=BB44_1 Depth=1
	movq	-8(%rbp), %rax
	addq	$56, %rax
	movq	%rax, -8(%rbp)
	jmp	.LBB44_1
.LBB44_4:
	addq	$16, %rsp
	popq	%rbp
	.cfi_def_cfa %rsp, 8
	retq
.Lfunc_end44:
	.size	_ZNSt12_Destroy_auxILb0EE9__destroyIP9DataPointEEvT_S4_, .Lfunc_end44-_ZNSt12_Destroy_auxILb0EE9__destroyIP9DataPointEEvT_S4_
	.cfi_endproc
                                        # -- End function
	.section	.text._ZSt8_DestroyI9DataPointEvPT_,"axG",@progbits,_ZSt8_DestroyI9DataPointEvPT_,comdat
	.weak	_ZSt8_DestroyI9DataPointEvPT_   # -- Begin function _ZSt8_DestroyI9DataPointEvPT_
	.p2align	4, 0x90
	.type	_ZSt8_DestroyI9DataPointEvPT_,@function
_ZSt8_DestroyI9DataPointEvPT_:          # @_ZSt8_DestroyI9DataPointEvPT_
	.cfi_startproc
# %bb.0:
	pushq	%rbp
	.cfi_def_cfa_offset 16
	.cfi_offset %rbp, -16
	movq	%rsp, %rbp
	.cfi_def_cfa_register %rbp
	subq	$16, %rsp
	movq	%rdi, -8(%rbp)
	movq	-8(%rbp), %rdi
	callq	_ZN9DataPointD2Ev
	addq	$16, %rsp
	popq	%rbp
	.cfi_def_cfa %rsp, 8
	retq
.Lfunc_end45:
	.size	_ZSt8_DestroyI9DataPointEvPT_, .Lfunc_end45-_ZSt8_DestroyI9DataPointEvPT_
	.cfi_endproc
                                        # -- End function
	.section	.text._ZSt11__addressofI9DataPointEPT_RS1_,"axG",@progbits,_ZSt11__addressofI9DataPointEPT_RS1_,comdat
	.weak	_ZSt11__addressofI9DataPointEPT_RS1_ # -- Begin function _ZSt11__addressofI9DataPointEPT_RS1_
	.p2align	4, 0x90
	.type	_ZSt11__addressofI9DataPointEPT_RS1_,@function
_ZSt11__addressofI9DataPointEPT_RS1_:   # @_ZSt11__addressofI9DataPointEPT_RS1_
	.cfi_startproc
# %bb.0:
	pushq	%rbp
	.cfi_def_cfa_offset 16
	.cfi_offset %rbp, -16
	movq	%rsp, %rbp
	.cfi_def_cfa_register %rbp
	movq	%rdi, -8(%rbp)
	movq	-8(%rbp), %rax
	popq	%rbp
	.cfi_def_cfa %rsp, 8
	retq
.Lfunc_end46:
	.size	_ZSt11__addressofI9DataPointEPT_RS1_, .Lfunc_end46-_ZSt11__addressofI9DataPointEPT_RS1_
	.cfi_endproc
                                        # -- End function
	.section	.text._ZN9DataPointD2Ev,"axG",@progbits,_ZN9DataPointD2Ev,comdat
	.weak	_ZN9DataPointD2Ev               # -- Begin function _ZN9DataPointD2Ev
	.p2align	4, 0x90
	.type	_ZN9DataPointD2Ev,@function
_ZN9DataPointD2Ev:                      # @_ZN9DataPointD2Ev
	.cfi_startproc
# %bb.0:
	pushq	%rbp
	.cfi_def_cfa_offset 16
	.cfi_offset %rbp, -16
	movq	%rsp, %rbp
	.cfi_def_cfa_register %rbp
	pushq	%rbx
	pushq	%rax
	.cfi_offset %rbx, -24
	movq	%rdi, -16(%rbp)
	movq	-16(%rbp), %rbx
	movq	%rbx, %rdi
	addq	$24, %rdi
	callq	_ZNSt7__cxx1112basic_stringIcSt11char_traitsIcESaIcEED1Ev@PLT
	movq	%rbx, %rdi
	callq	_ZNSt6vectorINSt7__cxx1112basic_stringIcSt11char_traitsIcESaIcEEESaIS5_EED2Ev
	addq	$8, %rsp
	popq	%rbx
	popq	%rbp
	.cfi_def_cfa %rsp, 8
	retq
.Lfunc_end47:
	.size	_ZN9DataPointD2Ev, .Lfunc_end47-_ZN9DataPointD2Ev
	.cfi_endproc
                                        # -- End function
	.section	.text._ZNSt12_Vector_baseI9DataPointSaIS0_EE13_M_deallocateEPS0_m,"axG",@progbits,_ZNSt12_Vector_baseI9DataPointSaIS0_EE13_M_deallocateEPS0_m,comdat
	.weak	_ZNSt12_Vector_baseI9DataPointSaIS0_EE13_M_deallocateEPS0_m # -- Begin function _ZNSt12_Vector_baseI9DataPointSaIS0_EE13_M_deallocateEPS0_m
	.p2align	4, 0x90
	.type	_ZNSt12_Vector_baseI9DataPointSaIS0_EE13_M_deallocateEPS0_m,@function
_ZNSt12_Vector_baseI9DataPointSaIS0_EE13_M_deallocateEPS0_m: # @_ZNSt12_Vector_baseI9DataPointSaIS0_EE13_M_deallocateEPS0_m
	.cfi_startproc
# %bb.0:
	pushq	%rbp
	.cfi_def_cfa_offset 16
	.cfi_offset %rbp, -16
	movq	%rsp, %rbp
	.cfi_def_cfa_register %rbp
	subq	$32, %rsp
	movq	%rdi, -24(%rbp)
	movq	%rsi, -8(%rbp)
	movq	%rdx, -16(%rbp)
	movq	-24(%rbp), %rdi
	cmpq	$0, -8(%rbp)
	je	.LBB48_2
# %bb.1:
	movq	-8(%rbp), %rsi
	movq	-16(%rbp), %rdx
	callq	_ZNSt16allocator_traitsISaI9DataPointEE10deallocateERS1_PS0_m
.LBB48_2:
	addq	$32, %rsp
	popq	%rbp
	.cfi_def_cfa %rsp, 8
	retq
.Lfunc_end48:
	.size	_ZNSt12_Vector_baseI9DataPointSaIS0_EE13_M_deallocateEPS0_m, .Lfunc_end48-_ZNSt12_Vector_baseI9DataPointSaIS0_EE13_M_deallocateEPS0_m
	.cfi_endproc
                                        # -- End function
	.section	.text._ZNSt12_Vector_baseI9DataPointSaIS0_EE12_Vector_implD2Ev,"axG",@progbits,_ZNSt12_Vector_baseI9DataPointSaIS0_EE12_Vector_implD2Ev,comdat
	.weak	_ZNSt12_Vector_baseI9DataPointSaIS0_EE12_Vector_implD2Ev # -- Begin function _ZNSt12_Vector_baseI9DataPointSaIS0_EE12_Vector_implD2Ev
	.p2align	4, 0x90
	.type	_ZNSt12_Vector_baseI9DataPointSaIS0_EE12_Vector_implD2Ev,@function
_ZNSt12_Vector_baseI9DataPointSaIS0_EE12_Vector_implD2Ev: # @_ZNSt12_Vector_baseI9DataPointSaIS0_EE12_Vector_implD2Ev
	.cfi_startproc
# %bb.0:
	pushq	%rbp
	.cfi_def_cfa_offset 16
	.cfi_offset %rbp, -16
	movq	%rsp, %rbp
	.cfi_def_cfa_register %rbp
	subq	$16, %rsp
	movq	%rdi, -8(%rbp)
	movq	-8(%rbp), %rdi
	callq	_ZNSaI9DataPointED2Ev
	addq	$16, %rsp
	popq	%rbp
	.cfi_def_cfa %rsp, 8
	retq
.Lfunc_end49:
	.size	_ZNSt12_Vector_baseI9DataPointSaIS0_EE12_Vector_implD2Ev, .Lfunc_end49-_ZNSt12_Vector_baseI9DataPointSaIS0_EE12_Vector_implD2Ev
	.cfi_endproc
                                        # -- End function
	.section	.text._ZNSt16allocator_traitsISaI9DataPointEE10deallocateERS1_PS0_m,"axG",@progbits,_ZNSt16allocator_traitsISaI9DataPointEE10deallocateERS1_PS0_m,comdat
	.weak	_ZNSt16allocator_traitsISaI9DataPointEE10deallocateERS1_PS0_m # -- Begin function _ZNSt16allocator_traitsISaI9DataPointEE10deallocateERS1_PS0_m
	.p2align	4, 0x90
	.type	_ZNSt16allocator_traitsISaI9DataPointEE10deallocateERS1_PS0_m,@function
_ZNSt16allocator_traitsISaI9DataPointEE10deallocateERS1_PS0_m: # @_ZNSt16allocator_traitsISaI9DataPointEE10deallocateERS1_PS0_m
	.cfi_startproc
# %bb.0:
	pushq	%rbp
	.cfi_def_cfa_offset 16
	.cfi_offset %rbp, -16
	movq	%rsp, %rbp
	.cfi_def_cfa_register %rbp
	subq	$32, %rsp
	movq	%rdi, -24(%rbp)
	movq	%rsi, -16(%rbp)
	movq	%rdx, -8(%rbp)
	movq	-24(%rbp), %rdi
	movq	-16(%rbp), %rsi
	movq	-8(%rbp), %rdx
	callq	_ZN9__gnu_cxx13new_allocatorI9DataPointE10deallocateEPS1_m
	addq	$32, %rsp
	popq	%rbp
	.cfi_def_cfa %rsp, 8
	retq
.Lfunc_end50:
	.size	_ZNSt16allocator_traitsISaI9DataPointEE10deallocateERS1_PS0_m, .Lfunc_end50-_ZNSt16allocator_traitsISaI9DataPointEE10deallocateERS1_PS0_m
	.cfi_endproc
                                        # -- End function
	.section	.text._ZN9__gnu_cxx13new_allocatorI9DataPointE10deallocateEPS1_m,"axG",@progbits,_ZN9__gnu_cxx13new_allocatorI9DataPointE10deallocateEPS1_m,comdat
	.weak	_ZN9__gnu_cxx13new_allocatorI9DataPointE10deallocateEPS1_m # -- Begin function _ZN9__gnu_cxx13new_allocatorI9DataPointE10deallocateEPS1_m
	.p2align	4, 0x90
	.type	_ZN9__gnu_cxx13new_allocatorI9DataPointE10deallocateEPS1_m,@function
_ZN9__gnu_cxx13new_allocatorI9DataPointE10deallocateEPS1_m: # @_ZN9__gnu_cxx13new_allocatorI9DataPointE10deallocateEPS1_m
	.cfi_startproc
# %bb.0:
	pushq	%rbp
	.cfi_def_cfa_offset 16
	.cfi_offset %rbp, -16
	movq	%rsp, %rbp
	.cfi_def_cfa_register %rbp
	subq	$32, %rsp
	movq	%rdi, -24(%rbp)
	movq	%rsi, -8(%rbp)
	movq	%rdx, -16(%rbp)
	movq	-8(%rbp), %rdi
	callq	_ZdlPv@PLT
	addq	$32, %rsp
	popq	%rbp
	.cfi_def_cfa %rsp, 8
	retq
.Lfunc_end51:
	.size	_ZN9__gnu_cxx13new_allocatorI9DataPointE10deallocateEPS1_m, .Lfunc_end51-_ZN9__gnu_cxx13new_allocatorI9DataPointE10deallocateEPS1_m
	.cfi_endproc
                                        # -- End function
	.section	.text._ZNSaI9DataPointED2Ev,"axG",@progbits,_ZNSaI9DataPointED2Ev,comdat
	.weak	_ZNSaI9DataPointED2Ev           # -- Begin function _ZNSaI9DataPointED2Ev
	.p2align	4, 0x90
	.type	_ZNSaI9DataPointED2Ev,@function
_ZNSaI9DataPointED2Ev:                  # @_ZNSaI9DataPointED2Ev
	.cfi_startproc
# %bb.0:
	pushq	%rbp
	.cfi_def_cfa_offset 16
	.cfi_offset %rbp, -16
	movq	%rsp, %rbp
	.cfi_def_cfa_register %rbp
	subq	$16, %rsp
	movq	%rdi, -8(%rbp)
	movq	-8(%rbp), %rdi
	callq	_ZN9__gnu_cxx13new_allocatorI9DataPointED2Ev
	addq	$16, %rsp
	popq	%rbp
	.cfi_def_cfa %rsp, 8
	retq
.Lfunc_end52:
	.size	_ZNSaI9DataPointED2Ev, .Lfunc_end52-_ZNSaI9DataPointED2Ev
	.cfi_endproc
                                        # -- End function
	.section	.text._ZN9__gnu_cxx13new_allocatorI9DataPointED2Ev,"axG",@progbits,_ZN9__gnu_cxx13new_allocatorI9DataPointED2Ev,comdat
	.weak	_ZN9__gnu_cxx13new_allocatorI9DataPointED2Ev # -- Begin function _ZN9__gnu_cxx13new_allocatorI9DataPointED2Ev
	.p2align	4, 0x90
	.type	_ZN9__gnu_cxx13new_allocatorI9DataPointED2Ev,@function
_ZN9__gnu_cxx13new_allocatorI9DataPointED2Ev: # @_ZN9__gnu_cxx13new_allocatorI9DataPointED2Ev
	.cfi_startproc
# %bb.0:
	pushq	%rbp
	.cfi_def_cfa_offset 16
	.cfi_offset %rbp, -16
	movq	%rsp, %rbp
	.cfi_def_cfa_register %rbp
	movq	%rdi, -8(%rbp)
	popq	%rbp
	.cfi_def_cfa %rsp, 8
	retq
.Lfunc_end53:
	.size	_ZN9__gnu_cxx13new_allocatorI9DataPointED2Ev, .Lfunc_end53-_ZN9__gnu_cxx13new_allocatorI9DataPointED2Ev
	.cfi_endproc
                                        # -- End function
	.section	.text._ZNSt16allocator_traitsISaINSt7__cxx1112basic_stringIcSt11char_traitsIcESaIcEEEEE9constructIS5_JRKS5_EEEvRS6_PT_DpOT0_,"axG",@progbits,_ZNSt16allocator_traitsISaINSt7__cxx1112basic_stringIcSt11char_traitsIcESaIcEEEEE9constructIS5_JRKS5_EEEvRS6_PT_DpOT0_,comdat
	.weak	_ZNSt16allocator_traitsISaINSt7__cxx1112basic_stringIcSt11char_traitsIcESaIcEEEEE9constructIS5_JRKS5_EEEvRS6_PT_DpOT0_ # -- Begin function _ZNSt16allocator_traitsISaINSt7__cxx1112basic_stringIcSt11char_traitsIcESaIcEEEEE9constructIS5_JRKS5_EEEvRS6_PT_DpOT0_
	.p2align	4, 0x90
	.type	_ZNSt16allocator_traitsISaINSt7__cxx1112basic_stringIcSt11char_traitsIcESaIcEEEEE9constructIS5_JRKS5_EEEvRS6_PT_DpOT0_,@function
_ZNSt16allocator_traitsISaINSt7__cxx1112basic_stringIcSt11char_traitsIcESaIcEEEEE9constructIS5_JRKS5_EEEvRS6_PT_DpOT0_: # @_ZNSt16allocator_traitsISaINSt7__cxx1112basic_stringIcSt11char_traitsIcESaIcEEEEE9constructIS5_JRKS5_EEEvRS6_PT_DpOT0_
	.cfi_startproc
# %bb.0:
	pushq	%rbp
	.cfi_def_cfa_offset 16
	.cfi_offset %rbp, -16
	movq	%rsp, %rbp
	.cfi_def_cfa_register %rbp
	pushq	%r14
	pushq	%rbx
	subq	$32, %rsp
	.cfi_offset %rbx, -32
	.cfi_offset %r14, -24
	movq	%rdi, -40(%rbp)
	movq	%rsi, -32(%rbp)
	movq	%rdx, -24(%rbp)
	movq	-40(%rbp), %r14
	movq	-32(%rbp), %rbx
	movq	-24(%rbp), %rdi
	callq	_ZSt7forwardIRKNSt7__cxx1112basic_stringIcSt11char_traitsIcESaIcEEEEOT_RNSt16remove_referenceIS8_E4typeE
	movq	%r14, %rdi
	movq	%rbx, %rsi
	movq	%rax, %rdx
	callq	_ZN9__gnu_cxx13new_allocatorINSt7__cxx1112basic_stringIcSt11char_traitsIcESaIcEEEE9constructIS6_JRKS6_EEEvPT_DpOT0_
	addq	$32, %rsp
	popq	%rbx
	popq	%r14
	popq	%rbp
	.cfi_def_cfa %rsp, 8
	retq
.Lfunc_end54:
	.size	_ZNSt16allocator_traitsISaINSt7__cxx1112basic_stringIcSt11char_traitsIcESaIcEEEEE9constructIS5_JRKS5_EEEvRS6_PT_DpOT0_, .Lfunc_end54-_ZNSt16allocator_traitsISaINSt7__cxx1112basic_stringIcSt11char_traitsIcESaIcEEEEE9constructIS5_JRKS5_EEEvRS6_PT_DpOT0_
	.cfi_endproc
                                        # -- End function
	.section	.text._ZNSt6vectorINSt7__cxx1112basic_stringIcSt11char_traitsIcESaIcEEESaIS5_EE17_M_realloc_insertIJRKS5_EEEvN9__gnu_cxx17__normal_iteratorIPS5_S7_EEDpOT_,"axG",@progbits,_ZNSt6vectorINSt7__cxx1112basic_stringIcSt11char_traitsIcESaIcEEESaIS5_EE17_M_realloc_insertIJRKS5_EEEvN9__gnu_cxx17__normal_iteratorIPS5_S7_EEDpOT_,comdat
	.weak	_ZNSt6vectorINSt7__cxx1112basic_stringIcSt11char_traitsIcESaIcEEESaIS5_EE17_M_realloc_insertIJRKS5_EEEvN9__gnu_cxx17__normal_iteratorIPS5_S7_EEDpOT_ # -- Begin function _ZNSt6vectorINSt7__cxx1112basic_stringIcSt11char_traitsIcESaIcEEESaIS5_EE17_M_realloc_insertIJRKS5_EEEvN9__gnu_cxx17__normal_iteratorIPS5_S7_EEDpOT_
	.p2align	4, 0x90
	.type	_ZNSt6vectorINSt7__cxx1112basic_stringIcSt11char_traitsIcESaIcEEESaIS5_EE17_M_realloc_insertIJRKS5_EEEvN9__gnu_cxx17__normal_iteratorIPS5_S7_EEDpOT_,@function
_ZNSt6vectorINSt7__cxx1112basic_stringIcSt11char_traitsIcESaIcEEESaIS5_EE17_M_realloc_insertIJRKS5_EEEvN9__gnu_cxx17__normal_iteratorIPS5_S7_EEDpOT_: # @_ZNSt6vectorINSt7__cxx1112basic_stringIcSt11char_traitsIcESaIcEEESaIS5_EE17_M_realloc_insertIJRKS5_EEEvN9__gnu_cxx17__normal_iteratorIPS5_S7_EEDpOT_
.Lfunc_begin5:
	.cfi_startproc
	.cfi_personality 3, __gxx_personality_v0
	.cfi_lsda 3, .Lexception5
# %bb.0:
	pushq	%rbp
	.cfi_def_cfa_offset 16
	.cfi_offset %rbp, -16
	movq	%rsp, %rbp
	.cfi_def_cfa_register %rbp
	pushq	%r15
	pushq	%r14
	pushq	%r12
	pushq	%rbx
	subq	$96, %rsp
	.cfi_offset %rbx, -48
	.cfi_offset %r12, -40
	.cfi_offset %r14, -32
	.cfi_offset %r15, -24
	movq	%rsi, -80(%rbp)
	movq	%rdi, -128(%rbp)
	movq	%rdx, -120(%rbp)
	movq	-128(%rbp), %r14
	movq	%r14, %rdi
	movl	$1, %esi
	movl	$.L.str.4, %edx
	callq	_ZNKSt6vectorINSt7__cxx1112basic_stringIcSt11char_traitsIcESaIcEEESaIS5_EE12_M_check_lenEmPKc
	movq	%rax, -72(%rbp)
	movq	(%r14), %rax
	movq	%rax, -64(%rbp)
	movq	8(%r14), %rax
	movq	%rax, -112(%rbp)
	movq	%r14, %rdi
	callq	_ZNSt6vectorINSt7__cxx1112basic_stringIcSt11char_traitsIcESaIcEEESaIS5_EE5beginEv
	movq	%rax, -104(%rbp)
	leaq	-80(%rbp), %rdi
	leaq	-104(%rbp), %rsi
	callq	_ZN9__gnu_cxxmiIPNSt7__cxx1112basic_stringIcSt11char_traitsIcESaIcEEESt6vectorIS6_SaIS6_EEEENS_17__normal_iteratorIT_T0_E15difference_typeERKSE_SH_
	movq	%rax, -96(%rbp)
	movq	-72(%rbp), %rsi
	movq	%r14, %rdi
	callq	_ZNSt12_Vector_baseINSt7__cxx1112basic_stringIcSt11char_traitsIcESaIcEEESaIS5_EE11_M_allocateEm
	movq	%rax, -48(%rbp)
	movq	-48(%rbp), %rax
	movq	%rax, -40(%rbp)
	movq	-48(%rbp), %rbx
	movq	-96(%rbp), %rax
	shlq	$5, %rax
	addq	%rax, %rbx
	movq	-120(%rbp), %rdi
	callq	_ZSt7forwardIRKNSt7__cxx1112basic_stringIcSt11char_traitsIcESaIcEEEEOT_RNSt16remove_referenceIS8_E4typeE
.Ltmp54:
	movq	%r14, %rdi
	movq	%rbx, %rsi
	movq	%rax, %rdx
	callq	_ZNSt16allocator_traitsISaINSt7__cxx1112basic_stringIcSt11char_traitsIcESaIcEEEEE9constructIS5_JRKS5_EEEvRS6_PT_DpOT0_
.Ltmp55:
	jmp	.LBB55_1
.LBB55_1:
	movq	$0, -40(%rbp)
	movq	-64(%rbp), %r15
	leaq	-80(%rbp), %rdi
	callq	_ZNK9__gnu_cxx17__normal_iteratorIPNSt7__cxx1112basic_stringIcSt11char_traitsIcESaIcEEESt6vectorIS6_SaIS6_EEE4baseEv
	movq	(%rax), %rbx
	movq	-48(%rbp), %r12
	movq	%r14, %rdi
	callq	_ZNSt12_Vector_baseINSt7__cxx1112basic_stringIcSt11char_traitsIcESaIcEEESaIS5_EE19_M_get_Tp_allocatorEv
	movq	%r15, %rdi
	movq	%rbx, %rsi
	movq	%r12, %rdx
	movq	%rax, %rcx
	callq	_ZNSt6vectorINSt7__cxx1112basic_stringIcSt11char_traitsIcESaIcEEESaIS5_EE11_S_relocateEPS5_S8_S8_RS6_
	movq	%rax, -40(%rbp)
	movq	-40(%rbp), %rax
	addq	$32, %rax
	movq	%rax, -40(%rbp)
	leaq	-80(%rbp), %rdi
	callq	_ZNK9__gnu_cxx17__normal_iteratorIPNSt7__cxx1112basic_stringIcSt11char_traitsIcESaIcEEESt6vectorIS6_SaIS6_EEE4baseEv
	movq	(%rax), %rbx
	movq	-112(%rbp), %r15
	movq	-40(%rbp), %r12
	movq	%r14, %rdi
	callq	_ZNSt12_Vector_baseINSt7__cxx1112basic_stringIcSt11char_traitsIcESaIcEEESaIS5_EE19_M_get_Tp_allocatorEv
	movq	%rbx, %rdi
	movq	%r15, %rsi
	movq	%r12, %rdx
	movq	%rax, %rcx
	callq	_ZNSt6vectorINSt7__cxx1112basic_stringIcSt11char_traitsIcESaIcEEESaIS5_EE11_S_relocateEPS5_S8_S8_RS6_
	movq	%rax, -40(%rbp)
	jmp	.LBB55_11
.LBB55_2:
.Ltmp56:
	movq	%rax, -56(%rbp)
	movl	%edx, -84(%rbp)
# %bb.3:
	movq	-56(%rbp), %rdi
	callq	__cxa_begin_catch@PLT
	cmpq	$0, -40(%rbp)
	jne	.LBB55_5
# %bb.4:
	movq	-48(%rbp), %rsi
	movq	-96(%rbp), %rax
	shlq	$5, %rax
	addq	%rax, %rsi
	movq	%r14, %rdi
	callq	_ZNSt16allocator_traitsISaINSt7__cxx1112basic_stringIcSt11char_traitsIcESaIcEEEEE7destroyIS5_EEvRS6_PT_
	jmp	.LBB55_8
.LBB55_5:
	movq	-48(%rbp), %rbx
	movq	-40(%rbp), %r15
	movq	%r14, %rdi
	callq	_ZNSt12_Vector_baseINSt7__cxx1112basic_stringIcSt11char_traitsIcESaIcEEESaIS5_EE19_M_get_Tp_allocatorEv
.Ltmp57:
	movq	%rbx, %rdi
	movq	%r15, %rsi
	movq	%rax, %rdx
	callq	_ZSt8_DestroyIPNSt7__cxx1112basic_stringIcSt11char_traitsIcESaIcEEES5_EvT_S7_RSaIT0_E
.Ltmp58:
	jmp	.LBB55_6
.LBB55_6:
	jmp	.LBB55_8
.LBB55_7:
.Ltmp63:
	movq	%rax, -56(%rbp)
	movl	%edx, -84(%rbp)
.Ltmp64:
	callq	__cxa_end_catch@PLT
.Ltmp65:
	jmp	.LBB55_10
.LBB55_8:
	movq	-48(%rbp), %rsi
	movq	-72(%rbp), %rdx
.Ltmp59:
	movq	%r14, %rdi
	callq	_ZNSt12_Vector_baseINSt7__cxx1112basic_stringIcSt11char_traitsIcESaIcEEESaIS5_EE13_M_deallocateEPS5_m
.Ltmp60:
	jmp	.LBB55_9
.LBB55_9:
.Ltmp61:
	callq	__cxa_rethrow@PLT
.Ltmp62:
	jmp	.LBB55_14
.LBB55_10:
	jmp	.LBB55_12
.LBB55_11:
	movq	-64(%rbp), %rsi
	movq	16(%r14), %rdx
	movq	-64(%rbp), %rax
	subq	%rax, %rdx
	sarq	$5, %rdx
	movq	%r14, %rdi
	callq	_ZNSt12_Vector_baseINSt7__cxx1112basic_stringIcSt11char_traitsIcESaIcEEESaIS5_EE13_M_deallocateEPS5_m
	movq	-48(%rbp), %rax
	movq	%rax, (%r14)
	movq	-40(%rbp), %rax
	movq	%rax, 8(%r14)
	movq	-48(%rbp), %rax
	movq	-72(%rbp), %rcx
	shlq	$5, %rcx
	addq	%rcx, %rax
	movq	%rax, 16(%r14)
	addq	$96, %rsp
	popq	%rbx
	popq	%r12
	popq	%r14
	popq	%r15
	popq	%rbp
	.cfi_def_cfa %rsp, 8
	retq
.LBB55_12:
	.cfi_def_cfa %rbp, 16
	movq	-56(%rbp), %rdi
	callq	_Unwind_Resume@PLT
.LBB55_13:
.Ltmp66:
                                        # kill: killed $rdx
	movq	%rax, %rdi
	callq	__clang_call_terminate
.LBB55_14:
.Lfunc_end55:
	.size	_ZNSt6vectorINSt7__cxx1112basic_stringIcSt11char_traitsIcESaIcEEESaIS5_EE17_M_realloc_insertIJRKS5_EEEvN9__gnu_cxx17__normal_iteratorIPS5_S7_EEDpOT_, .Lfunc_end55-_ZNSt6vectorINSt7__cxx1112basic_stringIcSt11char_traitsIcESaIcEEESaIS5_EE17_M_realloc_insertIJRKS5_EEEvN9__gnu_cxx17__normal_iteratorIPS5_S7_EEDpOT_
	.cfi_endproc
	.section	.gcc_except_table._ZNSt6vectorINSt7__cxx1112basic_stringIcSt11char_traitsIcESaIcEEESaIS5_EE17_M_realloc_insertIJRKS5_EEEvN9__gnu_cxx17__normal_iteratorIPS5_S7_EEDpOT_,"aG",@progbits,_ZNSt6vectorINSt7__cxx1112basic_stringIcSt11char_traitsIcESaIcEEESaIS5_EE17_M_realloc_insertIJRKS5_EEEvN9__gnu_cxx17__normal_iteratorIPS5_S7_EEDpOT_,comdat
	.p2align	2
GCC_except_table55:
.Lexception5:
	.byte	255                             # @LPStart Encoding = omit
	.byte	3                               # @TType Encoding = udata4
	.uleb128 .Lttbase4-.Lttbaseref4
.Lttbaseref4:
	.byte	1                               # Call site Encoding = uleb128
	.uleb128 .Lcst_end5-.Lcst_begin5
.Lcst_begin5:
	.uleb128 .Lfunc_begin5-.Lfunc_begin5    # >> Call Site 1 <<
	.uleb128 .Ltmp54-.Lfunc_begin5          #   Call between .Lfunc_begin5 and .Ltmp54
	.byte	0                               #     has no landing pad
	.byte	0                               #   On action: cleanup
	.uleb128 .Ltmp54-.Lfunc_begin5          # >> Call Site 2 <<
	.uleb128 .Ltmp55-.Ltmp54                #   Call between .Ltmp54 and .Ltmp55
	.uleb128 .Ltmp56-.Lfunc_begin5          #     jumps to .Ltmp56
	.byte	1                               #   On action: 1
	.uleb128 .Ltmp55-.Lfunc_begin5          # >> Call Site 3 <<
	.uleb128 .Ltmp57-.Ltmp55                #   Call between .Ltmp55 and .Ltmp57
	.byte	0                               #     has no landing pad
	.byte	0                               #   On action: cleanup
	.uleb128 .Ltmp57-.Lfunc_begin5          # >> Call Site 4 <<
	.uleb128 .Ltmp58-.Ltmp57                #   Call between .Ltmp57 and .Ltmp58
	.uleb128 .Ltmp63-.Lfunc_begin5          #     jumps to .Ltmp63
	.byte	0                               #   On action: cleanup
	.uleb128 .Ltmp64-.Lfunc_begin5          # >> Call Site 5 <<
	.uleb128 .Ltmp65-.Ltmp64                #   Call between .Ltmp64 and .Ltmp65
	.uleb128 .Ltmp66-.Lfunc_begin5          #     jumps to .Ltmp66
	.byte	1                               #   On action: 1
	.uleb128 .Ltmp59-.Lfunc_begin5          # >> Call Site 6 <<
	.uleb128 .Ltmp62-.Ltmp59                #   Call between .Ltmp59 and .Ltmp62
	.uleb128 .Ltmp63-.Lfunc_begin5          #     jumps to .Ltmp63
	.byte	0                               #   On action: cleanup
	.uleb128 .Ltmp62-.Lfunc_begin5          # >> Call Site 7 <<
	.uleb128 .Lfunc_end55-.Ltmp62           #   Call between .Ltmp62 and .Lfunc_end55
	.byte	0                               #     has no landing pad
	.byte	0                               #   On action: cleanup
.Lcst_end5:
	.byte	1                               # >> Action Record 1 <<
                                        #   Catch TypeInfo 1
	.byte	0                               #   No further actions
	.p2align	2
                                        # >> Catch TypeInfos <<
	.long	0                               # TypeInfo 1
.Lttbase4:
	.p2align	2
                                        # -- End function
	.section	.text._ZNSt6vectorINSt7__cxx1112basic_stringIcSt11char_traitsIcESaIcEEESaIS5_EE3endEv,"axG",@progbits,_ZNSt6vectorINSt7__cxx1112basic_stringIcSt11char_traitsIcESaIcEEESaIS5_EE3endEv,comdat
	.weak	_ZNSt6vectorINSt7__cxx1112basic_stringIcSt11char_traitsIcESaIcEEESaIS5_EE3endEv # -- Begin function _ZNSt6vectorINSt7__cxx1112basic_stringIcSt11char_traitsIcESaIcEEESaIS5_EE3endEv
	.p2align	4, 0x90
	.type	_ZNSt6vectorINSt7__cxx1112basic_stringIcSt11char_traitsIcESaIcEEESaIS5_EE3endEv,@function
_ZNSt6vectorINSt7__cxx1112basic_stringIcSt11char_traitsIcESaIcEEESaIS5_EE3endEv: # @_ZNSt6vectorINSt7__cxx1112basic_stringIcSt11char_traitsIcESaIcEEESaIS5_EE3endEv
	.cfi_startproc
# %bb.0:
	pushq	%rbp
	.cfi_def_cfa_offset 16
	.cfi_offset %rbp, -16
	movq	%rsp, %rbp
	.cfi_def_cfa_register %rbp
	subq	$16, %rsp
	movq	%rdi, -8(%rbp)
	movq	-8(%rbp), %rsi
	addq	$8, %rsi
	leaq	-16(%rbp), %rdi
	callq	_ZN9__gnu_cxx17__normal_iteratorIPNSt7__cxx1112basic_stringIcSt11char_traitsIcESaIcEEESt6vectorIS6_SaIS6_EEEC2ERKS7_
	movq	-16(%rbp), %rax
	addq	$16, %rsp
	popq	%rbp
	.cfi_def_cfa %rsp, 8
	retq
.Lfunc_end56:
	.size	_ZNSt6vectorINSt7__cxx1112basic_stringIcSt11char_traitsIcESaIcEEESaIS5_EE3endEv, .Lfunc_end56-_ZNSt6vectorINSt7__cxx1112basic_stringIcSt11char_traitsIcESaIcEEESaIS5_EE3endEv
	.cfi_endproc
                                        # -- End function
	.section	.text._ZN9__gnu_cxx13new_allocatorINSt7__cxx1112basic_stringIcSt11char_traitsIcESaIcEEEE9constructIS6_JRKS6_EEEvPT_DpOT0_,"axG",@progbits,_ZN9__gnu_cxx13new_allocatorINSt7__cxx1112basic_stringIcSt11char_traitsIcESaIcEEEE9constructIS6_JRKS6_EEEvPT_DpOT0_,comdat
	.weak	_ZN9__gnu_cxx13new_allocatorINSt7__cxx1112basic_stringIcSt11char_traitsIcESaIcEEEE9constructIS6_JRKS6_EEEvPT_DpOT0_ # -- Begin function _ZN9__gnu_cxx13new_allocatorINSt7__cxx1112basic_stringIcSt11char_traitsIcESaIcEEEE9constructIS6_JRKS6_EEEvPT_DpOT0_
	.p2align	4, 0x90
	.type	_ZN9__gnu_cxx13new_allocatorINSt7__cxx1112basic_stringIcSt11char_traitsIcESaIcEEEE9constructIS6_JRKS6_EEEvPT_DpOT0_,@function
_ZN9__gnu_cxx13new_allocatorINSt7__cxx1112basic_stringIcSt11char_traitsIcESaIcEEEE9constructIS6_JRKS6_EEEvPT_DpOT0_: # @_ZN9__gnu_cxx13new_allocatorINSt7__cxx1112basic_stringIcSt11char_traitsIcESaIcEEEE9constructIS6_JRKS6_EEEvPT_DpOT0_
	.cfi_startproc
# %bb.0:
	pushq	%rbp
	.cfi_def_cfa_offset 16
	.cfi_offset %rbp, -16
	movq	%rsp, %rbp
	.cfi_def_cfa_register %rbp
	pushq	%rbx
	subq	$24, %rsp
	.cfi_offset %rbx, -24
	movq	%rdi, -32(%rbp)
	movq	%rsi, -24(%rbp)
	movq	%rdx, -16(%rbp)
	movq	-24(%rbp), %rbx
	movq	-16(%rbp), %rdi
	callq	_ZSt7forwardIRKNSt7__cxx1112basic_stringIcSt11char_traitsIcESaIcEEEEOT_RNSt16remove_referenceIS8_E4typeE
	movq	%rbx, %rdi
	movq	%rax, %rsi
	callq	_ZNSt7__cxx1112basic_stringIcSt11char_traitsIcESaIcEEC1ERKS4_@PLT
	addq	$24, %rsp
	popq	%rbx
	popq	%rbp
	.cfi_def_cfa %rsp, 8
	retq
.Lfunc_end57:
	.size	_ZN9__gnu_cxx13new_allocatorINSt7__cxx1112basic_stringIcSt11char_traitsIcESaIcEEEE9constructIS6_JRKS6_EEEvPT_DpOT0_, .Lfunc_end57-_ZN9__gnu_cxx13new_allocatorINSt7__cxx1112basic_stringIcSt11char_traitsIcESaIcEEEE9constructIS6_JRKS6_EEEvPT_DpOT0_
	.cfi_endproc
                                        # -- End function
	.section	.text._ZSt7forwardIRKNSt7__cxx1112basic_stringIcSt11char_traitsIcESaIcEEEEOT_RNSt16remove_referenceIS8_E4typeE,"axG",@progbits,_ZSt7forwardIRKNSt7__cxx1112basic_stringIcSt11char_traitsIcESaIcEEEEOT_RNSt16remove_referenceIS8_E4typeE,comdat
	.weak	_ZSt7forwardIRKNSt7__cxx1112basic_stringIcSt11char_traitsIcESaIcEEEEOT_RNSt16remove_referenceIS8_E4typeE # -- Begin function _ZSt7forwardIRKNSt7__cxx1112basic_stringIcSt11char_traitsIcESaIcEEEEOT_RNSt16remove_referenceIS8_E4typeE
	.p2align	4, 0x90
	.type	_ZSt7forwardIRKNSt7__cxx1112basic_stringIcSt11char_traitsIcESaIcEEEEOT_RNSt16remove_referenceIS8_E4typeE,@function
_ZSt7forwardIRKNSt7__cxx1112basic_stringIcSt11char_traitsIcESaIcEEEEOT_RNSt16remove_referenceIS8_E4typeE: # @_ZSt7forwardIRKNSt7__cxx1112basic_stringIcSt11char_traitsIcESaIcEEEEOT_RNSt16remove_referenceIS8_E4typeE
	.cfi_startproc
# %bb.0:
	pushq	%rbp
	.cfi_def_cfa_offset 16
	.cfi_offset %rbp, -16
	movq	%rsp, %rbp
	.cfi_def_cfa_register %rbp
	movq	%rdi, -8(%rbp)
	movq	-8(%rbp), %rax
	popq	%rbp
	.cfi_def_cfa %rsp, 8
	retq
.Lfunc_end58:
	.size	_ZSt7forwardIRKNSt7__cxx1112basic_stringIcSt11char_traitsIcESaIcEEEEOT_RNSt16remove_referenceIS8_E4typeE, .Lfunc_end58-_ZSt7forwardIRKNSt7__cxx1112basic_stringIcSt11char_traitsIcESaIcEEEEOT_RNSt16remove_referenceIS8_E4typeE
	.cfi_endproc
                                        # -- End function
	.section	.text._ZNKSt6vectorINSt7__cxx1112basic_stringIcSt11char_traitsIcESaIcEEESaIS5_EE12_M_check_lenEmPKc,"axG",@progbits,_ZNKSt6vectorINSt7__cxx1112basic_stringIcSt11char_traitsIcESaIcEEESaIS5_EE12_M_check_lenEmPKc,comdat
	.weak	_ZNKSt6vectorINSt7__cxx1112basic_stringIcSt11char_traitsIcESaIcEEESaIS5_EE12_M_check_lenEmPKc # -- Begin function _ZNKSt6vectorINSt7__cxx1112basic_stringIcSt11char_traitsIcESaIcEEESaIS5_EE12_M_check_lenEmPKc
	.p2align	4, 0x90
	.type	_ZNKSt6vectorINSt7__cxx1112basic_stringIcSt11char_traitsIcESaIcEEESaIS5_EE12_M_check_lenEmPKc,@function
_ZNKSt6vectorINSt7__cxx1112basic_stringIcSt11char_traitsIcESaIcEEESaIS5_EE12_M_check_lenEmPKc: # @_ZNKSt6vectorINSt7__cxx1112basic_stringIcSt11char_traitsIcESaIcEEESaIS5_EE12_M_check_lenEmPKc
	.cfi_startproc
# %bb.0:
	pushq	%rbp
	.cfi_def_cfa_offset 16
	.cfi_offset %rbp, -16
	movq	%rsp, %rbp
	.cfi_def_cfa_register %rbp
	pushq	%r14
	pushq	%rbx
	subq	$48, %rsp
	.cfi_offset %rbx, -32
	.cfi_offset %r14, -24
	movq	%rdi, -56(%rbp)
	movq	%rsi, -32(%rbp)
	movq	%rdx, -48(%rbp)
	movq	-56(%rbp), %r14
	movq	%r14, %rdi
	callq	_ZNKSt6vectorINSt7__cxx1112basic_stringIcSt11char_traitsIcESaIcEEESaIS5_EE8max_sizeEv
	movq	%rax, %rbx
	movq	%r14, %rdi
	callq	_ZNKSt6vectorINSt7__cxx1112basic_stringIcSt11char_traitsIcESaIcEEESaIS5_EE4sizeEv
	subq	%rax, %rbx
	cmpq	-32(%rbp), %rbx
	jae	.LBB59_2
# %bb.1:
	movq	-48(%rbp), %rdi
	callq	_ZSt20__throw_length_errorPKc@PLT
.LBB59_2:
	movq	%r14, %rdi
	callq	_ZNKSt6vectorINSt7__cxx1112basic_stringIcSt11char_traitsIcESaIcEEESaIS5_EE4sizeEv
	movq	%rax, %rbx
	movq	%r14, %rdi
	callq	_ZNKSt6vectorINSt7__cxx1112basic_stringIcSt11char_traitsIcESaIcEEESaIS5_EE4sizeEv
	movq	%rax, -40(%rbp)
	leaq	-40(%rbp), %rdi
	leaq	-32(%rbp), %rsi
	callq	_ZSt3maxImERKT_S2_S2_
	addq	(%rax), %rbx
	movq	%rbx, -24(%rbp)
	movq	-24(%rbp), %rbx
	movq	%r14, %rdi
	callq	_ZNKSt6vectorINSt7__cxx1112basic_stringIcSt11char_traitsIcESaIcEEESaIS5_EE4sizeEv
	cmpq	%rax, %rbx
	jb	.LBB59_4
# %bb.3:
	movq	-24(%rbp), %rbx
	movq	%r14, %rdi
	callq	_ZNKSt6vectorINSt7__cxx1112basic_stringIcSt11char_traitsIcESaIcEEESaIS5_EE8max_sizeEv
	cmpq	%rax, %rbx
	jbe	.LBB59_5
.LBB59_4:
	movq	%r14, %rdi
	callq	_ZNKSt6vectorINSt7__cxx1112basic_stringIcSt11char_traitsIcESaIcEEESaIS5_EE8max_sizeEv
	jmp	.LBB59_6
.LBB59_5:
	movq	-24(%rbp), %rax
.LBB59_6:
	addq	$48, %rsp
	popq	%rbx
	popq	%r14
	popq	%rbp
	.cfi_def_cfa %rsp, 8
	retq
.Lfunc_end59:
	.size	_ZNKSt6vectorINSt7__cxx1112basic_stringIcSt11char_traitsIcESaIcEEESaIS5_EE12_M_check_lenEmPKc, .Lfunc_end59-_ZNKSt6vectorINSt7__cxx1112basic_stringIcSt11char_traitsIcESaIcEEESaIS5_EE12_M_check_lenEmPKc
	.cfi_endproc
                                        # -- End function
	.section	.text._ZN9__gnu_cxxmiIPNSt7__cxx1112basic_stringIcSt11char_traitsIcESaIcEEESt6vectorIS6_SaIS6_EEEENS_17__normal_iteratorIT_T0_E15difference_typeERKSE_SH_,"axG",@progbits,_ZN9__gnu_cxxmiIPNSt7__cxx1112basic_stringIcSt11char_traitsIcESaIcEEESt6vectorIS6_SaIS6_EEEENS_17__normal_iteratorIT_T0_E15difference_typeERKSE_SH_,comdat
	.weak	_ZN9__gnu_cxxmiIPNSt7__cxx1112basic_stringIcSt11char_traitsIcESaIcEEESt6vectorIS6_SaIS6_EEEENS_17__normal_iteratorIT_T0_E15difference_typeERKSE_SH_ # -- Begin function _ZN9__gnu_cxxmiIPNSt7__cxx1112basic_stringIcSt11char_traitsIcESaIcEEESt6vectorIS6_SaIS6_EEEENS_17__normal_iteratorIT_T0_E15difference_typeERKSE_SH_
	.p2align	4, 0x90
	.type	_ZN9__gnu_cxxmiIPNSt7__cxx1112basic_stringIcSt11char_traitsIcESaIcEEESt6vectorIS6_SaIS6_EEEENS_17__normal_iteratorIT_T0_E15difference_typeERKSE_SH_,@function
_ZN9__gnu_cxxmiIPNSt7__cxx1112basic_stringIcSt11char_traitsIcESaIcEEESt6vectorIS6_SaIS6_EEEENS_17__normal_iteratorIT_T0_E15difference_typeERKSE_SH_: # @_ZN9__gnu_cxxmiIPNSt7__cxx1112basic_stringIcSt11char_traitsIcESaIcEEESt6vectorIS6_SaIS6_EEEENS_17__normal_iteratorIT_T0_E15difference_typeERKSE_SH_
	.cfi_startproc
# %bb.0:
	pushq	%rbp
	.cfi_def_cfa_offset 16
	.cfi_offset %rbp, -16
	movq	%rsp, %rbp
	.cfi_def_cfa_register %rbp
	pushq	%rbx
	subq	$24, %rsp
	.cfi_offset %rbx, -24
	movq	%rdi, -24(%rbp)
	movq	%rsi, -16(%rbp)
	movq	-24(%rbp), %rdi
	callq	_ZNK9__gnu_cxx17__normal_iteratorIPNSt7__cxx1112basic_stringIcSt11char_traitsIcESaIcEEESt6vectorIS6_SaIS6_EEE4baseEv
	movq	(%rax), %rbx
	movq	-16(%rbp), %rdi
	callq	_ZNK9__gnu_cxx17__normal_iteratorIPNSt7__cxx1112basic_stringIcSt11char_traitsIcESaIcEEESt6vectorIS6_SaIS6_EEE4baseEv
	movq	(%rax), %rax
	subq	%rax, %rbx
	sarq	$5, %rbx
	movq	%rbx, %rax
	addq	$24, %rsp
	popq	%rbx
	popq	%rbp
	.cfi_def_cfa %rsp, 8
	retq
.Lfunc_end60:
	.size	_ZN9__gnu_cxxmiIPNSt7__cxx1112basic_stringIcSt11char_traitsIcESaIcEEESt6vectorIS6_SaIS6_EEEENS_17__normal_iteratorIT_T0_E15difference_typeERKSE_SH_, .Lfunc_end60-_ZN9__gnu_cxxmiIPNSt7__cxx1112basic_stringIcSt11char_traitsIcESaIcEEESt6vectorIS6_SaIS6_EEEENS_17__normal_iteratorIT_T0_E15difference_typeERKSE_SH_
	.cfi_endproc
                                        # -- End function
	.section	.text._ZNSt6vectorINSt7__cxx1112basic_stringIcSt11char_traitsIcESaIcEEESaIS5_EE5beginEv,"axG",@progbits,_ZNSt6vectorINSt7__cxx1112basic_stringIcSt11char_traitsIcESaIcEEESaIS5_EE5beginEv,comdat
	.weak	_ZNSt6vectorINSt7__cxx1112basic_stringIcSt11char_traitsIcESaIcEEESaIS5_EE5beginEv # -- Begin function _ZNSt6vectorINSt7__cxx1112basic_stringIcSt11char_traitsIcESaIcEEESaIS5_EE5beginEv
	.p2align	4, 0x90
	.type	_ZNSt6vectorINSt7__cxx1112basic_stringIcSt11char_traitsIcESaIcEEESaIS5_EE5beginEv,@function
_ZNSt6vectorINSt7__cxx1112basic_stringIcSt11char_traitsIcESaIcEEESaIS5_EE5beginEv: # @_ZNSt6vectorINSt7__cxx1112basic_stringIcSt11char_traitsIcESaIcEEESaIS5_EE5beginEv
	.cfi_startproc
# %bb.0:
	pushq	%rbp
	.cfi_def_cfa_offset 16
	.cfi_offset %rbp, -16
	movq	%rsp, %rbp
	.cfi_def_cfa_register %rbp
	subq	$16, %rsp
	movq	%rdi, -8(%rbp)
	movq	-8(%rbp), %rsi
	leaq	-16(%rbp), %rdi
	callq	_ZN9__gnu_cxx17__normal_iteratorIPNSt7__cxx1112basic_stringIcSt11char_traitsIcESaIcEEESt6vectorIS6_SaIS6_EEEC2ERKS7_
	movq	-16(%rbp), %rax
	addq	$16, %rsp
	popq	%rbp
	.cfi_def_cfa %rsp, 8
	retq
.Lfunc_end61:
	.size	_ZNSt6vectorINSt7__cxx1112basic_stringIcSt11char_traitsIcESaIcEEESaIS5_EE5beginEv, .Lfunc_end61-_ZNSt6vectorINSt7__cxx1112basic_stringIcSt11char_traitsIcESaIcEEESaIS5_EE5beginEv
	.cfi_endproc
                                        # -- End function
	.section	.text._ZNSt12_Vector_baseINSt7__cxx1112basic_stringIcSt11char_traitsIcESaIcEEESaIS5_EE11_M_allocateEm,"axG",@progbits,_ZNSt12_Vector_baseINSt7__cxx1112basic_stringIcSt11char_traitsIcESaIcEEESaIS5_EE11_M_allocateEm,comdat
	.weak	_ZNSt12_Vector_baseINSt7__cxx1112basic_stringIcSt11char_traitsIcESaIcEEESaIS5_EE11_M_allocateEm # -- Begin function _ZNSt12_Vector_baseINSt7__cxx1112basic_stringIcSt11char_traitsIcESaIcEEESaIS5_EE11_M_allocateEm
	.p2align	4, 0x90
	.type	_ZNSt12_Vector_baseINSt7__cxx1112basic_stringIcSt11char_traitsIcESaIcEEESaIS5_EE11_M_allocateEm,@function
_ZNSt12_Vector_baseINSt7__cxx1112basic_stringIcSt11char_traitsIcESaIcEEESaIS5_EE11_M_allocateEm: # @_ZNSt12_Vector_baseINSt7__cxx1112basic_stringIcSt11char_traitsIcESaIcEEESaIS5_EE11_M_allocateEm
	.cfi_startproc
# %bb.0:
	pushq	%rbp
	.cfi_def_cfa_offset 16
	.cfi_offset %rbp, -16
	movq	%rsp, %rbp
	.cfi_def_cfa_register %rbp
	subq	$16, %rsp
	movq	%rdi, -16(%rbp)
	movq	%rsi, -8(%rbp)
	movq	-16(%rbp), %rdi
	cmpq	$0, -8(%rbp)
	je	.LBB62_2
# %bb.1:
	movq	-8(%rbp), %rsi
	callq	_ZNSt16allocator_traitsISaINSt7__cxx1112basic_stringIcSt11char_traitsIcESaIcEEEEE8allocateERS6_m
	jmp	.LBB62_3
.LBB62_2:
	xorl	%eax, %eax
	jmp	.LBB62_3
.LBB62_3:
	addq	$16, %rsp
	popq	%rbp
	.cfi_def_cfa %rsp, 8
	retq
.Lfunc_end62:
	.size	_ZNSt12_Vector_baseINSt7__cxx1112basic_stringIcSt11char_traitsIcESaIcEEESaIS5_EE11_M_allocateEm, .Lfunc_end62-_ZNSt12_Vector_baseINSt7__cxx1112basic_stringIcSt11char_traitsIcESaIcEEESaIS5_EE11_M_allocateEm
	.cfi_endproc
                                        # -- End function
	.section	.text._ZNSt6vectorINSt7__cxx1112basic_stringIcSt11char_traitsIcESaIcEEESaIS5_EE11_S_relocateEPS5_S8_S8_RS6_,"axG",@progbits,_ZNSt6vectorINSt7__cxx1112basic_stringIcSt11char_traitsIcESaIcEEESaIS5_EE11_S_relocateEPS5_S8_S8_RS6_,comdat
	.weak	_ZNSt6vectorINSt7__cxx1112basic_stringIcSt11char_traitsIcESaIcEEESaIS5_EE11_S_relocateEPS5_S8_S8_RS6_ # -- Begin function _ZNSt6vectorINSt7__cxx1112basic_stringIcSt11char_traitsIcESaIcEEESaIS5_EE11_S_relocateEPS5_S8_S8_RS6_
	.p2align	4, 0x90
	.type	_ZNSt6vectorINSt7__cxx1112basic_stringIcSt11char_traitsIcESaIcEEESaIS5_EE11_S_relocateEPS5_S8_S8_RS6_,@function
_ZNSt6vectorINSt7__cxx1112basic_stringIcSt11char_traitsIcESaIcEEESaIS5_EE11_S_relocateEPS5_S8_S8_RS6_: # @_ZNSt6vectorINSt7__cxx1112basic_stringIcSt11char_traitsIcESaIcEEESaIS5_EE11_S_relocateEPS5_S8_S8_RS6_
	.cfi_startproc
# %bb.0:
	pushq	%rbp
	.cfi_def_cfa_offset 16
	.cfi_offset %rbp, -16
	movq	%rsp, %rbp
	.cfi_def_cfa_register %rbp
	subq	$48, %rsp
	movq	%rdi, -32(%rbp)
	movq	%rsi, -24(%rbp)
	movq	%rdx, -16(%rbp)
	movq	%rcx, -8(%rbp)
	movq	-32(%rbp), %rdi
	movq	-24(%rbp), %rsi
	movq	-16(%rbp), %rdx
	movq	-8(%rbp), %rcx
	callq	_ZNSt6vectorINSt7__cxx1112basic_stringIcSt11char_traitsIcESaIcEEESaIS5_EE14_S_do_relocateEPS5_S8_S8_RS6_St17integral_constantIbLb1EE
	addq	$48, %rsp
	popq	%rbp
	.cfi_def_cfa %rsp, 8
	retq
.Lfunc_end63:
	.size	_ZNSt6vectorINSt7__cxx1112basic_stringIcSt11char_traitsIcESaIcEEESaIS5_EE11_S_relocateEPS5_S8_S8_RS6_, .Lfunc_end63-_ZNSt6vectorINSt7__cxx1112basic_stringIcSt11char_traitsIcESaIcEEESaIS5_EE11_S_relocateEPS5_S8_S8_RS6_
	.cfi_endproc
                                        # -- End function
	.section	.text._ZNK9__gnu_cxx17__normal_iteratorIPNSt7__cxx1112basic_stringIcSt11char_traitsIcESaIcEEESt6vectorIS6_SaIS6_EEE4baseEv,"axG",@progbits,_ZNK9__gnu_cxx17__normal_iteratorIPNSt7__cxx1112basic_stringIcSt11char_traitsIcESaIcEEESt6vectorIS6_SaIS6_EEE4baseEv,comdat
	.weak	_ZNK9__gnu_cxx17__normal_iteratorIPNSt7__cxx1112basic_stringIcSt11char_traitsIcESaIcEEESt6vectorIS6_SaIS6_EEE4baseEv # -- Begin function _ZNK9__gnu_cxx17__normal_iteratorIPNSt7__cxx1112basic_stringIcSt11char_traitsIcESaIcEEESt6vectorIS6_SaIS6_EEE4baseEv
	.p2align	4, 0x90
	.type	_ZNK9__gnu_cxx17__normal_iteratorIPNSt7__cxx1112basic_stringIcSt11char_traitsIcESaIcEEESt6vectorIS6_SaIS6_EEE4baseEv,@function
_ZNK9__gnu_cxx17__normal_iteratorIPNSt7__cxx1112basic_stringIcSt11char_traitsIcESaIcEEESt6vectorIS6_SaIS6_EEE4baseEv: # @_ZNK9__gnu_cxx17__normal_iteratorIPNSt7__cxx1112basic_stringIcSt11char_traitsIcESaIcEEESt6vectorIS6_SaIS6_EEE4baseEv
	.cfi_startproc
# %bb.0:
	pushq	%rbp
	.cfi_def_cfa_offset 16
	.cfi_offset %rbp, -16
	movq	%rsp, %rbp
	.cfi_def_cfa_register %rbp
	movq	%rdi, -8(%rbp)
	movq	-8(%rbp), %rax
	popq	%rbp
	.cfi_def_cfa %rsp, 8
	retq
.Lfunc_end64:
	.size	_ZNK9__gnu_cxx17__normal_iteratorIPNSt7__cxx1112basic_stringIcSt11char_traitsIcESaIcEEESt6vectorIS6_SaIS6_EEE4baseEv, .Lfunc_end64-_ZNK9__gnu_cxx17__normal_iteratorIPNSt7__cxx1112basic_stringIcSt11char_traitsIcESaIcEEESt6vectorIS6_SaIS6_EEE4baseEv
	.cfi_endproc
                                        # -- End function
	.section	.text._ZNSt16allocator_traitsISaINSt7__cxx1112basic_stringIcSt11char_traitsIcESaIcEEEEE7destroyIS5_EEvRS6_PT_,"axG",@progbits,_ZNSt16allocator_traitsISaINSt7__cxx1112basic_stringIcSt11char_traitsIcESaIcEEEEE7destroyIS5_EEvRS6_PT_,comdat
	.weak	_ZNSt16allocator_traitsISaINSt7__cxx1112basic_stringIcSt11char_traitsIcESaIcEEEEE7destroyIS5_EEvRS6_PT_ # -- Begin function _ZNSt16allocator_traitsISaINSt7__cxx1112basic_stringIcSt11char_traitsIcESaIcEEEEE7destroyIS5_EEvRS6_PT_
	.p2align	4, 0x90
	.type	_ZNSt16allocator_traitsISaINSt7__cxx1112basic_stringIcSt11char_traitsIcESaIcEEEEE7destroyIS5_EEvRS6_PT_,@function
_ZNSt16allocator_traitsISaINSt7__cxx1112basic_stringIcSt11char_traitsIcESaIcEEEEE7destroyIS5_EEvRS6_PT_: # @_ZNSt16allocator_traitsISaINSt7__cxx1112basic_stringIcSt11char_traitsIcESaIcEEEEE7destroyIS5_EEvRS6_PT_
	.cfi_startproc
# %bb.0:
	pushq	%rbp
	.cfi_def_cfa_offset 16
	.cfi_offset %rbp, -16
	movq	%rsp, %rbp
	.cfi_def_cfa_register %rbp
	subq	$16, %rsp
	movq	%rdi, -16(%rbp)
	movq	%rsi, -8(%rbp)
	movq	-16(%rbp), %rdi
	movq	-8(%rbp), %rsi
	callq	_ZN9__gnu_cxx13new_allocatorINSt7__cxx1112basic_stringIcSt11char_traitsIcESaIcEEEE7destroyIS6_EEvPT_
	addq	$16, %rsp
	popq	%rbp
	.cfi_def_cfa %rsp, 8
	retq
.Lfunc_end65:
	.size	_ZNSt16allocator_traitsISaINSt7__cxx1112basic_stringIcSt11char_traitsIcESaIcEEEEE7destroyIS5_EEvRS6_PT_, .Lfunc_end65-_ZNSt16allocator_traitsISaINSt7__cxx1112basic_stringIcSt11char_traitsIcESaIcEEEEE7destroyIS5_EEvRS6_PT_
	.cfi_endproc
                                        # -- End function
	.section	.text._ZNKSt6vectorINSt7__cxx1112basic_stringIcSt11char_traitsIcESaIcEEESaIS5_EE8max_sizeEv,"axG",@progbits,_ZNKSt6vectorINSt7__cxx1112basic_stringIcSt11char_traitsIcESaIcEEESaIS5_EE8max_sizeEv,comdat
	.weak	_ZNKSt6vectorINSt7__cxx1112basic_stringIcSt11char_traitsIcESaIcEEESaIS5_EE8max_sizeEv # -- Begin function _ZNKSt6vectorINSt7__cxx1112basic_stringIcSt11char_traitsIcESaIcEEESaIS5_EE8max_sizeEv
	.p2align	4, 0x90
	.type	_ZNKSt6vectorINSt7__cxx1112basic_stringIcSt11char_traitsIcESaIcEEESaIS5_EE8max_sizeEv,@function
_ZNKSt6vectorINSt7__cxx1112basic_stringIcSt11char_traitsIcESaIcEEESaIS5_EE8max_sizeEv: # @_ZNKSt6vectorINSt7__cxx1112basic_stringIcSt11char_traitsIcESaIcEEESaIS5_EE8max_sizeEv
	.cfi_startproc
# %bb.0:
	pushq	%rbp
	.cfi_def_cfa_offset 16
	.cfi_offset %rbp, -16
	movq	%rsp, %rbp
	.cfi_def_cfa_register %rbp
	subq	$16, %rsp
	movq	%rdi, -8(%rbp)
	movq	-8(%rbp), %rdi
	callq	_ZNKSt12_Vector_baseINSt7__cxx1112basic_stringIcSt11char_traitsIcESaIcEEESaIS5_EE19_M_get_Tp_allocatorEv
	movq	%rax, %rdi
	callq	_ZNSt6vectorINSt7__cxx1112basic_stringIcSt11char_traitsIcESaIcEEESaIS5_EE11_S_max_sizeERKS6_
	addq	$16, %rsp
	popq	%rbp
	.cfi_def_cfa %rsp, 8
	retq
.Lfunc_end66:
	.size	_ZNKSt6vectorINSt7__cxx1112basic_stringIcSt11char_traitsIcESaIcEEESaIS5_EE8max_sizeEv, .Lfunc_end66-_ZNKSt6vectorINSt7__cxx1112basic_stringIcSt11char_traitsIcESaIcEEESaIS5_EE8max_sizeEv
	.cfi_endproc
                                        # -- End function
	.section	.text._ZNKSt6vectorINSt7__cxx1112basic_stringIcSt11char_traitsIcESaIcEEESaIS5_EE4sizeEv,"axG",@progbits,_ZNKSt6vectorINSt7__cxx1112basic_stringIcSt11char_traitsIcESaIcEEESaIS5_EE4sizeEv,comdat
	.weak	_ZNKSt6vectorINSt7__cxx1112basic_stringIcSt11char_traitsIcESaIcEEESaIS5_EE4sizeEv # -- Begin function _ZNKSt6vectorINSt7__cxx1112basic_stringIcSt11char_traitsIcESaIcEEESaIS5_EE4sizeEv
	.p2align	4, 0x90
	.type	_ZNKSt6vectorINSt7__cxx1112basic_stringIcSt11char_traitsIcESaIcEEESaIS5_EE4sizeEv,@function
_ZNKSt6vectorINSt7__cxx1112basic_stringIcSt11char_traitsIcESaIcEEESaIS5_EE4sizeEv: # @_ZNKSt6vectorINSt7__cxx1112basic_stringIcSt11char_traitsIcESaIcEEESaIS5_EE4sizeEv
	.cfi_startproc
# %bb.0:
	pushq	%rbp
	.cfi_def_cfa_offset 16
	.cfi_offset %rbp, -16
	movq	%rsp, %rbp
	.cfi_def_cfa_register %rbp
	movq	%rdi, -8(%rbp)
	movq	-8(%rbp), %rcx
	movq	8(%rcx), %rax
	movq	(%rcx), %rcx
	subq	%rcx, %rax
	sarq	$5, %rax
	popq	%rbp
	.cfi_def_cfa %rsp, 8
	retq
.Lfunc_end67:
	.size	_ZNKSt6vectorINSt7__cxx1112basic_stringIcSt11char_traitsIcESaIcEEESaIS5_EE4sizeEv, .Lfunc_end67-_ZNKSt6vectorINSt7__cxx1112basic_stringIcSt11char_traitsIcESaIcEEESaIS5_EE4sizeEv
	.cfi_endproc
                                        # -- End function
	.section	.text._ZSt3maxImERKT_S2_S2_,"axG",@progbits,_ZSt3maxImERKT_S2_S2_,comdat
	.weak	_ZSt3maxImERKT_S2_S2_           # -- Begin function _ZSt3maxImERKT_S2_S2_
	.p2align	4, 0x90
	.type	_ZSt3maxImERKT_S2_S2_,@function
_ZSt3maxImERKT_S2_S2_:                  # @_ZSt3maxImERKT_S2_S2_
	.cfi_startproc
# %bb.0:
	pushq	%rbp
	.cfi_def_cfa_offset 16
	.cfi_offset %rbp, -16
	movq	%rsp, %rbp
	.cfi_def_cfa_register %rbp
	movq	%rdi, -16(%rbp)
	movq	%rsi, -8(%rbp)
	movq	-16(%rbp), %rax
	movq	(%rax), %rax
	movq	-8(%rbp), %rcx
	cmpq	(%rcx), %rax
	jae	.LBB68_2
# %bb.1:
	movq	-8(%rbp), %rax
	movq	%rax, -24(%rbp)
	jmp	.LBB68_3
.LBB68_2:
	movq	-16(%rbp), %rax
	movq	%rax, -24(%rbp)
.LBB68_3:
	movq	-24(%rbp), %rax
	popq	%rbp
	.cfi_def_cfa %rsp, 8
	retq
.Lfunc_end68:
	.size	_ZSt3maxImERKT_S2_S2_, .Lfunc_end68-_ZSt3maxImERKT_S2_S2_
	.cfi_endproc
                                        # -- End function
	.section	.text._ZNSt6vectorINSt7__cxx1112basic_stringIcSt11char_traitsIcESaIcEEESaIS5_EE11_S_max_sizeERKS6_,"axG",@progbits,_ZNSt6vectorINSt7__cxx1112basic_stringIcSt11char_traitsIcESaIcEEESaIS5_EE11_S_max_sizeERKS6_,comdat
	.weak	_ZNSt6vectorINSt7__cxx1112basic_stringIcSt11char_traitsIcESaIcEEESaIS5_EE11_S_max_sizeERKS6_ # -- Begin function _ZNSt6vectorINSt7__cxx1112basic_stringIcSt11char_traitsIcESaIcEEESaIS5_EE11_S_max_sizeERKS6_
	.p2align	4, 0x90
	.type	_ZNSt6vectorINSt7__cxx1112basic_stringIcSt11char_traitsIcESaIcEEESaIS5_EE11_S_max_sizeERKS6_,@function
_ZNSt6vectorINSt7__cxx1112basic_stringIcSt11char_traitsIcESaIcEEESaIS5_EE11_S_max_sizeERKS6_: # @_ZNSt6vectorINSt7__cxx1112basic_stringIcSt11char_traitsIcESaIcEEESaIS5_EE11_S_max_sizeERKS6_
.Lfunc_begin6:
	.cfi_startproc
	.cfi_personality 3, __gxx_personality_v0
	.cfi_lsda 3, .Lexception6
# %bb.0:
	pushq	%rbp
	.cfi_def_cfa_offset 16
	.cfi_offset %rbp, -16
	movq	%rsp, %rbp
	.cfi_def_cfa_register %rbp
	subq	$32, %rsp
	movq	%rdi, -24(%rbp)
	movabsq	$288230376151711743, %rax       # imm = 0x3FFFFFFFFFFFFFF
	movq	%rax, -16(%rbp)
	movq	-24(%rbp), %rdi
	callq	_ZNSt16allocator_traitsISaINSt7__cxx1112basic_stringIcSt11char_traitsIcESaIcEEEEE8max_sizeERKS6_
	movq	%rax, -8(%rbp)
.Ltmp67:
	leaq	-16(%rbp), %rdi
	leaq	-8(%rbp), %rsi
	callq	_ZSt3minImERKT_S2_S2_
.Ltmp68:
	jmp	.LBB69_1
.LBB69_1:
	movq	(%rax), %rax
	addq	$32, %rsp
	popq	%rbp
	.cfi_def_cfa %rsp, 8
	retq
.LBB69_2:
	.cfi_def_cfa %rbp, 16
.Ltmp69:
                                        # kill: killed $rdx
	movq	%rax, %rdi
	callq	__clang_call_terminate
.Lfunc_end69:
	.size	_ZNSt6vectorINSt7__cxx1112basic_stringIcSt11char_traitsIcESaIcEEESaIS5_EE11_S_max_sizeERKS6_, .Lfunc_end69-_ZNSt6vectorINSt7__cxx1112basic_stringIcSt11char_traitsIcESaIcEEESaIS5_EE11_S_max_sizeERKS6_
	.cfi_endproc
	.section	.gcc_except_table._ZNSt6vectorINSt7__cxx1112basic_stringIcSt11char_traitsIcESaIcEEESaIS5_EE11_S_max_sizeERKS6_,"aG",@progbits,_ZNSt6vectorINSt7__cxx1112basic_stringIcSt11char_traitsIcESaIcEEESaIS5_EE11_S_max_sizeERKS6_,comdat
	.p2align	2
GCC_except_table69:
.Lexception6:
	.byte	255                             # @LPStart Encoding = omit
	.byte	3                               # @TType Encoding = udata4
	.uleb128 .Lttbase5-.Lttbaseref5
.Lttbaseref5:
	.byte	1                               # Call site Encoding = uleb128
	.uleb128 .Lcst_end6-.Lcst_begin6
.Lcst_begin6:
	.uleb128 .Ltmp67-.Lfunc_begin6          # >> Call Site 1 <<
	.uleb128 .Ltmp68-.Ltmp67                #   Call between .Ltmp67 and .Ltmp68
	.uleb128 .Ltmp69-.Lfunc_begin6          #     jumps to .Ltmp69
	.byte	1                               #   On action: 1
.Lcst_end6:
	.byte	1                               # >> Action Record 1 <<
                                        #   Catch TypeInfo 1
	.byte	0                               #   No further actions
	.p2align	2
                                        # >> Catch TypeInfos <<
	.long	0                               # TypeInfo 1
.Lttbase5:
	.p2align	2
                                        # -- End function
	.section	.text._ZNKSt12_Vector_baseINSt7__cxx1112basic_stringIcSt11char_traitsIcESaIcEEESaIS5_EE19_M_get_Tp_allocatorEv,"axG",@progbits,_ZNKSt12_Vector_baseINSt7__cxx1112basic_stringIcSt11char_traitsIcESaIcEEESaIS5_EE19_M_get_Tp_allocatorEv,comdat
	.weak	_ZNKSt12_Vector_baseINSt7__cxx1112basic_stringIcSt11char_traitsIcESaIcEEESaIS5_EE19_M_get_Tp_allocatorEv # -- Begin function _ZNKSt12_Vector_baseINSt7__cxx1112basic_stringIcSt11char_traitsIcESaIcEEESaIS5_EE19_M_get_Tp_allocatorEv
	.p2align	4, 0x90
	.type	_ZNKSt12_Vector_baseINSt7__cxx1112basic_stringIcSt11char_traitsIcESaIcEEESaIS5_EE19_M_get_Tp_allocatorEv,@function
_ZNKSt12_Vector_baseINSt7__cxx1112basic_stringIcSt11char_traitsIcESaIcEEESaIS5_EE19_M_get_Tp_allocatorEv: # @_ZNKSt12_Vector_baseINSt7__cxx1112basic_stringIcSt11char_traitsIcESaIcEEESaIS5_EE19_M_get_Tp_allocatorEv
	.cfi_startproc
# %bb.0:
	pushq	%rbp
	.cfi_def_cfa_offset 16
	.cfi_offset %rbp, -16
	movq	%rsp, %rbp
	.cfi_def_cfa_register %rbp
	movq	%rdi, -8(%rbp)
	movq	-8(%rbp), %rax
	popq	%rbp
	.cfi_def_cfa %rsp, 8
	retq
.Lfunc_end70:
	.size	_ZNKSt12_Vector_baseINSt7__cxx1112basic_stringIcSt11char_traitsIcESaIcEEESaIS5_EE19_M_get_Tp_allocatorEv, .Lfunc_end70-_ZNKSt12_Vector_baseINSt7__cxx1112basic_stringIcSt11char_traitsIcESaIcEEESaIS5_EE19_M_get_Tp_allocatorEv
	.cfi_endproc
                                        # -- End function
	.section	.text._ZNSt16allocator_traitsISaINSt7__cxx1112basic_stringIcSt11char_traitsIcESaIcEEEEE8max_sizeERKS6_,"axG",@progbits,_ZNSt16allocator_traitsISaINSt7__cxx1112basic_stringIcSt11char_traitsIcESaIcEEEEE8max_sizeERKS6_,comdat
	.weak	_ZNSt16allocator_traitsISaINSt7__cxx1112basic_stringIcSt11char_traitsIcESaIcEEEEE8max_sizeERKS6_ # -- Begin function _ZNSt16allocator_traitsISaINSt7__cxx1112basic_stringIcSt11char_traitsIcESaIcEEEEE8max_sizeERKS6_
	.p2align	4, 0x90
	.type	_ZNSt16allocator_traitsISaINSt7__cxx1112basic_stringIcSt11char_traitsIcESaIcEEEEE8max_sizeERKS6_,@function
_ZNSt16allocator_traitsISaINSt7__cxx1112basic_stringIcSt11char_traitsIcESaIcEEEEE8max_sizeERKS6_: # @_ZNSt16allocator_traitsISaINSt7__cxx1112basic_stringIcSt11char_traitsIcESaIcEEEEE8max_sizeERKS6_
	.cfi_startproc
# %bb.0:
	pushq	%rbp
	.cfi_def_cfa_offset 16
	.cfi_offset %rbp, -16
	movq	%rsp, %rbp
	.cfi_def_cfa_register %rbp
	subq	$16, %rsp
	movq	%rdi, -8(%rbp)
	movq	-8(%rbp), %rdi
	callq	_ZNK9__gnu_cxx13new_allocatorINSt7__cxx1112basic_stringIcSt11char_traitsIcESaIcEEEE8max_sizeEv
	addq	$16, %rsp
	popq	%rbp
	.cfi_def_cfa %rsp, 8
	retq
.Lfunc_end71:
	.size	_ZNSt16allocator_traitsISaINSt7__cxx1112basic_stringIcSt11char_traitsIcESaIcEEEEE8max_sizeERKS6_, .Lfunc_end71-_ZNSt16allocator_traitsISaINSt7__cxx1112basic_stringIcSt11char_traitsIcESaIcEEEEE8max_sizeERKS6_
	.cfi_endproc
                                        # -- End function
	.section	.text._ZSt3minImERKT_S2_S2_,"axG",@progbits,_ZSt3minImERKT_S2_S2_,comdat
	.weak	_ZSt3minImERKT_S2_S2_           # -- Begin function _ZSt3minImERKT_S2_S2_
	.p2align	4, 0x90
	.type	_ZSt3minImERKT_S2_S2_,@function
_ZSt3minImERKT_S2_S2_:                  # @_ZSt3minImERKT_S2_S2_
	.cfi_startproc
# %bb.0:
	pushq	%rbp
	.cfi_def_cfa_offset 16
	.cfi_offset %rbp, -16
	movq	%rsp, %rbp
	.cfi_def_cfa_register %rbp
	movq	%rdi, -16(%rbp)
	movq	%rsi, -8(%rbp)
	movq	-8(%rbp), %rax
	movq	(%rax), %rax
	movq	-16(%rbp), %rcx
	cmpq	(%rcx), %rax
	jae	.LBB72_2
# %bb.1:
	movq	-8(%rbp), %rax
	movq	%rax, -24(%rbp)
	jmp	.LBB72_3
.LBB72_2:
	movq	-16(%rbp), %rax
	movq	%rax, -24(%rbp)
.LBB72_3:
	movq	-24(%rbp), %rax
	popq	%rbp
	.cfi_def_cfa %rsp, 8
	retq
.Lfunc_end72:
	.size	_ZSt3minImERKT_S2_S2_, .Lfunc_end72-_ZSt3minImERKT_S2_S2_
	.cfi_endproc
                                        # -- End function
	.section	.text._ZNK9__gnu_cxx13new_allocatorINSt7__cxx1112basic_stringIcSt11char_traitsIcESaIcEEEE8max_sizeEv,"axG",@progbits,_ZNK9__gnu_cxx13new_allocatorINSt7__cxx1112basic_stringIcSt11char_traitsIcESaIcEEEE8max_sizeEv,comdat
	.weak	_ZNK9__gnu_cxx13new_allocatorINSt7__cxx1112basic_stringIcSt11char_traitsIcESaIcEEEE8max_sizeEv # -- Begin function _ZNK9__gnu_cxx13new_allocatorINSt7__cxx1112basic_stringIcSt11char_traitsIcESaIcEEEE8max_sizeEv
	.p2align	4, 0x90
	.type	_ZNK9__gnu_cxx13new_allocatorINSt7__cxx1112basic_stringIcSt11char_traitsIcESaIcEEEE8max_sizeEv,@function
_ZNK9__gnu_cxx13new_allocatorINSt7__cxx1112basic_stringIcSt11char_traitsIcESaIcEEEE8max_sizeEv: # @_ZNK9__gnu_cxx13new_allocatorINSt7__cxx1112basic_stringIcSt11char_traitsIcESaIcEEEE8max_sizeEv
	.cfi_startproc
# %bb.0:
	pushq	%rbp
	.cfi_def_cfa_offset 16
	.cfi_offset %rbp, -16
	movq	%rsp, %rbp
	.cfi_def_cfa_register %rbp
	subq	$16, %rsp
	movq	%rdi, -8(%rbp)
	movq	-8(%rbp), %rdi
	callq	_ZNK9__gnu_cxx13new_allocatorINSt7__cxx1112basic_stringIcSt11char_traitsIcESaIcEEEE11_M_max_sizeEv
	addq	$16, %rsp
	popq	%rbp
	.cfi_def_cfa %rsp, 8
	retq
.Lfunc_end73:
	.size	_ZNK9__gnu_cxx13new_allocatorINSt7__cxx1112basic_stringIcSt11char_traitsIcESaIcEEEE8max_sizeEv, .Lfunc_end73-_ZNK9__gnu_cxx13new_allocatorINSt7__cxx1112basic_stringIcSt11char_traitsIcESaIcEEEE8max_sizeEv
	.cfi_endproc
                                        # -- End function
	.section	.text._ZNK9__gnu_cxx13new_allocatorINSt7__cxx1112basic_stringIcSt11char_traitsIcESaIcEEEE11_M_max_sizeEv,"axG",@progbits,_ZNK9__gnu_cxx13new_allocatorINSt7__cxx1112basic_stringIcSt11char_traitsIcESaIcEEEE11_M_max_sizeEv,comdat
	.weak	_ZNK9__gnu_cxx13new_allocatorINSt7__cxx1112basic_stringIcSt11char_traitsIcESaIcEEEE11_M_max_sizeEv # -- Begin function _ZNK9__gnu_cxx13new_allocatorINSt7__cxx1112basic_stringIcSt11char_traitsIcESaIcEEEE11_M_max_sizeEv
	.p2align	4, 0x90
	.type	_ZNK9__gnu_cxx13new_allocatorINSt7__cxx1112basic_stringIcSt11char_traitsIcESaIcEEEE11_M_max_sizeEv,@function
_ZNK9__gnu_cxx13new_allocatorINSt7__cxx1112basic_stringIcSt11char_traitsIcESaIcEEEE11_M_max_sizeEv: # @_ZNK9__gnu_cxx13new_allocatorINSt7__cxx1112basic_stringIcSt11char_traitsIcESaIcEEEE11_M_max_sizeEv
	.cfi_startproc
# %bb.0:
	pushq	%rbp
	.cfi_def_cfa_offset 16
	.cfi_offset %rbp, -16
	movq	%rsp, %rbp
	.cfi_def_cfa_register %rbp
	movq	%rdi, -8(%rbp)
	movabsq	$288230376151711743, %rax       # imm = 0x3FFFFFFFFFFFFFF
	popq	%rbp
	.cfi_def_cfa %rsp, 8
	retq
.Lfunc_end74:
	.size	_ZNK9__gnu_cxx13new_allocatorINSt7__cxx1112basic_stringIcSt11char_traitsIcESaIcEEEE11_M_max_sizeEv, .Lfunc_end74-_ZNK9__gnu_cxx13new_allocatorINSt7__cxx1112basic_stringIcSt11char_traitsIcESaIcEEEE11_M_max_sizeEv
	.cfi_endproc
                                        # -- End function
	.section	.text._ZN9__gnu_cxx17__normal_iteratorIPNSt7__cxx1112basic_stringIcSt11char_traitsIcESaIcEEESt6vectorIS6_SaIS6_EEEC2ERKS7_,"axG",@progbits,_ZN9__gnu_cxx17__normal_iteratorIPNSt7__cxx1112basic_stringIcSt11char_traitsIcESaIcEEESt6vectorIS6_SaIS6_EEEC2ERKS7_,comdat
	.weak	_ZN9__gnu_cxx17__normal_iteratorIPNSt7__cxx1112basic_stringIcSt11char_traitsIcESaIcEEESt6vectorIS6_SaIS6_EEEC2ERKS7_ # -- Begin function _ZN9__gnu_cxx17__normal_iteratorIPNSt7__cxx1112basic_stringIcSt11char_traitsIcESaIcEEESt6vectorIS6_SaIS6_EEEC2ERKS7_
	.p2align	4, 0x90
	.type	_ZN9__gnu_cxx17__normal_iteratorIPNSt7__cxx1112basic_stringIcSt11char_traitsIcESaIcEEESt6vectorIS6_SaIS6_EEEC2ERKS7_,@function
_ZN9__gnu_cxx17__normal_iteratorIPNSt7__cxx1112basic_stringIcSt11char_traitsIcESaIcEEESt6vectorIS6_SaIS6_EEEC2ERKS7_: # @_ZN9__gnu_cxx17__normal_iteratorIPNSt7__cxx1112basic_stringIcSt11char_traitsIcESaIcEEESt6vectorIS6_SaIS6_EEEC2ERKS7_
	.cfi_startproc
# %bb.0:
	pushq	%rbp
	.cfi_def_cfa_offset 16
	.cfi_offset %rbp, -16
	movq	%rsp, %rbp
	.cfi_def_cfa_register %rbp
	movq	%rdi, -16(%rbp)
	movq	%rsi, -8(%rbp)
	movq	-16(%rbp), %rax
	movq	-8(%rbp), %rcx
	movq	(%rcx), %rcx
	movq	%rcx, (%rax)
	popq	%rbp
	.cfi_def_cfa %rsp, 8
	retq
.Lfunc_end75:
	.size	_ZN9__gnu_cxx17__normal_iteratorIPNSt7__cxx1112basic_stringIcSt11char_traitsIcESaIcEEESt6vectorIS6_SaIS6_EEEC2ERKS7_, .Lfunc_end75-_ZN9__gnu_cxx17__normal_iteratorIPNSt7__cxx1112basic_stringIcSt11char_traitsIcESaIcEEESt6vectorIS6_SaIS6_EEEC2ERKS7_
	.cfi_endproc
                                        # -- End function
	.section	.text._ZNSt16allocator_traitsISaINSt7__cxx1112basic_stringIcSt11char_traitsIcESaIcEEEEE8allocateERS6_m,"axG",@progbits,_ZNSt16allocator_traitsISaINSt7__cxx1112basic_stringIcSt11char_traitsIcESaIcEEEEE8allocateERS6_m,comdat
	.weak	_ZNSt16allocator_traitsISaINSt7__cxx1112basic_stringIcSt11char_traitsIcESaIcEEEEE8allocateERS6_m # -- Begin function _ZNSt16allocator_traitsISaINSt7__cxx1112basic_stringIcSt11char_traitsIcESaIcEEEEE8allocateERS6_m
	.p2align	4, 0x90
	.type	_ZNSt16allocator_traitsISaINSt7__cxx1112basic_stringIcSt11char_traitsIcESaIcEEEEE8allocateERS6_m,@function
_ZNSt16allocator_traitsISaINSt7__cxx1112basic_stringIcSt11char_traitsIcESaIcEEEEE8allocateERS6_m: # @_ZNSt16allocator_traitsISaINSt7__cxx1112basic_stringIcSt11char_traitsIcESaIcEEEEE8allocateERS6_m
	.cfi_startproc
# %bb.0:
	pushq	%rbp
	.cfi_def_cfa_offset 16
	.cfi_offset %rbp, -16
	movq	%rsp, %rbp
	.cfi_def_cfa_register %rbp
	subq	$16, %rsp
	movq	%rdi, -16(%rbp)
	movq	%rsi, -8(%rbp)
	movq	-16(%rbp), %rdi
	movq	-8(%rbp), %rsi
	xorl	%edx, %edx
	callq	_ZN9__gnu_cxx13new_allocatorINSt7__cxx1112basic_stringIcSt11char_traitsIcESaIcEEEE8allocateEmPKv
	addq	$16, %rsp
	popq	%rbp
	.cfi_def_cfa %rsp, 8
	retq
.Lfunc_end76:
	.size	_ZNSt16allocator_traitsISaINSt7__cxx1112basic_stringIcSt11char_traitsIcESaIcEEEEE8allocateERS6_m, .Lfunc_end76-_ZNSt16allocator_traitsISaINSt7__cxx1112basic_stringIcSt11char_traitsIcESaIcEEEEE8allocateERS6_m
	.cfi_endproc
                                        # -- End function
	.section	.text._ZN9__gnu_cxx13new_allocatorINSt7__cxx1112basic_stringIcSt11char_traitsIcESaIcEEEE8allocateEmPKv,"axG",@progbits,_ZN9__gnu_cxx13new_allocatorINSt7__cxx1112basic_stringIcSt11char_traitsIcESaIcEEEE8allocateEmPKv,comdat
	.weak	_ZN9__gnu_cxx13new_allocatorINSt7__cxx1112basic_stringIcSt11char_traitsIcESaIcEEEE8allocateEmPKv # -- Begin function _ZN9__gnu_cxx13new_allocatorINSt7__cxx1112basic_stringIcSt11char_traitsIcESaIcEEEE8allocateEmPKv
	.p2align	4, 0x90
	.type	_ZN9__gnu_cxx13new_allocatorINSt7__cxx1112basic_stringIcSt11char_traitsIcESaIcEEEE8allocateEmPKv,@function
_ZN9__gnu_cxx13new_allocatorINSt7__cxx1112basic_stringIcSt11char_traitsIcESaIcEEEE8allocateEmPKv: # @_ZN9__gnu_cxx13new_allocatorINSt7__cxx1112basic_stringIcSt11char_traitsIcESaIcEEEE8allocateEmPKv
	.cfi_startproc
# %bb.0:
	pushq	%rbp
	.cfi_def_cfa_offset 16
	.cfi_offset %rbp, -16
	movq	%rsp, %rbp
	.cfi_def_cfa_register %rbp
	pushq	%rbx
	subq	$24, %rsp
	.cfi_offset %rbx, -24
	movq	%rdi, -24(%rbp)
	movq	%rsi, -16(%rbp)
	movq	%rdx, -32(%rbp)
	movq	-24(%rbp), %rdi
	movq	-16(%rbp), %rbx
	callq	_ZNK9__gnu_cxx13new_allocatorINSt7__cxx1112basic_stringIcSt11char_traitsIcESaIcEEEE11_M_max_sizeEv
	cmpq	%rax, %rbx
	jbe	.LBB77_4
# %bb.1:
	movabsq	$576460752303423487, %rax       # imm = 0x7FFFFFFFFFFFFFF
	cmpq	%rax, -16(%rbp)
	jbe	.LBB77_3
# %bb.2:
	callq	_ZSt28__throw_bad_array_new_lengthv@PLT
.LBB77_3:
	callq	_ZSt17__throw_bad_allocv@PLT
.LBB77_4:
	movq	-16(%rbp), %rdi
	shlq	$5, %rdi
	callq	_Znwm@PLT
	addq	$24, %rsp
	popq	%rbx
	popq	%rbp
	.cfi_def_cfa %rsp, 8
	retq
.Lfunc_end77:
	.size	_ZN9__gnu_cxx13new_allocatorINSt7__cxx1112basic_stringIcSt11char_traitsIcESaIcEEEE8allocateEmPKv, .Lfunc_end77-_ZN9__gnu_cxx13new_allocatorINSt7__cxx1112basic_stringIcSt11char_traitsIcESaIcEEEE8allocateEmPKv
	.cfi_endproc
                                        # -- End function
	.section	.text._ZNSt6vectorINSt7__cxx1112basic_stringIcSt11char_traitsIcESaIcEEESaIS5_EE14_S_do_relocateEPS5_S8_S8_RS6_St17integral_constantIbLb1EE,"axG",@progbits,_ZNSt6vectorINSt7__cxx1112basic_stringIcSt11char_traitsIcESaIcEEESaIS5_EE14_S_do_relocateEPS5_S8_S8_RS6_St17integral_constantIbLb1EE,comdat
	.weak	_ZNSt6vectorINSt7__cxx1112basic_stringIcSt11char_traitsIcESaIcEEESaIS5_EE14_S_do_relocateEPS5_S8_S8_RS6_St17integral_constantIbLb1EE # -- Begin function _ZNSt6vectorINSt7__cxx1112basic_stringIcSt11char_traitsIcESaIcEEESaIS5_EE14_S_do_relocateEPS5_S8_S8_RS6_St17integral_constantIbLb1EE
	.p2align	4, 0x90
	.type	_ZNSt6vectorINSt7__cxx1112basic_stringIcSt11char_traitsIcESaIcEEESaIS5_EE14_S_do_relocateEPS5_S8_S8_RS6_St17integral_constantIbLb1EE,@function
_ZNSt6vectorINSt7__cxx1112basic_stringIcSt11char_traitsIcESaIcEEESaIS5_EE14_S_do_relocateEPS5_S8_S8_RS6_St17integral_constantIbLb1EE: # @_ZNSt6vectorINSt7__cxx1112basic_stringIcSt11char_traitsIcESaIcEEESaIS5_EE14_S_do_relocateEPS5_S8_S8_RS6_St17integral_constantIbLb1EE
	.cfi_startproc
# %bb.0:
	pushq	%rbp
	.cfi_def_cfa_offset 16
	.cfi_offset %rbp, -16
	movq	%rsp, %rbp
	.cfi_def_cfa_register %rbp
	subq	$48, %rsp
	movq	%rdi, -32(%rbp)
	movq	%rsi, -24(%rbp)
	movq	%rdx, -16(%rbp)
	movq	%rcx, -8(%rbp)
	movq	-32(%rbp), %rdi
	movq	-24(%rbp), %rsi
	movq	-16(%rbp), %rdx
	movq	-8(%rbp), %rcx
	callq	_ZSt12__relocate_aIPNSt7__cxx1112basic_stringIcSt11char_traitsIcESaIcEEES6_SaIS5_EET0_T_S9_S8_RT1_
	addq	$48, %rsp
	popq	%rbp
	.cfi_def_cfa %rsp, 8
	retq
.Lfunc_end78:
	.size	_ZNSt6vectorINSt7__cxx1112basic_stringIcSt11char_traitsIcESaIcEEESaIS5_EE14_S_do_relocateEPS5_S8_S8_RS6_St17integral_constantIbLb1EE, .Lfunc_end78-_ZNSt6vectorINSt7__cxx1112basic_stringIcSt11char_traitsIcESaIcEEESaIS5_EE14_S_do_relocateEPS5_S8_S8_RS6_St17integral_constantIbLb1EE
	.cfi_endproc
                                        # -- End function
	.section	.text._ZSt12__relocate_aIPNSt7__cxx1112basic_stringIcSt11char_traitsIcESaIcEEES6_SaIS5_EET0_T_S9_S8_RT1_,"axG",@progbits,_ZSt12__relocate_aIPNSt7__cxx1112basic_stringIcSt11char_traitsIcESaIcEEES6_SaIS5_EET0_T_S9_S8_RT1_,comdat
	.weak	_ZSt12__relocate_aIPNSt7__cxx1112basic_stringIcSt11char_traitsIcESaIcEEES6_SaIS5_EET0_T_S9_S8_RT1_ # -- Begin function _ZSt12__relocate_aIPNSt7__cxx1112basic_stringIcSt11char_traitsIcESaIcEEES6_SaIS5_EET0_T_S9_S8_RT1_
	.p2align	4, 0x90
	.type	_ZSt12__relocate_aIPNSt7__cxx1112basic_stringIcSt11char_traitsIcESaIcEEES6_SaIS5_EET0_T_S9_S8_RT1_,@function
_ZSt12__relocate_aIPNSt7__cxx1112basic_stringIcSt11char_traitsIcESaIcEEES6_SaIS5_EET0_T_S9_S8_RT1_: # @_ZSt12__relocate_aIPNSt7__cxx1112basic_stringIcSt11char_traitsIcESaIcEEES6_SaIS5_EET0_T_S9_S8_RT1_
	.cfi_startproc
# %bb.0:
	pushq	%rbp
	.cfi_def_cfa_offset 16
	.cfi_offset %rbp, -16
	movq	%rsp, %rbp
	.cfi_def_cfa_register %rbp
	pushq	%r14
	pushq	%rbx
	subq	$32, %rsp
	.cfi_offset %rbx, -32
	.cfi_offset %r14, -24
	movq	%rdi, -48(%rbp)
	movq	%rsi, -40(%rbp)
	movq	%rdx, -32(%rbp)
	movq	%rcx, -24(%rbp)
	movq	-48(%rbp), %rdi
	callq	_ZSt12__niter_baseIPNSt7__cxx1112basic_stringIcSt11char_traitsIcESaIcEEEET_S7_
	movq	%rax, %r14
	movq	-40(%rbp), %rdi
	callq	_ZSt12__niter_baseIPNSt7__cxx1112basic_stringIcSt11char_traitsIcESaIcEEEET_S7_
	movq	%rax, %rbx
	movq	-32(%rbp), %rdi
	callq	_ZSt12__niter_baseIPNSt7__cxx1112basic_stringIcSt11char_traitsIcESaIcEEEET_S7_
	movq	-24(%rbp), %rcx
	movq	%r14, %rdi
	movq	%rbx, %rsi
	movq	%rax, %rdx
	callq	_ZSt14__relocate_a_1IPNSt7__cxx1112basic_stringIcSt11char_traitsIcESaIcEEES6_SaIS5_EET0_T_S9_S8_RT1_
	addq	$32, %rsp
	popq	%rbx
	popq	%r14
	popq	%rbp
	.cfi_def_cfa %rsp, 8
	retq
.Lfunc_end79:
	.size	_ZSt12__relocate_aIPNSt7__cxx1112basic_stringIcSt11char_traitsIcESaIcEEES6_SaIS5_EET0_T_S9_S8_RT1_, .Lfunc_end79-_ZSt12__relocate_aIPNSt7__cxx1112basic_stringIcSt11char_traitsIcESaIcEEES6_SaIS5_EET0_T_S9_S8_RT1_
	.cfi_endproc
                                        # -- End function
	.section	.text._ZSt14__relocate_a_1IPNSt7__cxx1112basic_stringIcSt11char_traitsIcESaIcEEES6_SaIS5_EET0_T_S9_S8_RT1_,"axG",@progbits,_ZSt14__relocate_a_1IPNSt7__cxx1112basic_stringIcSt11char_traitsIcESaIcEEES6_SaIS5_EET0_T_S9_S8_RT1_,comdat
	.weak	_ZSt14__relocate_a_1IPNSt7__cxx1112basic_stringIcSt11char_traitsIcESaIcEEES6_SaIS5_EET0_T_S9_S8_RT1_ # -- Begin function _ZSt14__relocate_a_1IPNSt7__cxx1112basic_stringIcSt11char_traitsIcESaIcEEES6_SaIS5_EET0_T_S9_S8_RT1_
	.p2align	4, 0x90
	.type	_ZSt14__relocate_a_1IPNSt7__cxx1112basic_stringIcSt11char_traitsIcESaIcEEES6_SaIS5_EET0_T_S9_S8_RT1_,@function
_ZSt14__relocate_a_1IPNSt7__cxx1112basic_stringIcSt11char_traitsIcESaIcEEES6_SaIS5_EET0_T_S9_S8_RT1_: # @_ZSt14__relocate_a_1IPNSt7__cxx1112basic_stringIcSt11char_traitsIcESaIcEEES6_SaIS5_EET0_T_S9_S8_RT1_
	.cfi_startproc
# %bb.0:
	pushq	%rbp
	.cfi_def_cfa_offset 16
	.cfi_offset %rbp, -16
	movq	%rsp, %rbp
	.cfi_def_cfa_register %rbp
	pushq	%rbx
	subq	$40, %rsp
	.cfi_offset %rbx, -24
	movq	%rdi, -24(%rbp)
	movq	%rsi, -48(%rbp)
	movq	%rdx, -40(%rbp)
	movq	%rcx, -32(%rbp)
	movq	-40(%rbp), %rax
	movq	%rax, -16(%rbp)
.LBB80_1:                               # =>This Inner Loop Header: Depth=1
	movq	-24(%rbp), %rax
	cmpq	-48(%rbp), %rax
	je	.LBB80_4
# %bb.2:                                #   in Loop: Header=BB80_1 Depth=1
	movq	-16(%rbp), %rdi
	callq	_ZSt11__addressofINSt7__cxx1112basic_stringIcSt11char_traitsIcESaIcEEEEPT_RS6_
	movq	%rax, %rbx
	movq	-24(%rbp), %rdi
	callq	_ZSt11__addressofINSt7__cxx1112basic_stringIcSt11char_traitsIcESaIcEEEEPT_RS6_
	movq	-32(%rbp), %rdx
	movq	%rbx, %rdi
	movq	%rax, %rsi
	callq	_ZSt19__relocate_object_aINSt7__cxx1112basic_stringIcSt11char_traitsIcESaIcEEES5_SaIS5_EEvPT_PT0_RT1_
# %bb.3:                                #   in Loop: Header=BB80_1 Depth=1
	movq	-24(%rbp), %rax
	addq	$32, %rax
	movq	%rax, -24(%rbp)
	movq	-16(%rbp), %rax
	addq	$32, %rax
	movq	%rax, -16(%rbp)
	jmp	.LBB80_1
.LBB80_4:
	movq	-16(%rbp), %rax
	addq	$40, %rsp
	popq	%rbx
	popq	%rbp
	.cfi_def_cfa %rsp, 8
	retq
.Lfunc_end80:
	.size	_ZSt14__relocate_a_1IPNSt7__cxx1112basic_stringIcSt11char_traitsIcESaIcEEES6_SaIS5_EET0_T_S9_S8_RT1_, .Lfunc_end80-_ZSt14__relocate_a_1IPNSt7__cxx1112basic_stringIcSt11char_traitsIcESaIcEEES6_SaIS5_EET0_T_S9_S8_RT1_
	.cfi_endproc
                                        # -- End function
	.section	.text._ZSt12__niter_baseIPNSt7__cxx1112basic_stringIcSt11char_traitsIcESaIcEEEET_S7_,"axG",@progbits,_ZSt12__niter_baseIPNSt7__cxx1112basic_stringIcSt11char_traitsIcESaIcEEEET_S7_,comdat
	.weak	_ZSt12__niter_baseIPNSt7__cxx1112basic_stringIcSt11char_traitsIcESaIcEEEET_S7_ # -- Begin function _ZSt12__niter_baseIPNSt7__cxx1112basic_stringIcSt11char_traitsIcESaIcEEEET_S7_
	.p2align	4, 0x90
	.type	_ZSt12__niter_baseIPNSt7__cxx1112basic_stringIcSt11char_traitsIcESaIcEEEET_S7_,@function
_ZSt12__niter_baseIPNSt7__cxx1112basic_stringIcSt11char_traitsIcESaIcEEEET_S7_: # @_ZSt12__niter_baseIPNSt7__cxx1112basic_stringIcSt11char_traitsIcESaIcEEEET_S7_
	.cfi_startproc
# %bb.0:
	pushq	%rbp
	.cfi_def_cfa_offset 16
	.cfi_offset %rbp, -16
	movq	%rsp, %rbp
	.cfi_def_cfa_register %rbp
	movq	%rdi, -8(%rbp)
	movq	-8(%rbp), %rax
	popq	%rbp
	.cfi_def_cfa %rsp, 8
	retq
.Lfunc_end81:
	.size	_ZSt12__niter_baseIPNSt7__cxx1112basic_stringIcSt11char_traitsIcESaIcEEEET_S7_, .Lfunc_end81-_ZSt12__niter_baseIPNSt7__cxx1112basic_stringIcSt11char_traitsIcESaIcEEEET_S7_
	.cfi_endproc
                                        # -- End function
	.section	.text._ZSt19__relocate_object_aINSt7__cxx1112basic_stringIcSt11char_traitsIcESaIcEEES5_SaIS5_EEvPT_PT0_RT1_,"axG",@progbits,_ZSt19__relocate_object_aINSt7__cxx1112basic_stringIcSt11char_traitsIcESaIcEEES5_SaIS5_EEvPT_PT0_RT1_,comdat
	.weak	_ZSt19__relocate_object_aINSt7__cxx1112basic_stringIcSt11char_traitsIcESaIcEEES5_SaIS5_EEvPT_PT0_RT1_ # -- Begin function _ZSt19__relocate_object_aINSt7__cxx1112basic_stringIcSt11char_traitsIcESaIcEEES5_SaIS5_EEvPT_PT0_RT1_
	.p2align	4, 0x90
	.type	_ZSt19__relocate_object_aINSt7__cxx1112basic_stringIcSt11char_traitsIcESaIcEEES5_SaIS5_EEvPT_PT0_RT1_,@function
_ZSt19__relocate_object_aINSt7__cxx1112basic_stringIcSt11char_traitsIcESaIcEEES5_SaIS5_EEvPT_PT0_RT1_: # @_ZSt19__relocate_object_aINSt7__cxx1112basic_stringIcSt11char_traitsIcESaIcEEES5_SaIS5_EEvPT_PT0_RT1_
	.cfi_startproc
# %bb.0:
	pushq	%rbp
	.cfi_def_cfa_offset 16
	.cfi_offset %rbp, -16
	movq	%rsp, %rbp
	.cfi_def_cfa_register %rbp
	pushq	%r14
	pushq	%rbx
	subq	$32, %rsp
	.cfi_offset %rbx, -32
	.cfi_offset %r14, -24
	movq	%rdi, -40(%rbp)
	movq	%rsi, -32(%rbp)
	movq	%rdx, -24(%rbp)
	movq	-24(%rbp), %rbx
	movq	-40(%rbp), %r14
	movq	-32(%rbp), %rdi
	callq	_ZSt4moveIRNSt7__cxx1112basic_stringIcSt11char_traitsIcESaIcEEEEONSt16remove_referenceIT_E4typeEOS8_
	movq	%rbx, %rdi
	movq	%r14, %rsi
	movq	%rax, %rdx
	callq	_ZNSt16allocator_traitsISaINSt7__cxx1112basic_stringIcSt11char_traitsIcESaIcEEEEE9constructIS5_JS5_EEEvRS6_PT_DpOT0_
	movq	-24(%rbp), %rbx
	movq	-32(%rbp), %rdi
	callq	_ZSt11__addressofINSt7__cxx1112basic_stringIcSt11char_traitsIcESaIcEEEEPT_RS6_
	movq	%rbx, %rdi
	movq	%rax, %rsi
	callq	_ZNSt16allocator_traitsISaINSt7__cxx1112basic_stringIcSt11char_traitsIcESaIcEEEEE7destroyIS5_EEvRS6_PT_
	addq	$32, %rsp
	popq	%rbx
	popq	%r14
	popq	%rbp
	.cfi_def_cfa %rsp, 8
	retq
.Lfunc_end82:
	.size	_ZSt19__relocate_object_aINSt7__cxx1112basic_stringIcSt11char_traitsIcESaIcEEES5_SaIS5_EEvPT_PT0_RT1_, .Lfunc_end82-_ZSt19__relocate_object_aINSt7__cxx1112basic_stringIcSt11char_traitsIcESaIcEEES5_SaIS5_EEvPT_PT0_RT1_
	.cfi_endproc
                                        # -- End function
	.section	.text._ZNSt16allocator_traitsISaINSt7__cxx1112basic_stringIcSt11char_traitsIcESaIcEEEEE9constructIS5_JS5_EEEvRS6_PT_DpOT0_,"axG",@progbits,_ZNSt16allocator_traitsISaINSt7__cxx1112basic_stringIcSt11char_traitsIcESaIcEEEEE9constructIS5_JS5_EEEvRS6_PT_DpOT0_,comdat
	.weak	_ZNSt16allocator_traitsISaINSt7__cxx1112basic_stringIcSt11char_traitsIcESaIcEEEEE9constructIS5_JS5_EEEvRS6_PT_DpOT0_ # -- Begin function _ZNSt16allocator_traitsISaINSt7__cxx1112basic_stringIcSt11char_traitsIcESaIcEEEEE9constructIS5_JS5_EEEvRS6_PT_DpOT0_
	.p2align	4, 0x90
	.type	_ZNSt16allocator_traitsISaINSt7__cxx1112basic_stringIcSt11char_traitsIcESaIcEEEEE9constructIS5_JS5_EEEvRS6_PT_DpOT0_,@function
_ZNSt16allocator_traitsISaINSt7__cxx1112basic_stringIcSt11char_traitsIcESaIcEEEEE9constructIS5_JS5_EEEvRS6_PT_DpOT0_: # @_ZNSt16allocator_traitsISaINSt7__cxx1112basic_stringIcSt11char_traitsIcESaIcEEEEE9constructIS5_JS5_EEEvRS6_PT_DpOT0_
	.cfi_startproc
# %bb.0:
	pushq	%rbp
	.cfi_def_cfa_offset 16
	.cfi_offset %rbp, -16
	movq	%rsp, %rbp
	.cfi_def_cfa_register %rbp
	pushq	%r14
	pushq	%rbx
	subq	$32, %rsp
	.cfi_offset %rbx, -32
	.cfi_offset %r14, -24
	movq	%rdi, -40(%rbp)
	movq	%rsi, -32(%rbp)
	movq	%rdx, -24(%rbp)
	movq	-40(%rbp), %r14
	movq	-32(%rbp), %rbx
	movq	-24(%rbp), %rdi
	callq	_ZSt7forwardINSt7__cxx1112basic_stringIcSt11char_traitsIcESaIcEEEEOT_RNSt16remove_referenceIS6_E4typeE
	movq	%r14, %rdi
	movq	%rbx, %rsi
	movq	%rax, %rdx
	callq	_ZN9__gnu_cxx13new_allocatorINSt7__cxx1112basic_stringIcSt11char_traitsIcESaIcEEEE9constructIS6_JS6_EEEvPT_DpOT0_
	addq	$32, %rsp
	popq	%rbx
	popq	%r14
	popq	%rbp
	.cfi_def_cfa %rsp, 8
	retq
.Lfunc_end83:
	.size	_ZNSt16allocator_traitsISaINSt7__cxx1112basic_stringIcSt11char_traitsIcESaIcEEEEE9constructIS5_JS5_EEEvRS6_PT_DpOT0_, .Lfunc_end83-_ZNSt16allocator_traitsISaINSt7__cxx1112basic_stringIcSt11char_traitsIcESaIcEEEEE9constructIS5_JS5_EEEvRS6_PT_DpOT0_
	.cfi_endproc
                                        # -- End function
	.section	.text._ZSt4moveIRNSt7__cxx1112basic_stringIcSt11char_traitsIcESaIcEEEEONSt16remove_referenceIT_E4typeEOS8_,"axG",@progbits,_ZSt4moveIRNSt7__cxx1112basic_stringIcSt11char_traitsIcESaIcEEEEONSt16remove_referenceIT_E4typeEOS8_,comdat
	.weak	_ZSt4moveIRNSt7__cxx1112basic_stringIcSt11char_traitsIcESaIcEEEEONSt16remove_referenceIT_E4typeEOS8_ # -- Begin function _ZSt4moveIRNSt7__cxx1112basic_stringIcSt11char_traitsIcESaIcEEEEONSt16remove_referenceIT_E4typeEOS8_
	.p2align	4, 0x90
	.type	_ZSt4moveIRNSt7__cxx1112basic_stringIcSt11char_traitsIcESaIcEEEEONSt16remove_referenceIT_E4typeEOS8_,@function
_ZSt4moveIRNSt7__cxx1112basic_stringIcSt11char_traitsIcESaIcEEEEONSt16remove_referenceIT_E4typeEOS8_: # @_ZSt4moveIRNSt7__cxx1112basic_stringIcSt11char_traitsIcESaIcEEEEONSt16remove_referenceIT_E4typeEOS8_
	.cfi_startproc
# %bb.0:
	pushq	%rbp
	.cfi_def_cfa_offset 16
	.cfi_offset %rbp, -16
	movq	%rsp, %rbp
	.cfi_def_cfa_register %rbp
	movq	%rdi, -8(%rbp)
	movq	-8(%rbp), %rax
	popq	%rbp
	.cfi_def_cfa %rsp, 8
	retq
.Lfunc_end84:
	.size	_ZSt4moveIRNSt7__cxx1112basic_stringIcSt11char_traitsIcESaIcEEEEONSt16remove_referenceIT_E4typeEOS8_, .Lfunc_end84-_ZSt4moveIRNSt7__cxx1112basic_stringIcSt11char_traitsIcESaIcEEEEONSt16remove_referenceIT_E4typeEOS8_
	.cfi_endproc
                                        # -- End function
	.section	.text._ZN9__gnu_cxx13new_allocatorINSt7__cxx1112basic_stringIcSt11char_traitsIcESaIcEEEE9constructIS6_JS6_EEEvPT_DpOT0_,"axG",@progbits,_ZN9__gnu_cxx13new_allocatorINSt7__cxx1112basic_stringIcSt11char_traitsIcESaIcEEEE9constructIS6_JS6_EEEvPT_DpOT0_,comdat
	.weak	_ZN9__gnu_cxx13new_allocatorINSt7__cxx1112basic_stringIcSt11char_traitsIcESaIcEEEE9constructIS6_JS6_EEEvPT_DpOT0_ # -- Begin function _ZN9__gnu_cxx13new_allocatorINSt7__cxx1112basic_stringIcSt11char_traitsIcESaIcEEEE9constructIS6_JS6_EEEvPT_DpOT0_
	.p2align	4, 0x90
	.type	_ZN9__gnu_cxx13new_allocatorINSt7__cxx1112basic_stringIcSt11char_traitsIcESaIcEEEE9constructIS6_JS6_EEEvPT_DpOT0_,@function
_ZN9__gnu_cxx13new_allocatorINSt7__cxx1112basic_stringIcSt11char_traitsIcESaIcEEEE9constructIS6_JS6_EEEvPT_DpOT0_: # @_ZN9__gnu_cxx13new_allocatorINSt7__cxx1112basic_stringIcSt11char_traitsIcESaIcEEEE9constructIS6_JS6_EEEvPT_DpOT0_
	.cfi_startproc
# %bb.0:
	pushq	%rbp
	.cfi_def_cfa_offset 16
	.cfi_offset %rbp, -16
	movq	%rsp, %rbp
	.cfi_def_cfa_register %rbp
	pushq	%rbx
	subq	$24, %rsp
	.cfi_offset %rbx, -24
	movq	%rdi, -32(%rbp)
	movq	%rsi, -24(%rbp)
	movq	%rdx, -16(%rbp)
	movq	-24(%rbp), %rbx
	movq	-16(%rbp), %rdi
	callq	_ZSt7forwardINSt7__cxx1112basic_stringIcSt11char_traitsIcESaIcEEEEOT_RNSt16remove_referenceIS6_E4typeE
	movq	%rbx, %rdi
	movq	%rax, %rsi
	callq	_ZNSt7__cxx1112basic_stringIcSt11char_traitsIcESaIcEEC1EOS4_@PLT
	addq	$24, %rsp
	popq	%rbx
	popq	%rbp
	.cfi_def_cfa %rsp, 8
	retq
.Lfunc_end85:
	.size	_ZN9__gnu_cxx13new_allocatorINSt7__cxx1112basic_stringIcSt11char_traitsIcESaIcEEEE9constructIS6_JS6_EEEvPT_DpOT0_, .Lfunc_end85-_ZN9__gnu_cxx13new_allocatorINSt7__cxx1112basic_stringIcSt11char_traitsIcESaIcEEEE9constructIS6_JS6_EEEvPT_DpOT0_
	.cfi_endproc
                                        # -- End function
	.section	.text._ZSt7forwardINSt7__cxx1112basic_stringIcSt11char_traitsIcESaIcEEEEOT_RNSt16remove_referenceIS6_E4typeE,"axG",@progbits,_ZSt7forwardINSt7__cxx1112basic_stringIcSt11char_traitsIcESaIcEEEEOT_RNSt16remove_referenceIS6_E4typeE,comdat
	.weak	_ZSt7forwardINSt7__cxx1112basic_stringIcSt11char_traitsIcESaIcEEEEOT_RNSt16remove_referenceIS6_E4typeE # -- Begin function _ZSt7forwardINSt7__cxx1112basic_stringIcSt11char_traitsIcESaIcEEEEOT_RNSt16remove_referenceIS6_E4typeE
	.p2align	4, 0x90
	.type	_ZSt7forwardINSt7__cxx1112basic_stringIcSt11char_traitsIcESaIcEEEEOT_RNSt16remove_referenceIS6_E4typeE,@function
_ZSt7forwardINSt7__cxx1112basic_stringIcSt11char_traitsIcESaIcEEEEOT_RNSt16remove_referenceIS6_E4typeE: # @_ZSt7forwardINSt7__cxx1112basic_stringIcSt11char_traitsIcESaIcEEEEOT_RNSt16remove_referenceIS6_E4typeE
	.cfi_startproc
# %bb.0:
	pushq	%rbp
	.cfi_def_cfa_offset 16
	.cfi_offset %rbp, -16
	movq	%rsp, %rbp
	.cfi_def_cfa_register %rbp
	movq	%rdi, -8(%rbp)
	movq	-8(%rbp), %rax
	popq	%rbp
	.cfi_def_cfa %rsp, 8
	retq
.Lfunc_end86:
	.size	_ZSt7forwardINSt7__cxx1112basic_stringIcSt11char_traitsIcESaIcEEEEOT_RNSt16remove_referenceIS6_E4typeE, .Lfunc_end86-_ZSt7forwardINSt7__cxx1112basic_stringIcSt11char_traitsIcESaIcEEEEOT_RNSt16remove_referenceIS6_E4typeE
	.cfi_endproc
                                        # -- End function
	.section	.text._ZN9__gnu_cxx13new_allocatorINSt7__cxx1112basic_stringIcSt11char_traitsIcESaIcEEEE7destroyIS6_EEvPT_,"axG",@progbits,_ZN9__gnu_cxx13new_allocatorINSt7__cxx1112basic_stringIcSt11char_traitsIcESaIcEEEE7destroyIS6_EEvPT_,comdat
	.weak	_ZN9__gnu_cxx13new_allocatorINSt7__cxx1112basic_stringIcSt11char_traitsIcESaIcEEEE7destroyIS6_EEvPT_ # -- Begin function _ZN9__gnu_cxx13new_allocatorINSt7__cxx1112basic_stringIcSt11char_traitsIcESaIcEEEE7destroyIS6_EEvPT_
	.p2align	4, 0x90
	.type	_ZN9__gnu_cxx13new_allocatorINSt7__cxx1112basic_stringIcSt11char_traitsIcESaIcEEEE7destroyIS6_EEvPT_,@function
_ZN9__gnu_cxx13new_allocatorINSt7__cxx1112basic_stringIcSt11char_traitsIcESaIcEEEE7destroyIS6_EEvPT_: # @_ZN9__gnu_cxx13new_allocatorINSt7__cxx1112basic_stringIcSt11char_traitsIcESaIcEEEE7destroyIS6_EEvPT_
	.cfi_startproc
# %bb.0:
	pushq	%rbp
	.cfi_def_cfa_offset 16
	.cfi_offset %rbp, -16
	movq	%rsp, %rbp
	.cfi_def_cfa_register %rbp
	subq	$16, %rsp
	movq	%rdi, -16(%rbp)
	movq	%rsi, -8(%rbp)
	movq	-8(%rbp), %rdi
	callq	_ZNSt7__cxx1112basic_stringIcSt11char_traitsIcESaIcEED1Ev@PLT
	addq	$16, %rsp
	popq	%rbp
	.cfi_def_cfa %rsp, 8
	retq
.Lfunc_end87:
	.size	_ZN9__gnu_cxx13new_allocatorINSt7__cxx1112basic_stringIcSt11char_traitsIcESaIcEEEE7destroyIS6_EEvPT_, .Lfunc_end87-_ZN9__gnu_cxx13new_allocatorINSt7__cxx1112basic_stringIcSt11char_traitsIcESaIcEEEE7destroyIS6_EEvPT_
	.cfi_endproc
                                        # -- End function
	.section	.text._ZNSt16allocator_traitsISaI9DataPointEE9constructIS0_JRSt6vectorINSt7__cxx1112basic_stringIcSt11char_traitsIcESaIcEEESaISA_EERSA_EEEvRS1_PT_DpOT0_,"axG",@progbits,_ZNSt16allocator_traitsISaI9DataPointEE9constructIS0_JRSt6vectorINSt7__cxx1112basic_stringIcSt11char_traitsIcESaIcEEESaISA_EERSA_EEEvRS1_PT_DpOT0_,comdat
	.weak	_ZNSt16allocator_traitsISaI9DataPointEE9constructIS0_JRSt6vectorINSt7__cxx1112basic_stringIcSt11char_traitsIcESaIcEEESaISA_EERSA_EEEvRS1_PT_DpOT0_ # -- Begin function _ZNSt16allocator_traitsISaI9DataPointEE9constructIS0_JRSt6vectorINSt7__cxx1112basic_stringIcSt11char_traitsIcESaIcEEESaISA_EERSA_EEEvRS1_PT_DpOT0_
	.p2align	4, 0x90
	.type	_ZNSt16allocator_traitsISaI9DataPointEE9constructIS0_JRSt6vectorINSt7__cxx1112basic_stringIcSt11char_traitsIcESaIcEEESaISA_EERSA_EEEvRS1_PT_DpOT0_,@function
_ZNSt16allocator_traitsISaI9DataPointEE9constructIS0_JRSt6vectorINSt7__cxx1112basic_stringIcSt11char_traitsIcESaIcEEESaISA_EERSA_EEEvRS1_PT_DpOT0_: # @_ZNSt16allocator_traitsISaI9DataPointEE9constructIS0_JRSt6vectorINSt7__cxx1112basic_stringIcSt11char_traitsIcESaIcEEESaISA_EERSA_EEEvRS1_PT_DpOT0_
	.cfi_startproc
# %bb.0:
	pushq	%rbp
	.cfi_def_cfa_offset 16
	.cfi_offset %rbp, -16
	movq	%rsp, %rbp
	.cfi_def_cfa_register %rbp
	pushq	%r15
	pushq	%r14
	pushq	%rbx
	subq	$40, %rsp
	.cfi_offset %rbx, -40
	.cfi_offset %r14, -32
	.cfi_offset %r15, -24
	movq	%rdi, -56(%rbp)
	movq	%rsi, -48(%rbp)
	movq	%rdx, -40(%rbp)
	movq	%rcx, -32(%rbp)
	movq	-56(%rbp), %r14
	movq	-48(%rbp), %r15
	movq	-40(%rbp), %rdi
	callq	_ZSt7forwardIRSt6vectorINSt7__cxx1112basic_stringIcSt11char_traitsIcESaIcEEESaIS6_EEEOT_RNSt16remove_referenceISA_E4typeE
	movq	%rax, %rbx
	movq	-32(%rbp), %rdi
	callq	_ZSt7forwardIRNSt7__cxx1112basic_stringIcSt11char_traitsIcESaIcEEEEOT_RNSt16remove_referenceIS7_E4typeE
	movq	%r14, %rdi
	movq	%r15, %rsi
	movq	%rbx, %rdx
	movq	%rax, %rcx
	callq	_ZN9__gnu_cxx13new_allocatorI9DataPointE9constructIS1_JRSt6vectorINSt7__cxx1112basic_stringIcSt11char_traitsIcESaIcEEESaISA_EERSA_EEEvPT_DpOT0_
	addq	$40, %rsp
	popq	%rbx
	popq	%r14
	popq	%r15
	popq	%rbp
	.cfi_def_cfa %rsp, 8
	retq
.Lfunc_end88:
	.size	_ZNSt16allocator_traitsISaI9DataPointEE9constructIS0_JRSt6vectorINSt7__cxx1112basic_stringIcSt11char_traitsIcESaIcEEESaISA_EERSA_EEEvRS1_PT_DpOT0_, .Lfunc_end88-_ZNSt16allocator_traitsISaI9DataPointEE9constructIS0_JRSt6vectorINSt7__cxx1112basic_stringIcSt11char_traitsIcESaIcEEESaISA_EERSA_EEEvRS1_PT_DpOT0_
	.cfi_endproc
                                        # -- End function
	.section	.text._ZSt7forwardIRSt6vectorINSt7__cxx1112basic_stringIcSt11char_traitsIcESaIcEEESaIS6_EEEOT_RNSt16remove_referenceISA_E4typeE,"axG",@progbits,_ZSt7forwardIRSt6vectorINSt7__cxx1112basic_stringIcSt11char_traitsIcESaIcEEESaIS6_EEEOT_RNSt16remove_referenceISA_E4typeE,comdat
	.weak	_ZSt7forwardIRSt6vectorINSt7__cxx1112basic_stringIcSt11char_traitsIcESaIcEEESaIS6_EEEOT_RNSt16remove_referenceISA_E4typeE # -- Begin function _ZSt7forwardIRSt6vectorINSt7__cxx1112basic_stringIcSt11char_traitsIcESaIcEEESaIS6_EEEOT_RNSt16remove_referenceISA_E4typeE
	.p2align	4, 0x90
	.type	_ZSt7forwardIRSt6vectorINSt7__cxx1112basic_stringIcSt11char_traitsIcESaIcEEESaIS6_EEEOT_RNSt16remove_referenceISA_E4typeE,@function
_ZSt7forwardIRSt6vectorINSt7__cxx1112basic_stringIcSt11char_traitsIcESaIcEEESaIS6_EEEOT_RNSt16remove_referenceISA_E4typeE: # @_ZSt7forwardIRSt6vectorINSt7__cxx1112basic_stringIcSt11char_traitsIcESaIcEEESaIS6_EEEOT_RNSt16remove_referenceISA_E4typeE
	.cfi_startproc
# %bb.0:
	pushq	%rbp
	.cfi_def_cfa_offset 16
	.cfi_offset %rbp, -16
	movq	%rsp, %rbp
	.cfi_def_cfa_register %rbp
	movq	%rdi, -8(%rbp)
	movq	-8(%rbp), %rax
	popq	%rbp
	.cfi_def_cfa %rsp, 8
	retq
.Lfunc_end89:
	.size	_ZSt7forwardIRSt6vectorINSt7__cxx1112basic_stringIcSt11char_traitsIcESaIcEEESaIS6_EEEOT_RNSt16remove_referenceISA_E4typeE, .Lfunc_end89-_ZSt7forwardIRSt6vectorINSt7__cxx1112basic_stringIcSt11char_traitsIcESaIcEEESaIS6_EEEOT_RNSt16remove_referenceISA_E4typeE
	.cfi_endproc
                                        # -- End function
	.section	.text._ZSt7forwardIRNSt7__cxx1112basic_stringIcSt11char_traitsIcESaIcEEEEOT_RNSt16remove_referenceIS7_E4typeE,"axG",@progbits,_ZSt7forwardIRNSt7__cxx1112basic_stringIcSt11char_traitsIcESaIcEEEEOT_RNSt16remove_referenceIS7_E4typeE,comdat
	.weak	_ZSt7forwardIRNSt7__cxx1112basic_stringIcSt11char_traitsIcESaIcEEEEOT_RNSt16remove_referenceIS7_E4typeE # -- Begin function _ZSt7forwardIRNSt7__cxx1112basic_stringIcSt11char_traitsIcESaIcEEEEOT_RNSt16remove_referenceIS7_E4typeE
	.p2align	4, 0x90
	.type	_ZSt7forwardIRNSt7__cxx1112basic_stringIcSt11char_traitsIcESaIcEEEEOT_RNSt16remove_referenceIS7_E4typeE,@function
_ZSt7forwardIRNSt7__cxx1112basic_stringIcSt11char_traitsIcESaIcEEEEOT_RNSt16remove_referenceIS7_E4typeE: # @_ZSt7forwardIRNSt7__cxx1112basic_stringIcSt11char_traitsIcESaIcEEEEOT_RNSt16remove_referenceIS7_E4typeE
	.cfi_startproc
# %bb.0:
	pushq	%rbp
	.cfi_def_cfa_offset 16
	.cfi_offset %rbp, -16
	movq	%rsp, %rbp
	.cfi_def_cfa_register %rbp
	movq	%rdi, -8(%rbp)
	movq	-8(%rbp), %rax
	popq	%rbp
	.cfi_def_cfa %rsp, 8
	retq
.Lfunc_end90:
	.size	_ZSt7forwardIRNSt7__cxx1112basic_stringIcSt11char_traitsIcESaIcEEEEOT_RNSt16remove_referenceIS7_E4typeE, .Lfunc_end90-_ZSt7forwardIRNSt7__cxx1112basic_stringIcSt11char_traitsIcESaIcEEEEOT_RNSt16remove_referenceIS7_E4typeE
	.cfi_endproc
                                        # -- End function
	.section	.text._ZNSt6vectorI9DataPointSaIS0_EE17_M_realloc_insertIJRS_INSt7__cxx1112basic_stringIcSt11char_traitsIcESaIcEEESaIS9_EERS9_EEEvN9__gnu_cxx17__normal_iteratorIPS0_S2_EEDpOT_,"axG",@progbits,_ZNSt6vectorI9DataPointSaIS0_EE17_M_realloc_insertIJRS_INSt7__cxx1112basic_stringIcSt11char_traitsIcESaIcEEESaIS9_EERS9_EEEvN9__gnu_cxx17__normal_iteratorIPS0_S2_EEDpOT_,comdat
	.weak	_ZNSt6vectorI9DataPointSaIS0_EE17_M_realloc_insertIJRS_INSt7__cxx1112basic_stringIcSt11char_traitsIcESaIcEEESaIS9_EERS9_EEEvN9__gnu_cxx17__normal_iteratorIPS0_S2_EEDpOT_ # -- Begin function _ZNSt6vectorI9DataPointSaIS0_EE17_M_realloc_insertIJRS_INSt7__cxx1112basic_stringIcSt11char_traitsIcESaIcEEESaIS9_EERS9_EEEvN9__gnu_cxx17__normal_iteratorIPS0_S2_EEDpOT_
	.p2align	4, 0x90
	.type	_ZNSt6vectorI9DataPointSaIS0_EE17_M_realloc_insertIJRS_INSt7__cxx1112basic_stringIcSt11char_traitsIcESaIcEEESaIS9_EERS9_EEEvN9__gnu_cxx17__normal_iteratorIPS0_S2_EEDpOT_,@function
_ZNSt6vectorI9DataPointSaIS0_EE17_M_realloc_insertIJRS_INSt7__cxx1112basic_stringIcSt11char_traitsIcESaIcEEESaIS9_EERS9_EEEvN9__gnu_cxx17__normal_iteratorIPS0_S2_EEDpOT_: # @_ZNSt6vectorI9DataPointSaIS0_EE17_M_realloc_insertIJRS_INSt7__cxx1112basic_stringIcSt11char_traitsIcESaIcEEESaIS9_EERS9_EEEvN9__gnu_cxx17__normal_iteratorIPS0_S2_EEDpOT_
.Lfunc_begin7:
	.cfi_startproc
	.cfi_personality 3, __gxx_personality_v0
	.cfi_lsda 3, .Lexception7
# %bb.0:
	pushq	%rbp
	.cfi_def_cfa_offset 16
	.cfi_offset %rbp, -16
	movq	%rsp, %rbp
	.cfi_def_cfa_register %rbp
	pushq	%r15
	pushq	%r14
	pushq	%r12
	pushq	%rbx
	subq	$112, %rsp
	.cfi_offset %rbx, -48
	.cfi_offset %r12, -40
	.cfi_offset %r14, -32
	.cfi_offset %r15, -24
	movq	%rsi, -80(%rbp)
	movq	%rdi, -136(%rbp)
	movq	%rdx, -128(%rbp)
	movq	%rcx, -120(%rbp)
	movq	-136(%rbp), %r14
	movq	%r14, %rdi
	movl	$1, %esi
	movl	$.L.str.4, %edx
	callq	_ZNKSt6vectorI9DataPointSaIS0_EE12_M_check_lenEmPKc
	movq	%rax, -72(%rbp)
	movq	(%r14), %rax
	movq	%rax, -64(%rbp)
	movq	8(%r14), %rax
	movq	%rax, -112(%rbp)
	movq	%r14, %rdi
	callq	_ZNSt6vectorI9DataPointSaIS0_EE5beginEv
	movq	%rax, -104(%rbp)
	leaq	-80(%rbp), %rdi
	leaq	-104(%rbp), %rsi
	callq	_ZN9__gnu_cxxmiIP9DataPointSt6vectorIS1_SaIS1_EEEENS_17__normal_iteratorIT_T0_E15difference_typeERKS9_SC_
	movq	%rax, -96(%rbp)
	movq	-72(%rbp), %rsi
	movq	%r14, %rdi
	callq	_ZNSt12_Vector_baseI9DataPointSaIS0_EE11_M_allocateEm
	movq	%rax, -48(%rbp)
	movq	-48(%rbp), %rax
	movq	%rax, -40(%rbp)
	movq	-48(%rbp), %rbx
	movq	-96(%rbp), %rax
	imulq	$56, %rax, %rax
	addq	%rax, %rbx
	movq	-128(%rbp), %rdi
	callq	_ZSt7forwardIRSt6vectorINSt7__cxx1112basic_stringIcSt11char_traitsIcESaIcEEESaIS6_EEEOT_RNSt16remove_referenceISA_E4typeE
	movq	%rax, %r15
	movq	-120(%rbp), %rdi
	callq	_ZSt7forwardIRNSt7__cxx1112basic_stringIcSt11char_traitsIcESaIcEEEEOT_RNSt16remove_referenceIS7_E4typeE
.Ltmp70:
	movq	%r14, %rdi
	movq	%rbx, %rsi
	movq	%r15, %rdx
	movq	%rax, %rcx
	callq	_ZNSt16allocator_traitsISaI9DataPointEE9constructIS0_JRSt6vectorINSt7__cxx1112basic_stringIcSt11char_traitsIcESaIcEEESaISA_EERSA_EEEvRS1_PT_DpOT0_
.Ltmp71:
	jmp	.LBB91_1
.LBB91_1:
	movq	$0, -40(%rbp)
	movq	-64(%rbp), %r15
	leaq	-80(%rbp), %rdi
	callq	_ZNK9__gnu_cxx17__normal_iteratorIP9DataPointSt6vectorIS1_SaIS1_EEE4baseEv
	movq	(%rax), %rbx
	movq	-48(%rbp), %r12
	movq	%r14, %rdi
	callq	_ZNSt12_Vector_baseI9DataPointSaIS0_EE19_M_get_Tp_allocatorEv
	movq	%r15, %rdi
	movq	%rbx, %rsi
	movq	%r12, %rdx
	movq	%rax, %rcx
	callq	_ZNSt6vectorI9DataPointSaIS0_EE11_S_relocateEPS0_S3_S3_RS1_
	movq	%rax, -40(%rbp)
	movq	-40(%rbp), %rax
	addq	$56, %rax
	movq	%rax, -40(%rbp)
	leaq	-80(%rbp), %rdi
	callq	_ZNK9__gnu_cxx17__normal_iteratorIP9DataPointSt6vectorIS1_SaIS1_EEE4baseEv
	movq	(%rax), %rbx
	movq	-112(%rbp), %r15
	movq	-40(%rbp), %r12
	movq	%r14, %rdi
	callq	_ZNSt12_Vector_baseI9DataPointSaIS0_EE19_M_get_Tp_allocatorEv
	movq	%rbx, %rdi
	movq	%r15, %rsi
	movq	%r12, %rdx
	movq	%rax, %rcx
	callq	_ZNSt6vectorI9DataPointSaIS0_EE11_S_relocateEPS0_S3_S3_RS1_
	movq	%rax, -40(%rbp)
	jmp	.LBB91_11
.LBB91_2:
.Ltmp72:
	movq	%rax, -56(%rbp)
	movl	%edx, -84(%rbp)
# %bb.3:
	movq	-56(%rbp), %rdi
	callq	__cxa_begin_catch@PLT
	cmpq	$0, -40(%rbp)
	jne	.LBB91_5
# %bb.4:
	movq	-48(%rbp), %rsi
	imulq	$56, -96(%rbp), %rax
	addq	%rax, %rsi
	movq	%r14, %rdi
	callq	_ZNSt16allocator_traitsISaI9DataPointEE7destroyIS0_EEvRS1_PT_
	jmp	.LBB91_8
.LBB91_5:
	movq	-48(%rbp), %rbx
	movq	-40(%rbp), %r15
	movq	%r14, %rdi
	callq	_ZNSt12_Vector_baseI9DataPointSaIS0_EE19_M_get_Tp_allocatorEv
.Ltmp73:
	movq	%rbx, %rdi
	movq	%r15, %rsi
	movq	%rax, %rdx
	callq	_ZSt8_DestroyIP9DataPointS0_EvT_S2_RSaIT0_E
.Ltmp74:
	jmp	.LBB91_6
.LBB91_6:
	jmp	.LBB91_8
.LBB91_7:
.Ltmp79:
	movq	%rax, -56(%rbp)
	movl	%edx, -84(%rbp)
.Ltmp80:
	callq	__cxa_end_catch@PLT
.Ltmp81:
	jmp	.LBB91_10
.LBB91_8:
	movq	-48(%rbp), %rsi
	movq	-72(%rbp), %rdx
.Ltmp75:
	movq	%r14, %rdi
	callq	_ZNSt12_Vector_baseI9DataPointSaIS0_EE13_M_deallocateEPS0_m
.Ltmp76:
	jmp	.LBB91_9
.LBB91_9:
.Ltmp77:
	callq	__cxa_rethrow@PLT
.Ltmp78:
	jmp	.LBB91_14
.LBB91_10:
	jmp	.LBB91_12
.LBB91_11:
	movq	-64(%rbp), %rsi
	movq	16(%r14), %rax
	movq	-64(%rbp), %rcx
	subq	%rcx, %rax
	movl	$56, %ecx
	cqto
	idivq	%rcx
	movq	%r14, %rdi
	movq	%rax, %rdx
	callq	_ZNSt12_Vector_baseI9DataPointSaIS0_EE13_M_deallocateEPS0_m
	movq	-48(%rbp), %rax
	movq	%rax, (%r14)
	movq	-40(%rbp), %rax
	movq	%rax, 8(%r14)
	movq	-48(%rbp), %rax
	imulq	$56, -72(%rbp), %rcx
	addq	%rcx, %rax
	movq	%rax, 16(%r14)
	addq	$112, %rsp
	popq	%rbx
	popq	%r12
	popq	%r14
	popq	%r15
	popq	%rbp
	.cfi_def_cfa %rsp, 8
	retq
.LBB91_12:
	.cfi_def_cfa %rbp, 16
	movq	-56(%rbp), %rdi
	callq	_Unwind_Resume@PLT
.LBB91_13:
.Ltmp82:
                                        # kill: killed $rdx
	movq	%rax, %rdi
	callq	__clang_call_terminate
.LBB91_14:
.Lfunc_end91:
	.size	_ZNSt6vectorI9DataPointSaIS0_EE17_M_realloc_insertIJRS_INSt7__cxx1112basic_stringIcSt11char_traitsIcESaIcEEESaIS9_EERS9_EEEvN9__gnu_cxx17__normal_iteratorIPS0_S2_EEDpOT_, .Lfunc_end91-_ZNSt6vectorI9DataPointSaIS0_EE17_M_realloc_insertIJRS_INSt7__cxx1112basic_stringIcSt11char_traitsIcESaIcEEESaIS9_EERS9_EEEvN9__gnu_cxx17__normal_iteratorIPS0_S2_EEDpOT_
	.cfi_endproc
	.section	.gcc_except_table._ZNSt6vectorI9DataPointSaIS0_EE17_M_realloc_insertIJRS_INSt7__cxx1112basic_stringIcSt11char_traitsIcESaIcEEESaIS9_EERS9_EEEvN9__gnu_cxx17__normal_iteratorIPS0_S2_EEDpOT_,"aG",@progbits,_ZNSt6vectorI9DataPointSaIS0_EE17_M_realloc_insertIJRS_INSt7__cxx1112basic_stringIcSt11char_traitsIcESaIcEEESaIS9_EERS9_EEEvN9__gnu_cxx17__normal_iteratorIPS0_S2_EEDpOT_,comdat
	.p2align	2
GCC_except_table91:
.Lexception7:
	.byte	255                             # @LPStart Encoding = omit
	.byte	3                               # @TType Encoding = udata4
	.uleb128 .Lttbase6-.Lttbaseref6
.Lttbaseref6:
	.byte	1                               # Call site Encoding = uleb128
	.uleb128 .Lcst_end7-.Lcst_begin7
.Lcst_begin7:
	.uleb128 .Lfunc_begin7-.Lfunc_begin7    # >> Call Site 1 <<
	.uleb128 .Ltmp70-.Lfunc_begin7          #   Call between .Lfunc_begin7 and .Ltmp70
	.byte	0                               #     has no landing pad
	.byte	0                               #   On action: cleanup
	.uleb128 .Ltmp70-.Lfunc_begin7          # >> Call Site 2 <<
	.uleb128 .Ltmp71-.Ltmp70                #   Call between .Ltmp70 and .Ltmp71
	.uleb128 .Ltmp72-.Lfunc_begin7          #     jumps to .Ltmp72
	.byte	1                               #   On action: 1
	.uleb128 .Ltmp71-.Lfunc_begin7          # >> Call Site 3 <<
	.uleb128 .Ltmp73-.Ltmp71                #   Call between .Ltmp71 and .Ltmp73
	.byte	0                               #     has no landing pad
	.byte	0                               #   On action: cleanup
	.uleb128 .Ltmp73-.Lfunc_begin7          # >> Call Site 4 <<
	.uleb128 .Ltmp74-.Ltmp73                #   Call between .Ltmp73 and .Ltmp74
	.uleb128 .Ltmp79-.Lfunc_begin7          #     jumps to .Ltmp79
	.byte	0                               #   On action: cleanup
	.uleb128 .Ltmp80-.Lfunc_begin7          # >> Call Site 5 <<
	.uleb128 .Ltmp81-.Ltmp80                #   Call between .Ltmp80 and .Ltmp81
	.uleb128 .Ltmp82-.Lfunc_begin7          #     jumps to .Ltmp82
	.byte	1                               #   On action: 1
	.uleb128 .Ltmp75-.Lfunc_begin7          # >> Call Site 6 <<
	.uleb128 .Ltmp78-.Ltmp75                #   Call between .Ltmp75 and .Ltmp78
	.uleb128 .Ltmp79-.Lfunc_begin7          #     jumps to .Ltmp79
	.byte	0                               #   On action: cleanup
	.uleb128 .Ltmp78-.Lfunc_begin7          # >> Call Site 7 <<
	.uleb128 .Lfunc_end91-.Ltmp78           #   Call between .Ltmp78 and .Lfunc_end91
	.byte	0                               #     has no landing pad
	.byte	0                               #   On action: cleanup
.Lcst_end7:
	.byte	1                               # >> Action Record 1 <<
                                        #   Catch TypeInfo 1
	.byte	0                               #   No further actions
	.p2align	2
                                        # >> Catch TypeInfos <<
	.long	0                               # TypeInfo 1
.Lttbase6:
	.p2align	2
                                        # -- End function
	.section	.text._ZN9__gnu_cxx13new_allocatorI9DataPointE9constructIS1_JRSt6vectorINSt7__cxx1112basic_stringIcSt11char_traitsIcESaIcEEESaISA_EERSA_EEEvPT_DpOT0_,"axG",@progbits,_ZN9__gnu_cxx13new_allocatorI9DataPointE9constructIS1_JRSt6vectorINSt7__cxx1112basic_stringIcSt11char_traitsIcESaIcEEESaISA_EERSA_EEEvPT_DpOT0_,comdat
	.weak	_ZN9__gnu_cxx13new_allocatorI9DataPointE9constructIS1_JRSt6vectorINSt7__cxx1112basic_stringIcSt11char_traitsIcESaIcEEESaISA_EERSA_EEEvPT_DpOT0_ # -- Begin function _ZN9__gnu_cxx13new_allocatorI9DataPointE9constructIS1_JRSt6vectorINSt7__cxx1112basic_stringIcSt11char_traitsIcESaIcEEESaISA_EERSA_EEEvPT_DpOT0_
	.p2align	4, 0x90
	.type	_ZN9__gnu_cxx13new_allocatorI9DataPointE9constructIS1_JRSt6vectorINSt7__cxx1112basic_stringIcSt11char_traitsIcESaIcEEESaISA_EERSA_EEEvPT_DpOT0_,@function
_ZN9__gnu_cxx13new_allocatorI9DataPointE9constructIS1_JRSt6vectorINSt7__cxx1112basic_stringIcSt11char_traitsIcESaIcEEESaISA_EERSA_EEEvPT_DpOT0_: # @_ZN9__gnu_cxx13new_allocatorI9DataPointE9constructIS1_JRSt6vectorINSt7__cxx1112basic_stringIcSt11char_traitsIcESaIcEEESaISA_EERSA_EEEvPT_DpOT0_
	.cfi_startproc
# %bb.0:
	pushq	%rbp
	.cfi_def_cfa_offset 16
	.cfi_offset %rbp, -16
	movq	%rsp, %rbp
	.cfi_def_cfa_register %rbp
	pushq	%r14
	pushq	%rbx
	subq	$32, %rsp
	.cfi_offset %rbx, -32
	.cfi_offset %r14, -24
	movq	%rdi, -48(%rbp)
	movq	%rsi, -40(%rbp)
	movq	%rdx, -32(%rbp)
	movq	%rcx, -24(%rbp)
	movq	-40(%rbp), %r14
	movq	-32(%rbp), %rdi
	callq	_ZSt7forwardIRSt6vectorINSt7__cxx1112basic_stringIcSt11char_traitsIcESaIcEEESaIS6_EEEOT_RNSt16remove_referenceISA_E4typeE
	movq	%rax, %rbx
	movq	-24(%rbp), %rdi
	callq	_ZSt7forwardIRNSt7__cxx1112basic_stringIcSt11char_traitsIcESaIcEEEEOT_RNSt16remove_referenceIS7_E4typeE
	movq	%r14, %rdi
	movq	%rbx, %rsi
	movq	%rax, %rdx
	callq	_ZN9DataPointC2ERKSt6vectorINSt7__cxx1112basic_stringIcSt11char_traitsIcESaIcEEESaIS6_EERKS6_
	addq	$32, %rsp
	popq	%rbx
	popq	%r14
	popq	%rbp
	.cfi_def_cfa %rsp, 8
	retq
.Lfunc_end92:
	.size	_ZN9__gnu_cxx13new_allocatorI9DataPointE9constructIS1_JRSt6vectorINSt7__cxx1112basic_stringIcSt11char_traitsIcESaIcEEESaISA_EERSA_EEEvPT_DpOT0_, .Lfunc_end92-_ZN9__gnu_cxx13new_allocatorI9DataPointE9constructIS1_JRSt6vectorINSt7__cxx1112basic_stringIcSt11char_traitsIcESaIcEEESaISA_EERSA_EEEvPT_DpOT0_
	.cfi_endproc
                                        # -- End function
	.section	.text._ZN9DataPointC2ERKSt6vectorINSt7__cxx1112basic_stringIcSt11char_traitsIcESaIcEEESaIS6_EERKS6_,"axG",@progbits,_ZN9DataPointC2ERKSt6vectorINSt7__cxx1112basic_stringIcSt11char_traitsIcESaIcEEESaIS6_EERKS6_,comdat
	.weak	_ZN9DataPointC2ERKSt6vectorINSt7__cxx1112basic_stringIcSt11char_traitsIcESaIcEEESaIS6_EERKS6_ # -- Begin function _ZN9DataPointC2ERKSt6vectorINSt7__cxx1112basic_stringIcSt11char_traitsIcESaIcEEESaIS6_EERKS6_
	.p2align	4, 0x90
	.type	_ZN9DataPointC2ERKSt6vectorINSt7__cxx1112basic_stringIcSt11char_traitsIcESaIcEEESaIS6_EERKS6_,@function
_ZN9DataPointC2ERKSt6vectorINSt7__cxx1112basic_stringIcSt11char_traitsIcESaIcEEESaIS6_EERKS6_: # @_ZN9DataPointC2ERKSt6vectorINSt7__cxx1112basic_stringIcSt11char_traitsIcESaIcEEESaIS6_EERKS6_
.Lfunc_begin8:
	.cfi_startproc
	.cfi_personality 3, __gxx_personality_v0
	.cfi_lsda 3, .Lexception8
# %bb.0:
	pushq	%rbp
	.cfi_def_cfa_offset 16
	.cfi_offset %rbp, -16
	movq	%rsp, %rbp
	.cfi_def_cfa_register %rbp
	pushq	%rbx
	subq	$40, %rsp
	.cfi_offset %rbx, -24
	movq	%rdi, -40(%rbp)
	movq	%rsi, -32(%rbp)
	movq	%rdx, -24(%rbp)
	movq	-40(%rbp), %rbx
	movq	-32(%rbp), %rsi
	movq	%rbx, %rdi
	callq	_ZNSt6vectorINSt7__cxx1112basic_stringIcSt11char_traitsIcESaIcEEESaIS5_EEC2ERKS7_
	movq	%rbx, %rdi
	addq	$24, %rdi
	movq	-24(%rbp), %rsi
.Ltmp83:
	callq	_ZNSt7__cxx1112basic_stringIcSt11char_traitsIcESaIcEEC1ERKS4_@PLT
.Ltmp84:
	jmp	.LBB93_1
.LBB93_1:
	addq	$40, %rsp
	popq	%rbx
	popq	%rbp
	.cfi_def_cfa %rsp, 8
	retq
.LBB93_2:
	.cfi_def_cfa %rbp, 16
.Ltmp85:
	movq	%rax, -16(%rbp)
	movl	%edx, -44(%rbp)
	movq	%rbx, %rdi
	callq	_ZNSt6vectorINSt7__cxx1112basic_stringIcSt11char_traitsIcESaIcEEESaIS5_EED2Ev
# %bb.3:
	movq	-16(%rbp), %rdi
	callq	_Unwind_Resume@PLT
.Lfunc_end93:
	.size	_ZN9DataPointC2ERKSt6vectorINSt7__cxx1112basic_stringIcSt11char_traitsIcESaIcEEESaIS6_EERKS6_, .Lfunc_end93-_ZN9DataPointC2ERKSt6vectorINSt7__cxx1112basic_stringIcSt11char_traitsIcESaIcEEESaIS6_EERKS6_
	.cfi_endproc
	.section	.gcc_except_table._ZN9DataPointC2ERKSt6vectorINSt7__cxx1112basic_stringIcSt11char_traitsIcESaIcEEESaIS6_EERKS6_,"aG",@progbits,_ZN9DataPointC2ERKSt6vectorINSt7__cxx1112basic_stringIcSt11char_traitsIcESaIcEEESaIS6_EERKS6_,comdat
	.p2align	2
GCC_except_table93:
.Lexception8:
	.byte	255                             # @LPStart Encoding = omit
	.byte	255                             # @TType Encoding = omit
	.byte	1                               # Call site Encoding = uleb128
	.uleb128 .Lcst_end8-.Lcst_begin8
.Lcst_begin8:
	.uleb128 .Lfunc_begin8-.Lfunc_begin8    # >> Call Site 1 <<
	.uleb128 .Ltmp83-.Lfunc_begin8          #   Call between .Lfunc_begin8 and .Ltmp83
	.byte	0                               #     has no landing pad
	.byte	0                               #   On action: cleanup
	.uleb128 .Ltmp83-.Lfunc_begin8          # >> Call Site 2 <<
	.uleb128 .Ltmp84-.Ltmp83                #   Call between .Ltmp83 and .Ltmp84
	.uleb128 .Ltmp85-.Lfunc_begin8          #     jumps to .Ltmp85
	.byte	0                               #   On action: cleanup
	.uleb128 .Ltmp84-.Lfunc_begin8          # >> Call Site 3 <<
	.uleb128 .Lfunc_end93-.Ltmp84           #   Call between .Ltmp84 and .Lfunc_end93
	.byte	0                               #     has no landing pad
	.byte	0                               #   On action: cleanup
.Lcst_end8:
	.p2align	2
                                        # -- End function
	.section	.text._ZNSt6vectorINSt7__cxx1112basic_stringIcSt11char_traitsIcESaIcEEESaIS5_EEC2ERKS7_,"axG",@progbits,_ZNSt6vectorINSt7__cxx1112basic_stringIcSt11char_traitsIcESaIcEEESaIS5_EEC2ERKS7_,comdat
	.weak	_ZNSt6vectorINSt7__cxx1112basic_stringIcSt11char_traitsIcESaIcEEESaIS5_EEC2ERKS7_ # -- Begin function _ZNSt6vectorINSt7__cxx1112basic_stringIcSt11char_traitsIcESaIcEEESaIS5_EEC2ERKS7_
	.p2align	4, 0x90
	.type	_ZNSt6vectorINSt7__cxx1112basic_stringIcSt11char_traitsIcESaIcEEESaIS5_EEC2ERKS7_,@function
_ZNSt6vectorINSt7__cxx1112basic_stringIcSt11char_traitsIcESaIcEEESaIS5_EEC2ERKS7_: # @_ZNSt6vectorINSt7__cxx1112basic_stringIcSt11char_traitsIcESaIcEEESaIS5_EEC2ERKS7_
.Lfunc_begin9:
	.cfi_startproc
	.cfi_personality 3, __gxx_personality_v0
	.cfi_lsda 3, .Lexception9
# %bb.0:
	pushq	%rbp
	.cfi_def_cfa_offset 16
	.cfi_offset %rbp, -16
	movq	%rsp, %rbp
	.cfi_def_cfa_register %rbp
	pushq	%r15
	pushq	%r14
	pushq	%rbx
	subq	$56, %rsp
	.cfi_offset %rbx, -40
	.cfi_offset %r14, -32
	.cfi_offset %r15, -24
	movq	%rdi, -80(%rbp)
	movq	%rsi, -40(%rbp)
	movq	-80(%rbp), %r14
	movq	-40(%rbp), %rdi
	callq	_ZNKSt6vectorINSt7__cxx1112basic_stringIcSt11char_traitsIcESaIcEEESaIS5_EE4sizeEv
	movq	%rax, %rbx
	movq	-40(%rbp), %rdi
	callq	_ZNKSt12_Vector_baseINSt7__cxx1112basic_stringIcSt11char_traitsIcESaIcEEESaIS5_EE19_M_get_Tp_allocatorEv
	leaq	-32(%rbp), %r15
	movq	%r15, %rdi
	movq	%rax, %rsi
	callq	_ZN9__gnu_cxx14__alloc_traitsISaINSt7__cxx1112basic_stringIcSt11char_traitsIcESaIcEEEES6_E17_S_select_on_copyERKS7_
.Ltmp86:
	movq	%r14, %rdi
	movq	%rbx, %rsi
	movq	%r15, %rdx
	callq	_ZNSt12_Vector_baseINSt7__cxx1112basic_stringIcSt11char_traitsIcESaIcEEESaIS5_EEC2EmRKS6_
.Ltmp87:
	jmp	.LBB94_1
.LBB94_1:
	leaq	-32(%rbp), %rdi
	callq	_ZNSaINSt7__cxx1112basic_stringIcSt11char_traitsIcESaIcEEEED2Ev
	movq	-40(%rbp), %rdi
	callq	_ZNKSt6vectorINSt7__cxx1112basic_stringIcSt11char_traitsIcESaIcEEESaIS5_EE5beginEv
	movq	%rax, -72(%rbp)
	movq	-40(%rbp), %rdi
	callq	_ZNKSt6vectorINSt7__cxx1112basic_stringIcSt11char_traitsIcESaIcEEESaIS5_EE3endEv
	movq	%rax, -64(%rbp)
	movq	(%r14), %rbx
	movq	%r14, %rdi
	callq	_ZNSt12_Vector_baseINSt7__cxx1112basic_stringIcSt11char_traitsIcESaIcEEESaIS5_EE19_M_get_Tp_allocatorEv
	movq	-72(%rbp), %rdi
	movq	-64(%rbp), %rsi
.Ltmp89:
	movq	%rbx, %rdx
	movq	%rax, %rcx
	callq	_ZSt22__uninitialized_copy_aIN9__gnu_cxx17__normal_iteratorIPKNSt7__cxx1112basic_stringIcSt11char_traitsIcESaIcEEESt6vectorIS7_SaIS7_EEEEPS7_S7_ET0_T_SG_SF_RSaIT1_E
.Ltmp90:
	jmp	.LBB94_2
.LBB94_2:
	movq	%rax, 8(%r14)
	addq	$56, %rsp
	popq	%rbx
	popq	%r14
	popq	%r15
	popq	%rbp
	.cfi_def_cfa %rsp, 8
	retq
.LBB94_3:
	.cfi_def_cfa %rbp, 16
.Ltmp88:
	movq	%rax, -56(%rbp)
	movl	%edx, -44(%rbp)
	leaq	-32(%rbp), %rdi
	callq	_ZNSaINSt7__cxx1112basic_stringIcSt11char_traitsIcESaIcEEEED2Ev
	jmp	.LBB94_5
.LBB94_4:
.Ltmp91:
	movq	%rax, -56(%rbp)
	movl	%edx, -44(%rbp)
	movq	%r14, %rdi
	callq	_ZNSt12_Vector_baseINSt7__cxx1112basic_stringIcSt11char_traitsIcESaIcEEESaIS5_EED2Ev
.LBB94_5:
	movq	-56(%rbp), %rdi
	callq	_Unwind_Resume@PLT
.Lfunc_end94:
	.size	_ZNSt6vectorINSt7__cxx1112basic_stringIcSt11char_traitsIcESaIcEEESaIS5_EEC2ERKS7_, .Lfunc_end94-_ZNSt6vectorINSt7__cxx1112basic_stringIcSt11char_traitsIcESaIcEEESaIS5_EEC2ERKS7_
	.cfi_endproc
	.section	.gcc_except_table._ZNSt6vectorINSt7__cxx1112basic_stringIcSt11char_traitsIcESaIcEEESaIS5_EEC2ERKS7_,"aG",@progbits,_ZNSt6vectorINSt7__cxx1112basic_stringIcSt11char_traitsIcESaIcEEESaIS5_EEC2ERKS7_,comdat
	.p2align	2
GCC_except_table94:
.Lexception9:
	.byte	255                             # @LPStart Encoding = omit
	.byte	255                             # @TType Encoding = omit
	.byte	1                               # Call site Encoding = uleb128
	.uleb128 .Lcst_end9-.Lcst_begin9
.Lcst_begin9:
	.uleb128 .Lfunc_begin9-.Lfunc_begin9    # >> Call Site 1 <<
	.uleb128 .Ltmp86-.Lfunc_begin9          #   Call between .Lfunc_begin9 and .Ltmp86
	.byte	0                               #     has no landing pad
	.byte	0                               #   On action: cleanup
	.uleb128 .Ltmp86-.Lfunc_begin9          # >> Call Site 2 <<
	.uleb128 .Ltmp87-.Ltmp86                #   Call between .Ltmp86 and .Ltmp87
	.uleb128 .Ltmp88-.Lfunc_begin9          #     jumps to .Ltmp88
	.byte	0                               #   On action: cleanup
	.uleb128 .Ltmp89-.Lfunc_begin9          # >> Call Site 3 <<
	.uleb128 .Ltmp90-.Ltmp89                #   Call between .Ltmp89 and .Ltmp90
	.uleb128 .Ltmp91-.Lfunc_begin9          #     jumps to .Ltmp91
	.byte	0                               #   On action: cleanup
	.uleb128 .Ltmp90-.Lfunc_begin9          # >> Call Site 4 <<
	.uleb128 .Lfunc_end94-.Ltmp90           #   Call between .Ltmp90 and .Lfunc_end94
	.byte	0                               #     has no landing pad
	.byte	0                               #   On action: cleanup
.Lcst_end9:
	.p2align	2
                                        # -- End function
	.section	.text._ZN9__gnu_cxx14__alloc_traitsISaINSt7__cxx1112basic_stringIcSt11char_traitsIcESaIcEEEES6_E17_S_select_on_copyERKS7_,"axG",@progbits,_ZN9__gnu_cxx14__alloc_traitsISaINSt7__cxx1112basic_stringIcSt11char_traitsIcESaIcEEEES6_E17_S_select_on_copyERKS7_,comdat
	.weak	_ZN9__gnu_cxx14__alloc_traitsISaINSt7__cxx1112basic_stringIcSt11char_traitsIcESaIcEEEES6_E17_S_select_on_copyERKS7_ # -- Begin function _ZN9__gnu_cxx14__alloc_traitsISaINSt7__cxx1112basic_stringIcSt11char_traitsIcESaIcEEEES6_E17_S_select_on_copyERKS7_
	.p2align	4, 0x90
	.type	_ZN9__gnu_cxx14__alloc_traitsISaINSt7__cxx1112basic_stringIcSt11char_traitsIcESaIcEEEES6_E17_S_select_on_copyERKS7_,@function
_ZN9__gnu_cxx14__alloc_traitsISaINSt7__cxx1112basic_stringIcSt11char_traitsIcESaIcEEEES6_E17_S_select_on_copyERKS7_: # @_ZN9__gnu_cxx14__alloc_traitsISaINSt7__cxx1112basic_stringIcSt11char_traitsIcESaIcEEEES6_E17_S_select_on_copyERKS7_
	.cfi_startproc
# %bb.0:
	pushq	%rbp
	.cfi_def_cfa_offset 16
	.cfi_offset %rbp, -16
	movq	%rsp, %rbp
	.cfi_def_cfa_register %rbp
	pushq	%rbx
	subq	$24, %rsp
	.cfi_offset %rbx, -24
	movq	%rdi, %rbx
	movq	%rbx, -24(%rbp)
	movq	%rsi, -16(%rbp)
	movq	-16(%rbp), %rsi
	movq	%rbx, %rdi
	callq	_ZNSt16allocator_traitsISaINSt7__cxx1112basic_stringIcSt11char_traitsIcESaIcEEEEE37select_on_container_copy_constructionERKS6_
	movq	%rbx, %rax
	addq	$24, %rsp
	popq	%rbx
	popq	%rbp
	.cfi_def_cfa %rsp, 8
	retq
.Lfunc_end95:
	.size	_ZN9__gnu_cxx14__alloc_traitsISaINSt7__cxx1112basic_stringIcSt11char_traitsIcESaIcEEEES6_E17_S_select_on_copyERKS7_, .Lfunc_end95-_ZN9__gnu_cxx14__alloc_traitsISaINSt7__cxx1112basic_stringIcSt11char_traitsIcESaIcEEEES6_E17_S_select_on_copyERKS7_
	.cfi_endproc
                                        # -- End function
	.section	.text._ZNSt12_Vector_baseINSt7__cxx1112basic_stringIcSt11char_traitsIcESaIcEEESaIS5_EEC2EmRKS6_,"axG",@progbits,_ZNSt12_Vector_baseINSt7__cxx1112basic_stringIcSt11char_traitsIcESaIcEEESaIS5_EEC2EmRKS6_,comdat
	.weak	_ZNSt12_Vector_baseINSt7__cxx1112basic_stringIcSt11char_traitsIcESaIcEEESaIS5_EEC2EmRKS6_ # -- Begin function _ZNSt12_Vector_baseINSt7__cxx1112basic_stringIcSt11char_traitsIcESaIcEEESaIS5_EEC2EmRKS6_
	.p2align	4, 0x90
	.type	_ZNSt12_Vector_baseINSt7__cxx1112basic_stringIcSt11char_traitsIcESaIcEEESaIS5_EEC2EmRKS6_,@function
_ZNSt12_Vector_baseINSt7__cxx1112basic_stringIcSt11char_traitsIcESaIcEEESaIS5_EEC2EmRKS6_: # @_ZNSt12_Vector_baseINSt7__cxx1112basic_stringIcSt11char_traitsIcESaIcEEESaIS5_EEC2EmRKS6_
.Lfunc_begin10:
	.cfi_startproc
	.cfi_personality 3, __gxx_personality_v0
	.cfi_lsda 3, .Lexception10
# %bb.0:
	pushq	%rbp
	.cfi_def_cfa_offset 16
	.cfi_offset %rbp, -16
	movq	%rsp, %rbp
	.cfi_def_cfa_register %rbp
	pushq	%rbx
	subq	$40, %rsp
	.cfi_offset %rbx, -24
	movq	%rdi, -40(%rbp)
	movq	%rsi, -32(%rbp)
	movq	%rdx, -24(%rbp)
	movq	-40(%rbp), %rbx
	movq	-24(%rbp), %rsi
	movq	%rbx, %rdi
	callq	_ZNSt12_Vector_baseINSt7__cxx1112basic_stringIcSt11char_traitsIcESaIcEEESaIS5_EE12_Vector_implC2ERKS6_
	movq	-32(%rbp), %rsi
.Ltmp92:
	movq	%rbx, %rdi
	callq	_ZNSt12_Vector_baseINSt7__cxx1112basic_stringIcSt11char_traitsIcESaIcEEESaIS5_EE17_M_create_storageEm
.Ltmp93:
	jmp	.LBB96_1
.LBB96_1:
	addq	$40, %rsp
	popq	%rbx
	popq	%rbp
	.cfi_def_cfa %rsp, 8
	retq
.LBB96_2:
	.cfi_def_cfa %rbp, 16
.Ltmp94:
	movq	%rax, -16(%rbp)
	movl	%edx, -44(%rbp)
	movq	%rbx, %rdi
	callq	_ZNSt12_Vector_baseINSt7__cxx1112basic_stringIcSt11char_traitsIcESaIcEEESaIS5_EE12_Vector_implD2Ev
# %bb.3:
	movq	-16(%rbp), %rdi
	callq	_Unwind_Resume@PLT
.Lfunc_end96:
	.size	_ZNSt12_Vector_baseINSt7__cxx1112basic_stringIcSt11char_traitsIcESaIcEEESaIS5_EEC2EmRKS6_, .Lfunc_end96-_ZNSt12_Vector_baseINSt7__cxx1112basic_stringIcSt11char_traitsIcESaIcEEESaIS5_EEC2EmRKS6_
	.cfi_endproc
	.section	.gcc_except_table._ZNSt12_Vector_baseINSt7__cxx1112basic_stringIcSt11char_traitsIcESaIcEEESaIS5_EEC2EmRKS6_,"aG",@progbits,_ZNSt12_Vector_baseINSt7__cxx1112basic_stringIcSt11char_traitsIcESaIcEEESaIS5_EEC2EmRKS6_,comdat
	.p2align	2
GCC_except_table96:
.Lexception10:
	.byte	255                             # @LPStart Encoding = omit
	.byte	255                             # @TType Encoding = omit
	.byte	1                               # Call site Encoding = uleb128
	.uleb128 .Lcst_end10-.Lcst_begin10
.Lcst_begin10:
	.uleb128 .Ltmp92-.Lfunc_begin10         # >> Call Site 1 <<
	.uleb128 .Ltmp93-.Ltmp92                #   Call between .Ltmp92 and .Ltmp93
	.uleb128 .Ltmp94-.Lfunc_begin10         #     jumps to .Ltmp94
	.byte	0                               #   On action: cleanup
	.uleb128 .Ltmp93-.Lfunc_begin10         # >> Call Site 2 <<
	.uleb128 .Lfunc_end96-.Ltmp93           #   Call between .Ltmp93 and .Lfunc_end96
	.byte	0                               #     has no landing pad
	.byte	0                               #   On action: cleanup
.Lcst_end10:
	.p2align	2
                                        # -- End function
	.section	.text._ZNSaINSt7__cxx1112basic_stringIcSt11char_traitsIcESaIcEEEED2Ev,"axG",@progbits,_ZNSaINSt7__cxx1112basic_stringIcSt11char_traitsIcESaIcEEEED2Ev,comdat
	.weak	_ZNSaINSt7__cxx1112basic_stringIcSt11char_traitsIcESaIcEEEED2Ev # -- Begin function _ZNSaINSt7__cxx1112basic_stringIcSt11char_traitsIcESaIcEEEED2Ev
	.p2align	4, 0x90
	.type	_ZNSaINSt7__cxx1112basic_stringIcSt11char_traitsIcESaIcEEEED2Ev,@function
_ZNSaINSt7__cxx1112basic_stringIcSt11char_traitsIcESaIcEEEED2Ev: # @_ZNSaINSt7__cxx1112basic_stringIcSt11char_traitsIcESaIcEEEED2Ev
	.cfi_startproc
# %bb.0:
	pushq	%rbp
	.cfi_def_cfa_offset 16
	.cfi_offset %rbp, -16
	movq	%rsp, %rbp
	.cfi_def_cfa_register %rbp
	subq	$16, %rsp
	movq	%rdi, -8(%rbp)
	movq	-8(%rbp), %rdi
	callq	_ZN9__gnu_cxx13new_allocatorINSt7__cxx1112basic_stringIcSt11char_traitsIcESaIcEEEED2Ev
	addq	$16, %rsp
	popq	%rbp
	.cfi_def_cfa %rsp, 8
	retq
.Lfunc_end97:
	.size	_ZNSaINSt7__cxx1112basic_stringIcSt11char_traitsIcESaIcEEEED2Ev, .Lfunc_end97-_ZNSaINSt7__cxx1112basic_stringIcSt11char_traitsIcESaIcEEEED2Ev
	.cfi_endproc
                                        # -- End function
	.section	.text._ZSt22__uninitialized_copy_aIN9__gnu_cxx17__normal_iteratorIPKNSt7__cxx1112basic_stringIcSt11char_traitsIcESaIcEEESt6vectorIS7_SaIS7_EEEEPS7_S7_ET0_T_SG_SF_RSaIT1_E,"axG",@progbits,_ZSt22__uninitialized_copy_aIN9__gnu_cxx17__normal_iteratorIPKNSt7__cxx1112basic_stringIcSt11char_traitsIcESaIcEEESt6vectorIS7_SaIS7_EEEEPS7_S7_ET0_T_SG_SF_RSaIT1_E,comdat
	.weak	_ZSt22__uninitialized_copy_aIN9__gnu_cxx17__normal_iteratorIPKNSt7__cxx1112basic_stringIcSt11char_traitsIcESaIcEEESt6vectorIS7_SaIS7_EEEEPS7_S7_ET0_T_SG_SF_RSaIT1_E # -- Begin function _ZSt22__uninitialized_copy_aIN9__gnu_cxx17__normal_iteratorIPKNSt7__cxx1112basic_stringIcSt11char_traitsIcESaIcEEESt6vectorIS7_SaIS7_EEEEPS7_S7_ET0_T_SG_SF_RSaIT1_E
	.p2align	4, 0x90
	.type	_ZSt22__uninitialized_copy_aIN9__gnu_cxx17__normal_iteratorIPKNSt7__cxx1112basic_stringIcSt11char_traitsIcESaIcEEESt6vectorIS7_SaIS7_EEEEPS7_S7_ET0_T_SG_SF_RSaIT1_E,@function
_ZSt22__uninitialized_copy_aIN9__gnu_cxx17__normal_iteratorIPKNSt7__cxx1112basic_stringIcSt11char_traitsIcESaIcEEESt6vectorIS7_SaIS7_EEEEPS7_S7_ET0_T_SG_SF_RSaIT1_E: # @_ZSt22__uninitialized_copy_aIN9__gnu_cxx17__normal_iteratorIPKNSt7__cxx1112basic_stringIcSt11char_traitsIcESaIcEEESt6vectorIS7_SaIS7_EEEEPS7_S7_ET0_T_SG_SF_RSaIT1_E
	.cfi_startproc
# %bb.0:
	pushq	%rbp
	.cfi_def_cfa_offset 16
	.cfi_offset %rbp, -16
	movq	%rsp, %rbp
	.cfi_def_cfa_register %rbp
	subq	$48, %rsp
	movq	%rdi, -40(%rbp)
	movq	%rsi, -32(%rbp)
	movq	%rdx, -24(%rbp)
	movq	%rcx, -48(%rbp)
	movq	-40(%rbp), %rax
	movq	%rax, -16(%rbp)
	movq	-32(%rbp), %rax
	movq	%rax, -8(%rbp)
	movq	-24(%rbp), %rdx
	movq	-16(%rbp), %rdi
	movq	-8(%rbp), %rsi
	callq	_ZSt18uninitialized_copyIN9__gnu_cxx17__normal_iteratorIPKNSt7__cxx1112basic_stringIcSt11char_traitsIcESaIcEEESt6vectorIS7_SaIS7_EEEEPS7_ET0_T_SG_SF_
	addq	$48, %rsp
	popq	%rbp
	.cfi_def_cfa %rsp, 8
	retq
.Lfunc_end98:
	.size	_ZSt22__uninitialized_copy_aIN9__gnu_cxx17__normal_iteratorIPKNSt7__cxx1112basic_stringIcSt11char_traitsIcESaIcEEESt6vectorIS7_SaIS7_EEEEPS7_S7_ET0_T_SG_SF_RSaIT1_E, .Lfunc_end98-_ZSt22__uninitialized_copy_aIN9__gnu_cxx17__normal_iteratorIPKNSt7__cxx1112basic_stringIcSt11char_traitsIcESaIcEEESt6vectorIS7_SaIS7_EEEEPS7_S7_ET0_T_SG_SF_RSaIT1_E
	.cfi_endproc
                                        # -- End function
	.section	.text._ZNKSt6vectorINSt7__cxx1112basic_stringIcSt11char_traitsIcESaIcEEESaIS5_EE5beginEv,"axG",@progbits,_ZNKSt6vectorINSt7__cxx1112basic_stringIcSt11char_traitsIcESaIcEEESaIS5_EE5beginEv,comdat
	.weak	_ZNKSt6vectorINSt7__cxx1112basic_stringIcSt11char_traitsIcESaIcEEESaIS5_EE5beginEv # -- Begin function _ZNKSt6vectorINSt7__cxx1112basic_stringIcSt11char_traitsIcESaIcEEESaIS5_EE5beginEv
	.p2align	4, 0x90
	.type	_ZNKSt6vectorINSt7__cxx1112basic_stringIcSt11char_traitsIcESaIcEEESaIS5_EE5beginEv,@function
_ZNKSt6vectorINSt7__cxx1112basic_stringIcSt11char_traitsIcESaIcEEESaIS5_EE5beginEv: # @_ZNKSt6vectorINSt7__cxx1112basic_stringIcSt11char_traitsIcESaIcEEESaIS5_EE5beginEv
	.cfi_startproc
# %bb.0:
	pushq	%rbp
	.cfi_def_cfa_offset 16
	.cfi_offset %rbp, -16
	movq	%rsp, %rbp
	.cfi_def_cfa_register %rbp
	subq	$16, %rsp
	movq	%rdi, -8(%rbp)
	movq	-8(%rbp), %rsi
	leaq	-16(%rbp), %rdi
	callq	_ZN9__gnu_cxx17__normal_iteratorIPKNSt7__cxx1112basic_stringIcSt11char_traitsIcESaIcEEESt6vectorIS6_SaIS6_EEEC2ERKS8_
	movq	-16(%rbp), %rax
	addq	$16, %rsp
	popq	%rbp
	.cfi_def_cfa %rsp, 8
	retq
.Lfunc_end99:
	.size	_ZNKSt6vectorINSt7__cxx1112basic_stringIcSt11char_traitsIcESaIcEEESaIS5_EE5beginEv, .Lfunc_end99-_ZNKSt6vectorINSt7__cxx1112basic_stringIcSt11char_traitsIcESaIcEEESaIS5_EE5beginEv
	.cfi_endproc
                                        # -- End function
	.section	.text._ZNKSt6vectorINSt7__cxx1112basic_stringIcSt11char_traitsIcESaIcEEESaIS5_EE3endEv,"axG",@progbits,_ZNKSt6vectorINSt7__cxx1112basic_stringIcSt11char_traitsIcESaIcEEESaIS5_EE3endEv,comdat
	.weak	_ZNKSt6vectorINSt7__cxx1112basic_stringIcSt11char_traitsIcESaIcEEESaIS5_EE3endEv # -- Begin function _ZNKSt6vectorINSt7__cxx1112basic_stringIcSt11char_traitsIcESaIcEEESaIS5_EE3endEv
	.p2align	4, 0x90
	.type	_ZNKSt6vectorINSt7__cxx1112basic_stringIcSt11char_traitsIcESaIcEEESaIS5_EE3endEv,@function
_ZNKSt6vectorINSt7__cxx1112basic_stringIcSt11char_traitsIcESaIcEEESaIS5_EE3endEv: # @_ZNKSt6vectorINSt7__cxx1112basic_stringIcSt11char_traitsIcESaIcEEESaIS5_EE3endEv
	.cfi_startproc
# %bb.0:
	pushq	%rbp
	.cfi_def_cfa_offset 16
	.cfi_offset %rbp, -16
	movq	%rsp, %rbp
	.cfi_def_cfa_register %rbp
	subq	$16, %rsp
	movq	%rdi, -8(%rbp)
	movq	-8(%rbp), %rsi
	addq	$8, %rsi
	leaq	-16(%rbp), %rdi
	callq	_ZN9__gnu_cxx17__normal_iteratorIPKNSt7__cxx1112basic_stringIcSt11char_traitsIcESaIcEEESt6vectorIS6_SaIS6_EEEC2ERKS8_
	movq	-16(%rbp), %rax
	addq	$16, %rsp
	popq	%rbp
	.cfi_def_cfa %rsp, 8
	retq
.Lfunc_end100:
	.size	_ZNKSt6vectorINSt7__cxx1112basic_stringIcSt11char_traitsIcESaIcEEESaIS5_EE3endEv, .Lfunc_end100-_ZNKSt6vectorINSt7__cxx1112basic_stringIcSt11char_traitsIcESaIcEEESaIS5_EE3endEv
	.cfi_endproc
                                        # -- End function
	.section	.text._ZNSt16allocator_traitsISaINSt7__cxx1112basic_stringIcSt11char_traitsIcESaIcEEEEE37select_on_container_copy_constructionERKS6_,"axG",@progbits,_ZNSt16allocator_traitsISaINSt7__cxx1112basic_stringIcSt11char_traitsIcESaIcEEEEE37select_on_container_copy_constructionERKS6_,comdat
	.weak	_ZNSt16allocator_traitsISaINSt7__cxx1112basic_stringIcSt11char_traitsIcESaIcEEEEE37select_on_container_copy_constructionERKS6_ # -- Begin function _ZNSt16allocator_traitsISaINSt7__cxx1112basic_stringIcSt11char_traitsIcESaIcEEEEE37select_on_container_copy_constructionERKS6_
	.p2align	4, 0x90
	.type	_ZNSt16allocator_traitsISaINSt7__cxx1112basic_stringIcSt11char_traitsIcESaIcEEEEE37select_on_container_copy_constructionERKS6_,@function
_ZNSt16allocator_traitsISaINSt7__cxx1112basic_stringIcSt11char_traitsIcESaIcEEEEE37select_on_container_copy_constructionERKS6_: # @_ZNSt16allocator_traitsISaINSt7__cxx1112basic_stringIcSt11char_traitsIcESaIcEEEEE37select_on_container_copy_constructionERKS6_
	.cfi_startproc
# %bb.0:
	pushq	%rbp
	.cfi_def_cfa_offset 16
	.cfi_offset %rbp, -16
	movq	%rsp, %rbp
	.cfi_def_cfa_register %rbp
	pushq	%rbx
	subq	$24, %rsp
	.cfi_offset %rbx, -24
	movq	%rdi, %rbx
	movq	%rbx, -24(%rbp)
	movq	%rsi, -16(%rbp)
	movq	-16(%rbp), %rsi
	movq	%rbx, %rdi
	callq	_ZNSaINSt7__cxx1112basic_stringIcSt11char_traitsIcESaIcEEEEC2ERKS5_
	movq	%rbx, %rax
	addq	$24, %rsp
	popq	%rbx
	popq	%rbp
	.cfi_def_cfa %rsp, 8
	retq
.Lfunc_end101:
	.size	_ZNSt16allocator_traitsISaINSt7__cxx1112basic_stringIcSt11char_traitsIcESaIcEEEEE37select_on_container_copy_constructionERKS6_, .Lfunc_end101-_ZNSt16allocator_traitsISaINSt7__cxx1112basic_stringIcSt11char_traitsIcESaIcEEEEE37select_on_container_copy_constructionERKS6_
	.cfi_endproc
                                        # -- End function
	.section	.text._ZNSaINSt7__cxx1112basic_stringIcSt11char_traitsIcESaIcEEEEC2ERKS5_,"axG",@progbits,_ZNSaINSt7__cxx1112basic_stringIcSt11char_traitsIcESaIcEEEEC2ERKS5_,comdat
	.weak	_ZNSaINSt7__cxx1112basic_stringIcSt11char_traitsIcESaIcEEEEC2ERKS5_ # -- Begin function _ZNSaINSt7__cxx1112basic_stringIcSt11char_traitsIcESaIcEEEEC2ERKS5_
	.p2align	4, 0x90
	.type	_ZNSaINSt7__cxx1112basic_stringIcSt11char_traitsIcESaIcEEEEC2ERKS5_,@function
_ZNSaINSt7__cxx1112basic_stringIcSt11char_traitsIcESaIcEEEEC2ERKS5_: # @_ZNSaINSt7__cxx1112basic_stringIcSt11char_traitsIcESaIcEEEEC2ERKS5_
	.cfi_startproc
# %bb.0:
	pushq	%rbp
	.cfi_def_cfa_offset 16
	.cfi_offset %rbp, -16
	movq	%rsp, %rbp
	.cfi_def_cfa_register %rbp
	subq	$16, %rsp
	movq	%rdi, -16(%rbp)
	movq	%rsi, -8(%rbp)
	movq	-16(%rbp), %rdi
	movq	-8(%rbp), %rsi
	callq	_ZN9__gnu_cxx13new_allocatorINSt7__cxx1112basic_stringIcSt11char_traitsIcESaIcEEEEC2ERKS7_
	addq	$16, %rsp
	popq	%rbp
	.cfi_def_cfa %rsp, 8
	retq
.Lfunc_end102:
	.size	_ZNSaINSt7__cxx1112basic_stringIcSt11char_traitsIcESaIcEEEEC2ERKS5_, .Lfunc_end102-_ZNSaINSt7__cxx1112basic_stringIcSt11char_traitsIcESaIcEEEEC2ERKS5_
	.cfi_endproc
                                        # -- End function
	.section	.text._ZN9__gnu_cxx13new_allocatorINSt7__cxx1112basic_stringIcSt11char_traitsIcESaIcEEEEC2ERKS7_,"axG",@progbits,_ZN9__gnu_cxx13new_allocatorINSt7__cxx1112basic_stringIcSt11char_traitsIcESaIcEEEEC2ERKS7_,comdat
	.weak	_ZN9__gnu_cxx13new_allocatorINSt7__cxx1112basic_stringIcSt11char_traitsIcESaIcEEEEC2ERKS7_ # -- Begin function _ZN9__gnu_cxx13new_allocatorINSt7__cxx1112basic_stringIcSt11char_traitsIcESaIcEEEEC2ERKS7_
	.p2align	4, 0x90
	.type	_ZN9__gnu_cxx13new_allocatorINSt7__cxx1112basic_stringIcSt11char_traitsIcESaIcEEEEC2ERKS7_,@function
_ZN9__gnu_cxx13new_allocatorINSt7__cxx1112basic_stringIcSt11char_traitsIcESaIcEEEEC2ERKS7_: # @_ZN9__gnu_cxx13new_allocatorINSt7__cxx1112basic_stringIcSt11char_traitsIcESaIcEEEEC2ERKS7_
	.cfi_startproc
# %bb.0:
	pushq	%rbp
	.cfi_def_cfa_offset 16
	.cfi_offset %rbp, -16
	movq	%rsp, %rbp
	.cfi_def_cfa_register %rbp
	movq	%rdi, -16(%rbp)
	movq	%rsi, -8(%rbp)
	popq	%rbp
	.cfi_def_cfa %rsp, 8
	retq
.Lfunc_end103:
	.size	_ZN9__gnu_cxx13new_allocatorINSt7__cxx1112basic_stringIcSt11char_traitsIcESaIcEEEEC2ERKS7_, .Lfunc_end103-_ZN9__gnu_cxx13new_allocatorINSt7__cxx1112basic_stringIcSt11char_traitsIcESaIcEEEEC2ERKS7_
	.cfi_endproc
                                        # -- End function
	.section	.text._ZNSt12_Vector_baseINSt7__cxx1112basic_stringIcSt11char_traitsIcESaIcEEESaIS5_EE12_Vector_implC2ERKS6_,"axG",@progbits,_ZNSt12_Vector_baseINSt7__cxx1112basic_stringIcSt11char_traitsIcESaIcEEESaIS5_EE12_Vector_implC2ERKS6_,comdat
	.weak	_ZNSt12_Vector_baseINSt7__cxx1112basic_stringIcSt11char_traitsIcESaIcEEESaIS5_EE12_Vector_implC2ERKS6_ # -- Begin function _ZNSt12_Vector_baseINSt7__cxx1112basic_stringIcSt11char_traitsIcESaIcEEESaIS5_EE12_Vector_implC2ERKS6_
	.p2align	4, 0x90
	.type	_ZNSt12_Vector_baseINSt7__cxx1112basic_stringIcSt11char_traitsIcESaIcEEESaIS5_EE12_Vector_implC2ERKS6_,@function
_ZNSt12_Vector_baseINSt7__cxx1112basic_stringIcSt11char_traitsIcESaIcEEESaIS5_EE12_Vector_implC2ERKS6_: # @_ZNSt12_Vector_baseINSt7__cxx1112basic_stringIcSt11char_traitsIcESaIcEEESaIS5_EE12_Vector_implC2ERKS6_
	.cfi_startproc
# %bb.0:
	pushq	%rbp
	.cfi_def_cfa_offset 16
	.cfi_offset %rbp, -16
	movq	%rsp, %rbp
	.cfi_def_cfa_register %rbp
	pushq	%rbx
	subq	$24, %rsp
	.cfi_offset %rbx, -24
	movq	%rdi, -24(%rbp)
	movq	%rsi, -16(%rbp)
	movq	-24(%rbp), %rbx
	movq	-16(%rbp), %rsi
	movq	%rbx, %rdi
	callq	_ZNSaINSt7__cxx1112basic_stringIcSt11char_traitsIcESaIcEEEEC2ERKS5_
	movq	%rbx, %rdi
	callq	_ZNSt12_Vector_baseINSt7__cxx1112basic_stringIcSt11char_traitsIcESaIcEEESaIS5_EE17_Vector_impl_dataC2Ev
	addq	$24, %rsp
	popq	%rbx
	popq	%rbp
	.cfi_def_cfa %rsp, 8
	retq
.Lfunc_end104:
	.size	_ZNSt12_Vector_baseINSt7__cxx1112basic_stringIcSt11char_traitsIcESaIcEEESaIS5_EE12_Vector_implC2ERKS6_, .Lfunc_end104-_ZNSt12_Vector_baseINSt7__cxx1112basic_stringIcSt11char_traitsIcESaIcEEESaIS5_EE12_Vector_implC2ERKS6_
	.cfi_endproc
                                        # -- End function
	.section	.text._ZNSt12_Vector_baseINSt7__cxx1112basic_stringIcSt11char_traitsIcESaIcEEESaIS5_EE17_M_create_storageEm,"axG",@progbits,_ZNSt12_Vector_baseINSt7__cxx1112basic_stringIcSt11char_traitsIcESaIcEEESaIS5_EE17_M_create_storageEm,comdat
	.weak	_ZNSt12_Vector_baseINSt7__cxx1112basic_stringIcSt11char_traitsIcESaIcEEESaIS5_EE17_M_create_storageEm # -- Begin function _ZNSt12_Vector_baseINSt7__cxx1112basic_stringIcSt11char_traitsIcESaIcEEESaIS5_EE17_M_create_storageEm
	.p2align	4, 0x90
	.type	_ZNSt12_Vector_baseINSt7__cxx1112basic_stringIcSt11char_traitsIcESaIcEEESaIS5_EE17_M_create_storageEm,@function
_ZNSt12_Vector_baseINSt7__cxx1112basic_stringIcSt11char_traitsIcESaIcEEESaIS5_EE17_M_create_storageEm: # @_ZNSt12_Vector_baseINSt7__cxx1112basic_stringIcSt11char_traitsIcESaIcEEESaIS5_EE17_M_create_storageEm
	.cfi_startproc
# %bb.0:
	pushq	%rbp
	.cfi_def_cfa_offset 16
	.cfi_offset %rbp, -16
	movq	%rsp, %rbp
	.cfi_def_cfa_register %rbp
	pushq	%rbx
	subq	$24, %rsp
	.cfi_offset %rbx, -24
	movq	%rdi, -24(%rbp)
	movq	%rsi, -16(%rbp)
	movq	-24(%rbp), %rbx
	movq	-16(%rbp), %rsi
	movq	%rbx, %rdi
	callq	_ZNSt12_Vector_baseINSt7__cxx1112basic_stringIcSt11char_traitsIcESaIcEEESaIS5_EE11_M_allocateEm
	movq	%rax, (%rbx)
	movq	(%rbx), %rax
	movq	%rax, 8(%rbx)
	movq	(%rbx), %rax
	movq	-16(%rbp), %rcx
	shlq	$5, %rcx
	addq	%rcx, %rax
	movq	%rax, 16(%rbx)
	addq	$24, %rsp
	popq	%rbx
	popq	%rbp
	.cfi_def_cfa %rsp, 8
	retq
.Lfunc_end105:
	.size	_ZNSt12_Vector_baseINSt7__cxx1112basic_stringIcSt11char_traitsIcESaIcEEESaIS5_EE17_M_create_storageEm, .Lfunc_end105-_ZNSt12_Vector_baseINSt7__cxx1112basic_stringIcSt11char_traitsIcESaIcEEESaIS5_EE17_M_create_storageEm
	.cfi_endproc
                                        # -- End function
	.section	.text._ZSt18uninitialized_copyIN9__gnu_cxx17__normal_iteratorIPKNSt7__cxx1112basic_stringIcSt11char_traitsIcESaIcEEESt6vectorIS7_SaIS7_EEEEPS7_ET0_T_SG_SF_,"axG",@progbits,_ZSt18uninitialized_copyIN9__gnu_cxx17__normal_iteratorIPKNSt7__cxx1112basic_stringIcSt11char_traitsIcESaIcEEESt6vectorIS7_SaIS7_EEEEPS7_ET0_T_SG_SF_,comdat
	.weak	_ZSt18uninitialized_copyIN9__gnu_cxx17__normal_iteratorIPKNSt7__cxx1112basic_stringIcSt11char_traitsIcESaIcEEESt6vectorIS7_SaIS7_EEEEPS7_ET0_T_SG_SF_ # -- Begin function _ZSt18uninitialized_copyIN9__gnu_cxx17__normal_iteratorIPKNSt7__cxx1112basic_stringIcSt11char_traitsIcESaIcEEESt6vectorIS7_SaIS7_EEEEPS7_ET0_T_SG_SF_
	.p2align	4, 0x90
	.type	_ZSt18uninitialized_copyIN9__gnu_cxx17__normal_iteratorIPKNSt7__cxx1112basic_stringIcSt11char_traitsIcESaIcEEESt6vectorIS7_SaIS7_EEEEPS7_ET0_T_SG_SF_,@function
_ZSt18uninitialized_copyIN9__gnu_cxx17__normal_iteratorIPKNSt7__cxx1112basic_stringIcSt11char_traitsIcESaIcEEESt6vectorIS7_SaIS7_EEEEPS7_ET0_T_SG_SF_: # @_ZSt18uninitialized_copyIN9__gnu_cxx17__normal_iteratorIPKNSt7__cxx1112basic_stringIcSt11char_traitsIcESaIcEEESt6vectorIS7_SaIS7_EEEEPS7_ET0_T_SG_SF_
	.cfi_startproc
# %bb.0:
	pushq	%rbp
	.cfi_def_cfa_offset 16
	.cfi_offset %rbp, -16
	movq	%rsp, %rbp
	.cfi_def_cfa_register %rbp
	subq	$48, %rsp
	movq	%rdi, -48(%rbp)
	movq	%rsi, -40(%rbp)
	movq	%rdx, -32(%rbp)
	movb	$1, -1(%rbp)
	movq	-48(%rbp), %rax
	movq	%rax, -24(%rbp)
	movq	-40(%rbp), %rax
	movq	%rax, -16(%rbp)
	movq	-32(%rbp), %rdx
	movq	-24(%rbp), %rdi
	movq	-16(%rbp), %rsi
	callq	_ZNSt20__uninitialized_copyILb0EE13__uninit_copyIN9__gnu_cxx17__normal_iteratorIPKNSt7__cxx1112basic_stringIcSt11char_traitsIcESaIcEEESt6vectorIS9_SaIS9_EEEEPS9_EET0_T_SI_SH_
	addq	$48, %rsp
	popq	%rbp
	.cfi_def_cfa %rsp, 8
	retq
.Lfunc_end106:
	.size	_ZSt18uninitialized_copyIN9__gnu_cxx17__normal_iteratorIPKNSt7__cxx1112basic_stringIcSt11char_traitsIcESaIcEEESt6vectorIS7_SaIS7_EEEEPS7_ET0_T_SG_SF_, .Lfunc_end106-_ZSt18uninitialized_copyIN9__gnu_cxx17__normal_iteratorIPKNSt7__cxx1112basic_stringIcSt11char_traitsIcESaIcEEESt6vectorIS7_SaIS7_EEEEPS7_ET0_T_SG_SF_
	.cfi_endproc
                                        # -- End function
	.section	.text._ZNSt20__uninitialized_copyILb0EE13__uninit_copyIN9__gnu_cxx17__normal_iteratorIPKNSt7__cxx1112basic_stringIcSt11char_traitsIcESaIcEEESt6vectorIS9_SaIS9_EEEEPS9_EET0_T_SI_SH_,"axG",@progbits,_ZNSt20__uninitialized_copyILb0EE13__uninit_copyIN9__gnu_cxx17__normal_iteratorIPKNSt7__cxx1112basic_stringIcSt11char_traitsIcESaIcEEESt6vectorIS9_SaIS9_EEEEPS9_EET0_T_SI_SH_,comdat
	.weak	_ZNSt20__uninitialized_copyILb0EE13__uninit_copyIN9__gnu_cxx17__normal_iteratorIPKNSt7__cxx1112basic_stringIcSt11char_traitsIcESaIcEEESt6vectorIS9_SaIS9_EEEEPS9_EET0_T_SI_SH_ # -- Begin function _ZNSt20__uninitialized_copyILb0EE13__uninit_copyIN9__gnu_cxx17__normal_iteratorIPKNSt7__cxx1112basic_stringIcSt11char_traitsIcESaIcEEESt6vectorIS9_SaIS9_EEEEPS9_EET0_T_SI_SH_
	.p2align	4, 0x90
	.type	_ZNSt20__uninitialized_copyILb0EE13__uninit_copyIN9__gnu_cxx17__normal_iteratorIPKNSt7__cxx1112basic_stringIcSt11char_traitsIcESaIcEEESt6vectorIS9_SaIS9_EEEEPS9_EET0_T_SI_SH_,@function
_ZNSt20__uninitialized_copyILb0EE13__uninit_copyIN9__gnu_cxx17__normal_iteratorIPKNSt7__cxx1112basic_stringIcSt11char_traitsIcESaIcEEESt6vectorIS9_SaIS9_EEEEPS9_EET0_T_SI_SH_: # @_ZNSt20__uninitialized_copyILb0EE13__uninit_copyIN9__gnu_cxx17__normal_iteratorIPKNSt7__cxx1112basic_stringIcSt11char_traitsIcESaIcEEESt6vectorIS9_SaIS9_EEEEPS9_EET0_T_SI_SH_
.Lfunc_begin11:
	.cfi_startproc
	.cfi_personality 3, __gxx_personality_v0
	.cfi_lsda 3, .Lexception11
# %bb.0:
	pushq	%rbp
	.cfi_def_cfa_offset 16
	.cfi_offset %rbp, -16
	movq	%rsp, %rbp
	.cfi_def_cfa_register %rbp
	pushq	%rbx
	subq	$56, %rsp
	.cfi_offset %rbx, -24
	movq	%rdi, -32(%rbp)
	movq	%rsi, -56(%rbp)
	movq	%rdx, -48(%rbp)
	movq	-48(%rbp), %rax
	movq	%rax, -16(%rbp)
.LBB107_1:                              # =>This Inner Loop Header: Depth=1
	leaq	-32(%rbp), %rdi
	leaq	-56(%rbp), %rsi
	callq	_ZN9__gnu_cxxneIPKNSt7__cxx1112basic_stringIcSt11char_traitsIcESaIcEEESt6vectorIS6_SaIS6_EEEEbRKNS_17__normal_iteratorIT_T0_EESH_
	testb	$1, %al
	jne	.LBB107_2
	jmp	.LBB107_8
.LBB107_2:                              #   in Loop: Header=BB107_1 Depth=1
	movq	-16(%rbp), %rdi
	callq	_ZSt11__addressofINSt7__cxx1112basic_stringIcSt11char_traitsIcESaIcEEEEPT_RS6_
	movq	%rax, %rbx
	leaq	-32(%rbp), %rdi
	callq	_ZNK9__gnu_cxx17__normal_iteratorIPKNSt7__cxx1112basic_stringIcSt11char_traitsIcESaIcEEESt6vectorIS6_SaIS6_EEEdeEv
.Ltmp95:
	movq	%rbx, %rdi
	movq	%rax, %rsi
	callq	_ZSt10_ConstructINSt7__cxx1112basic_stringIcSt11char_traitsIcESaIcEEEJRKS5_EEvPT_DpOT0_
.Ltmp96:
	jmp	.LBB107_3
.LBB107_3:                              #   in Loop: Header=BB107_1 Depth=1
	jmp	.LBB107_4
.LBB107_4:                              #   in Loop: Header=BB107_1 Depth=1
	leaq	-32(%rbp), %rdi
	callq	_ZN9__gnu_cxx17__normal_iteratorIPKNSt7__cxx1112basic_stringIcSt11char_traitsIcESaIcEEESt6vectorIS6_SaIS6_EEEppEv
	movq	-16(%rbp), %rax
	addq	$32, %rax
	movq	%rax, -16(%rbp)
	jmp	.LBB107_1
.LBB107_5:
.Ltmp97:
	movq	%rax, -24(%rbp)
	movl	%edx, -36(%rbp)
# %bb.6:
	movq	-24(%rbp), %rdi
	callq	__cxa_begin_catch@PLT
	movq	-48(%rbp), %rdi
	movq	-16(%rbp), %rsi
.Ltmp98:
	callq	_ZSt8_DestroyIPNSt7__cxx1112basic_stringIcSt11char_traitsIcESaIcEEEEvT_S7_
.Ltmp99:
	jmp	.LBB107_7
.LBB107_7:
.Ltmp100:
	callq	__cxa_rethrow@PLT
.Ltmp101:
	jmp	.LBB107_13
.LBB107_8:
	movq	-16(%rbp), %rax
	addq	$56, %rsp
	popq	%rbx
	popq	%rbp
	.cfi_def_cfa %rsp, 8
	retq
.LBB107_9:
	.cfi_def_cfa %rbp, 16
.Ltmp102:
	movq	%rax, -24(%rbp)
	movl	%edx, -36(%rbp)
.Ltmp103:
	callq	__cxa_end_catch@PLT
.Ltmp104:
	jmp	.LBB107_10
.LBB107_10:
	jmp	.LBB107_11
.LBB107_11:
	movq	-24(%rbp), %rdi
	callq	_Unwind_Resume@PLT
.LBB107_12:
.Ltmp105:
                                        # kill: killed $rdx
	movq	%rax, %rdi
	callq	__clang_call_terminate
.LBB107_13:
.Lfunc_end107:
	.size	_ZNSt20__uninitialized_copyILb0EE13__uninit_copyIN9__gnu_cxx17__normal_iteratorIPKNSt7__cxx1112basic_stringIcSt11char_traitsIcESaIcEEESt6vectorIS9_SaIS9_EEEEPS9_EET0_T_SI_SH_, .Lfunc_end107-_ZNSt20__uninitialized_copyILb0EE13__uninit_copyIN9__gnu_cxx17__normal_iteratorIPKNSt7__cxx1112basic_stringIcSt11char_traitsIcESaIcEEESt6vectorIS9_SaIS9_EEEEPS9_EET0_T_SI_SH_
	.cfi_endproc
	.section	.gcc_except_table._ZNSt20__uninitialized_copyILb0EE13__uninit_copyIN9__gnu_cxx17__normal_iteratorIPKNSt7__cxx1112basic_stringIcSt11char_traitsIcESaIcEEESt6vectorIS9_SaIS9_EEEEPS9_EET0_T_SI_SH_,"aG",@progbits,_ZNSt20__uninitialized_copyILb0EE13__uninit_copyIN9__gnu_cxx17__normal_iteratorIPKNSt7__cxx1112basic_stringIcSt11char_traitsIcESaIcEEESt6vectorIS9_SaIS9_EEEEPS9_EET0_T_SI_SH_,comdat
	.p2align	2
GCC_except_table107:
.Lexception11:
	.byte	255                             # @LPStart Encoding = omit
	.byte	3                               # @TType Encoding = udata4
	.uleb128 .Lttbase7-.Lttbaseref7
.Lttbaseref7:
	.byte	1                               # Call site Encoding = uleb128
	.uleb128 .Lcst_end11-.Lcst_begin11
.Lcst_begin11:
	.uleb128 .Ltmp95-.Lfunc_begin11         # >> Call Site 1 <<
	.uleb128 .Ltmp96-.Ltmp95                #   Call between .Ltmp95 and .Ltmp96
	.uleb128 .Ltmp97-.Lfunc_begin11         #     jumps to .Ltmp97
	.byte	1                               #   On action: 1
	.uleb128 .Ltmp96-.Lfunc_begin11         # >> Call Site 2 <<
	.uleb128 .Ltmp98-.Ltmp96                #   Call between .Ltmp96 and .Ltmp98
	.byte	0                               #     has no landing pad
	.byte	0                               #   On action: cleanup
	.uleb128 .Ltmp98-.Lfunc_begin11         # >> Call Site 3 <<
	.uleb128 .Ltmp101-.Ltmp98               #   Call between .Ltmp98 and .Ltmp101
	.uleb128 .Ltmp102-.Lfunc_begin11        #     jumps to .Ltmp102
	.byte	0                               #   On action: cleanup
	.uleb128 .Ltmp103-.Lfunc_begin11        # >> Call Site 4 <<
	.uleb128 .Ltmp104-.Ltmp103              #   Call between .Ltmp103 and .Ltmp104
	.uleb128 .Ltmp105-.Lfunc_begin11        #     jumps to .Ltmp105
	.byte	1                               #   On action: 1
	.uleb128 .Ltmp104-.Lfunc_begin11        # >> Call Site 5 <<
	.uleb128 .Lfunc_end107-.Ltmp104         #   Call between .Ltmp104 and .Lfunc_end107
	.byte	0                               #     has no landing pad
	.byte	0                               #   On action: cleanup
.Lcst_end11:
	.byte	1                               # >> Action Record 1 <<
                                        #   Catch TypeInfo 1
	.byte	0                               #   No further actions
	.p2align	2
                                        # >> Catch TypeInfos <<
	.long	0                               # TypeInfo 1
.Lttbase7:
	.p2align	2
                                        # -- End function
	.section	.text._ZN9__gnu_cxxneIPKNSt7__cxx1112basic_stringIcSt11char_traitsIcESaIcEEESt6vectorIS6_SaIS6_EEEEbRKNS_17__normal_iteratorIT_T0_EESH_,"axG",@progbits,_ZN9__gnu_cxxneIPKNSt7__cxx1112basic_stringIcSt11char_traitsIcESaIcEEESt6vectorIS6_SaIS6_EEEEbRKNS_17__normal_iteratorIT_T0_EESH_,comdat
	.weak	_ZN9__gnu_cxxneIPKNSt7__cxx1112basic_stringIcSt11char_traitsIcESaIcEEESt6vectorIS6_SaIS6_EEEEbRKNS_17__normal_iteratorIT_T0_EESH_ # -- Begin function _ZN9__gnu_cxxneIPKNSt7__cxx1112basic_stringIcSt11char_traitsIcESaIcEEESt6vectorIS6_SaIS6_EEEEbRKNS_17__normal_iteratorIT_T0_EESH_
	.p2align	4, 0x90
	.type	_ZN9__gnu_cxxneIPKNSt7__cxx1112basic_stringIcSt11char_traitsIcESaIcEEESt6vectorIS6_SaIS6_EEEEbRKNS_17__normal_iteratorIT_T0_EESH_,@function
_ZN9__gnu_cxxneIPKNSt7__cxx1112basic_stringIcSt11char_traitsIcESaIcEEESt6vectorIS6_SaIS6_EEEEbRKNS_17__normal_iteratorIT_T0_EESH_: # @_ZN9__gnu_cxxneIPKNSt7__cxx1112basic_stringIcSt11char_traitsIcESaIcEEESt6vectorIS6_SaIS6_EEEEbRKNS_17__normal_iteratorIT_T0_EESH_
	.cfi_startproc
# %bb.0:
	pushq	%rbp
	.cfi_def_cfa_offset 16
	.cfi_offset %rbp, -16
	movq	%rsp, %rbp
	.cfi_def_cfa_register %rbp
	pushq	%rbx
	subq	$24, %rsp
	.cfi_offset %rbx, -24
	movq	%rdi, -24(%rbp)
	movq	%rsi, -16(%rbp)
	movq	-24(%rbp), %rdi
	callq	_ZNK9__gnu_cxx17__normal_iteratorIPKNSt7__cxx1112basic_stringIcSt11char_traitsIcESaIcEEESt6vectorIS6_SaIS6_EEE4baseEv
	movq	(%rax), %rbx
	movq	-16(%rbp), %rdi
	callq	_ZNK9__gnu_cxx17__normal_iteratorIPKNSt7__cxx1112basic_stringIcSt11char_traitsIcESaIcEEESt6vectorIS6_SaIS6_EEE4baseEv
	cmpq	(%rax), %rbx
	setne	%al
	andb	$1, %al
	movzbl	%al, %eax
	addq	$24, %rsp
	popq	%rbx
	popq	%rbp
	.cfi_def_cfa %rsp, 8
	retq
.Lfunc_end108:
	.size	_ZN9__gnu_cxxneIPKNSt7__cxx1112basic_stringIcSt11char_traitsIcESaIcEEESt6vectorIS6_SaIS6_EEEEbRKNS_17__normal_iteratorIT_T0_EESH_, .Lfunc_end108-_ZN9__gnu_cxxneIPKNSt7__cxx1112basic_stringIcSt11char_traitsIcESaIcEEESt6vectorIS6_SaIS6_EEEEbRKNS_17__normal_iteratorIT_T0_EESH_
	.cfi_endproc
                                        # -- End function
	.section	.text._ZSt10_ConstructINSt7__cxx1112basic_stringIcSt11char_traitsIcESaIcEEEJRKS5_EEvPT_DpOT0_,"axG",@progbits,_ZSt10_ConstructINSt7__cxx1112basic_stringIcSt11char_traitsIcESaIcEEEJRKS5_EEvPT_DpOT0_,comdat
	.weak	_ZSt10_ConstructINSt7__cxx1112basic_stringIcSt11char_traitsIcESaIcEEEJRKS5_EEvPT_DpOT0_ # -- Begin function _ZSt10_ConstructINSt7__cxx1112basic_stringIcSt11char_traitsIcESaIcEEEJRKS5_EEvPT_DpOT0_
	.p2align	4, 0x90
	.type	_ZSt10_ConstructINSt7__cxx1112basic_stringIcSt11char_traitsIcESaIcEEEJRKS5_EEvPT_DpOT0_,@function
_ZSt10_ConstructINSt7__cxx1112basic_stringIcSt11char_traitsIcESaIcEEEJRKS5_EEvPT_DpOT0_: # @_ZSt10_ConstructINSt7__cxx1112basic_stringIcSt11char_traitsIcESaIcEEEJRKS5_EEvPT_DpOT0_
	.cfi_startproc
# %bb.0:
	pushq	%rbp
	.cfi_def_cfa_offset 16
	.cfi_offset %rbp, -16
	movq	%rsp, %rbp
	.cfi_def_cfa_register %rbp
	pushq	%rbx
	subq	$24, %rsp
	.cfi_offset %rbx, -24
	movq	%rdi, -24(%rbp)
	movq	%rsi, -16(%rbp)
	movq	-24(%rbp), %rbx
	movq	-16(%rbp), %rdi
	callq	_ZSt7forwardIRKNSt7__cxx1112basic_stringIcSt11char_traitsIcESaIcEEEEOT_RNSt16remove_referenceIS8_E4typeE
	movq	%rbx, %rdi
	movq	%rax, %rsi
	callq	_ZNSt7__cxx1112basic_stringIcSt11char_traitsIcESaIcEEC1ERKS4_@PLT
	addq	$24, %rsp
	popq	%rbx
	popq	%rbp
	.cfi_def_cfa %rsp, 8
	retq
.Lfunc_end109:
	.size	_ZSt10_ConstructINSt7__cxx1112basic_stringIcSt11char_traitsIcESaIcEEEJRKS5_EEvPT_DpOT0_, .Lfunc_end109-_ZSt10_ConstructINSt7__cxx1112basic_stringIcSt11char_traitsIcESaIcEEEJRKS5_EEvPT_DpOT0_
	.cfi_endproc
                                        # -- End function
	.section	.text._ZNK9__gnu_cxx17__normal_iteratorIPKNSt7__cxx1112basic_stringIcSt11char_traitsIcESaIcEEESt6vectorIS6_SaIS6_EEEdeEv,"axG",@progbits,_ZNK9__gnu_cxx17__normal_iteratorIPKNSt7__cxx1112basic_stringIcSt11char_traitsIcESaIcEEESt6vectorIS6_SaIS6_EEEdeEv,comdat
	.weak	_ZNK9__gnu_cxx17__normal_iteratorIPKNSt7__cxx1112basic_stringIcSt11char_traitsIcESaIcEEESt6vectorIS6_SaIS6_EEEdeEv # -- Begin function _ZNK9__gnu_cxx17__normal_iteratorIPKNSt7__cxx1112basic_stringIcSt11char_traitsIcESaIcEEESt6vectorIS6_SaIS6_EEEdeEv
	.p2align	4, 0x90
	.type	_ZNK9__gnu_cxx17__normal_iteratorIPKNSt7__cxx1112basic_stringIcSt11char_traitsIcESaIcEEESt6vectorIS6_SaIS6_EEEdeEv,@function
_ZNK9__gnu_cxx17__normal_iteratorIPKNSt7__cxx1112basic_stringIcSt11char_traitsIcESaIcEEESt6vectorIS6_SaIS6_EEEdeEv: # @_ZNK9__gnu_cxx17__normal_iteratorIPKNSt7__cxx1112basic_stringIcSt11char_traitsIcESaIcEEESt6vectorIS6_SaIS6_EEEdeEv
	.cfi_startproc
# %bb.0:
	pushq	%rbp
	.cfi_def_cfa_offset 16
	.cfi_offset %rbp, -16
	movq	%rsp, %rbp
	.cfi_def_cfa_register %rbp
	movq	%rdi, -8(%rbp)
	movq	-8(%rbp), %rax
	movq	(%rax), %rax
	popq	%rbp
	.cfi_def_cfa %rsp, 8
	retq
.Lfunc_end110:
	.size	_ZNK9__gnu_cxx17__normal_iteratorIPKNSt7__cxx1112basic_stringIcSt11char_traitsIcESaIcEEESt6vectorIS6_SaIS6_EEEdeEv, .Lfunc_end110-_ZNK9__gnu_cxx17__normal_iteratorIPKNSt7__cxx1112basic_stringIcSt11char_traitsIcESaIcEEESt6vectorIS6_SaIS6_EEEdeEv
	.cfi_endproc
                                        # -- End function
	.section	.text._ZN9__gnu_cxx17__normal_iteratorIPKNSt7__cxx1112basic_stringIcSt11char_traitsIcESaIcEEESt6vectorIS6_SaIS6_EEEppEv,"axG",@progbits,_ZN9__gnu_cxx17__normal_iteratorIPKNSt7__cxx1112basic_stringIcSt11char_traitsIcESaIcEEESt6vectorIS6_SaIS6_EEEppEv,comdat
	.weak	_ZN9__gnu_cxx17__normal_iteratorIPKNSt7__cxx1112basic_stringIcSt11char_traitsIcESaIcEEESt6vectorIS6_SaIS6_EEEppEv # -- Begin function _ZN9__gnu_cxx17__normal_iteratorIPKNSt7__cxx1112basic_stringIcSt11char_traitsIcESaIcEEESt6vectorIS6_SaIS6_EEEppEv
	.p2align	4, 0x90
	.type	_ZN9__gnu_cxx17__normal_iteratorIPKNSt7__cxx1112basic_stringIcSt11char_traitsIcESaIcEEESt6vectorIS6_SaIS6_EEEppEv,@function
_ZN9__gnu_cxx17__normal_iteratorIPKNSt7__cxx1112basic_stringIcSt11char_traitsIcESaIcEEESt6vectorIS6_SaIS6_EEEppEv: # @_ZN9__gnu_cxx17__normal_iteratorIPKNSt7__cxx1112basic_stringIcSt11char_traitsIcESaIcEEESt6vectorIS6_SaIS6_EEEppEv
	.cfi_startproc
# %bb.0:
	pushq	%rbp
	.cfi_def_cfa_offset 16
	.cfi_offset %rbp, -16
	movq	%rsp, %rbp
	.cfi_def_cfa_register %rbp
	movq	%rdi, -8(%rbp)
	movq	-8(%rbp), %rax
	movq	(%rax), %rcx
	addq	$32, %rcx
	movq	%rcx, (%rax)
	popq	%rbp
	.cfi_def_cfa %rsp, 8
	retq
.Lfunc_end111:
	.size	_ZN9__gnu_cxx17__normal_iteratorIPKNSt7__cxx1112basic_stringIcSt11char_traitsIcESaIcEEESt6vectorIS6_SaIS6_EEEppEv, .Lfunc_end111-_ZN9__gnu_cxx17__normal_iteratorIPKNSt7__cxx1112basic_stringIcSt11char_traitsIcESaIcEEESt6vectorIS6_SaIS6_EEEppEv
	.cfi_endproc
                                        # -- End function
	.section	.text._ZNK9__gnu_cxx17__normal_iteratorIPKNSt7__cxx1112basic_stringIcSt11char_traitsIcESaIcEEESt6vectorIS6_SaIS6_EEE4baseEv,"axG",@progbits,_ZNK9__gnu_cxx17__normal_iteratorIPKNSt7__cxx1112basic_stringIcSt11char_traitsIcESaIcEEESt6vectorIS6_SaIS6_EEE4baseEv,comdat
	.weak	_ZNK9__gnu_cxx17__normal_iteratorIPKNSt7__cxx1112basic_stringIcSt11char_traitsIcESaIcEEESt6vectorIS6_SaIS6_EEE4baseEv # -- Begin function _ZNK9__gnu_cxx17__normal_iteratorIPKNSt7__cxx1112basic_stringIcSt11char_traitsIcESaIcEEESt6vectorIS6_SaIS6_EEE4baseEv
	.p2align	4, 0x90
	.type	_ZNK9__gnu_cxx17__normal_iteratorIPKNSt7__cxx1112basic_stringIcSt11char_traitsIcESaIcEEESt6vectorIS6_SaIS6_EEE4baseEv,@function
_ZNK9__gnu_cxx17__normal_iteratorIPKNSt7__cxx1112basic_stringIcSt11char_traitsIcESaIcEEESt6vectorIS6_SaIS6_EEE4baseEv: # @_ZNK9__gnu_cxx17__normal_iteratorIPKNSt7__cxx1112basic_stringIcSt11char_traitsIcESaIcEEESt6vectorIS6_SaIS6_EEE4baseEv
	.cfi_startproc
# %bb.0:
	pushq	%rbp
	.cfi_def_cfa_offset 16
	.cfi_offset %rbp, -16
	movq	%rsp, %rbp
	.cfi_def_cfa_register %rbp
	movq	%rdi, -8(%rbp)
	movq	-8(%rbp), %rax
	popq	%rbp
	.cfi_def_cfa %rsp, 8
	retq
.Lfunc_end112:
	.size	_ZNK9__gnu_cxx17__normal_iteratorIPKNSt7__cxx1112basic_stringIcSt11char_traitsIcESaIcEEESt6vectorIS6_SaIS6_EEE4baseEv, .Lfunc_end112-_ZNK9__gnu_cxx17__normal_iteratorIPKNSt7__cxx1112basic_stringIcSt11char_traitsIcESaIcEEESt6vectorIS6_SaIS6_EEE4baseEv
	.cfi_endproc
                                        # -- End function
	.section	.text._ZN9__gnu_cxx17__normal_iteratorIPKNSt7__cxx1112basic_stringIcSt11char_traitsIcESaIcEEESt6vectorIS6_SaIS6_EEEC2ERKS8_,"axG",@progbits,_ZN9__gnu_cxx17__normal_iteratorIPKNSt7__cxx1112basic_stringIcSt11char_traitsIcESaIcEEESt6vectorIS6_SaIS6_EEEC2ERKS8_,comdat
	.weak	_ZN9__gnu_cxx17__normal_iteratorIPKNSt7__cxx1112basic_stringIcSt11char_traitsIcESaIcEEESt6vectorIS6_SaIS6_EEEC2ERKS8_ # -- Begin function _ZN9__gnu_cxx17__normal_iteratorIPKNSt7__cxx1112basic_stringIcSt11char_traitsIcESaIcEEESt6vectorIS6_SaIS6_EEEC2ERKS8_
	.p2align	4, 0x90
	.type	_ZN9__gnu_cxx17__normal_iteratorIPKNSt7__cxx1112basic_stringIcSt11char_traitsIcESaIcEEESt6vectorIS6_SaIS6_EEEC2ERKS8_,@function
_ZN9__gnu_cxx17__normal_iteratorIPKNSt7__cxx1112basic_stringIcSt11char_traitsIcESaIcEEESt6vectorIS6_SaIS6_EEEC2ERKS8_: # @_ZN9__gnu_cxx17__normal_iteratorIPKNSt7__cxx1112basic_stringIcSt11char_traitsIcESaIcEEESt6vectorIS6_SaIS6_EEEC2ERKS8_
	.cfi_startproc
# %bb.0:
	pushq	%rbp
	.cfi_def_cfa_offset 16
	.cfi_offset %rbp, -16
	movq	%rsp, %rbp
	.cfi_def_cfa_register %rbp
	movq	%rdi, -16(%rbp)
	movq	%rsi, -8(%rbp)
	movq	-16(%rbp), %rax
	movq	-8(%rbp), %rcx
	movq	(%rcx), %rcx
	movq	%rcx, (%rax)
	popq	%rbp
	.cfi_def_cfa %rsp, 8
	retq
.Lfunc_end113:
	.size	_ZN9__gnu_cxx17__normal_iteratorIPKNSt7__cxx1112basic_stringIcSt11char_traitsIcESaIcEEESt6vectorIS6_SaIS6_EEEC2ERKS8_, .Lfunc_end113-_ZN9__gnu_cxx17__normal_iteratorIPKNSt7__cxx1112basic_stringIcSt11char_traitsIcESaIcEEESt6vectorIS6_SaIS6_EEEC2ERKS8_
	.cfi_endproc
                                        # -- End function
	.section	.text._ZNKSt6vectorI9DataPointSaIS0_EE12_M_check_lenEmPKc,"axG",@progbits,_ZNKSt6vectorI9DataPointSaIS0_EE12_M_check_lenEmPKc,comdat
	.weak	_ZNKSt6vectorI9DataPointSaIS0_EE12_M_check_lenEmPKc # -- Begin function _ZNKSt6vectorI9DataPointSaIS0_EE12_M_check_lenEmPKc
	.p2align	4, 0x90
	.type	_ZNKSt6vectorI9DataPointSaIS0_EE12_M_check_lenEmPKc,@function
_ZNKSt6vectorI9DataPointSaIS0_EE12_M_check_lenEmPKc: # @_ZNKSt6vectorI9DataPointSaIS0_EE12_M_check_lenEmPKc
	.cfi_startproc
# %bb.0:
	pushq	%rbp
	.cfi_def_cfa_offset 16
	.cfi_offset %rbp, -16
	movq	%rsp, %rbp
	.cfi_def_cfa_register %rbp
	pushq	%r14
	pushq	%rbx
	subq	$48, %rsp
	.cfi_offset %rbx, -32
	.cfi_offset %r14, -24
	movq	%rdi, -56(%rbp)
	movq	%rsi, -32(%rbp)
	movq	%rdx, -48(%rbp)
	movq	-56(%rbp), %r14
	movq	%r14, %rdi
	callq	_ZNKSt6vectorI9DataPointSaIS0_EE8max_sizeEv
	movq	%rax, %rbx
	movq	%r14, %rdi
	callq	_ZNKSt6vectorI9DataPointSaIS0_EE4sizeEv
	subq	%rax, %rbx
	cmpq	-32(%rbp), %rbx
	jae	.LBB114_2
# %bb.1:
	movq	-48(%rbp), %rdi
	callq	_ZSt20__throw_length_errorPKc@PLT
.LBB114_2:
	movq	%r14, %rdi
	callq	_ZNKSt6vectorI9DataPointSaIS0_EE4sizeEv
	movq	%rax, %rbx
	movq	%r14, %rdi
	callq	_ZNKSt6vectorI9DataPointSaIS0_EE4sizeEv
	movq	%rax, -40(%rbp)
	leaq	-40(%rbp), %rdi
	leaq	-32(%rbp), %rsi
	callq	_ZSt3maxImERKT_S2_S2_
	addq	(%rax), %rbx
	movq	%rbx, -24(%rbp)
	movq	-24(%rbp), %rbx
	movq	%r14, %rdi
	callq	_ZNKSt6vectorI9DataPointSaIS0_EE4sizeEv
	cmpq	%rax, %rbx
	jb	.LBB114_4
# %bb.3:
	movq	-24(%rbp), %rbx
	movq	%r14, %rdi
	callq	_ZNKSt6vectorI9DataPointSaIS0_EE8max_sizeEv
	cmpq	%rax, %rbx
	jbe	.LBB114_5
.LBB114_4:
	movq	%r14, %rdi
	callq	_ZNKSt6vectorI9DataPointSaIS0_EE8max_sizeEv
	jmp	.LBB114_6
.LBB114_5:
	movq	-24(%rbp), %rax
.LBB114_6:
	addq	$48, %rsp
	popq	%rbx
	popq	%r14
	popq	%rbp
	.cfi_def_cfa %rsp, 8
	retq
.Lfunc_end114:
	.size	_ZNKSt6vectorI9DataPointSaIS0_EE12_M_check_lenEmPKc, .Lfunc_end114-_ZNKSt6vectorI9DataPointSaIS0_EE12_M_check_lenEmPKc
	.cfi_endproc
                                        # -- End function
	.section	.text._ZN9__gnu_cxxmiIP9DataPointSt6vectorIS1_SaIS1_EEEENS_17__normal_iteratorIT_T0_E15difference_typeERKS9_SC_,"axG",@progbits,_ZN9__gnu_cxxmiIP9DataPointSt6vectorIS1_SaIS1_EEEENS_17__normal_iteratorIT_T0_E15difference_typeERKS9_SC_,comdat
	.weak	_ZN9__gnu_cxxmiIP9DataPointSt6vectorIS1_SaIS1_EEEENS_17__normal_iteratorIT_T0_E15difference_typeERKS9_SC_ # -- Begin function _ZN9__gnu_cxxmiIP9DataPointSt6vectorIS1_SaIS1_EEEENS_17__normal_iteratorIT_T0_E15difference_typeERKS9_SC_
	.p2align	4, 0x90
	.type	_ZN9__gnu_cxxmiIP9DataPointSt6vectorIS1_SaIS1_EEEENS_17__normal_iteratorIT_T0_E15difference_typeERKS9_SC_,@function
_ZN9__gnu_cxxmiIP9DataPointSt6vectorIS1_SaIS1_EEEENS_17__normal_iteratorIT_T0_E15difference_typeERKS9_SC_: # @_ZN9__gnu_cxxmiIP9DataPointSt6vectorIS1_SaIS1_EEEENS_17__normal_iteratorIT_T0_E15difference_typeERKS9_SC_
	.cfi_startproc
# %bb.0:
	pushq	%rbp
	.cfi_def_cfa_offset 16
	.cfi_offset %rbp, -16
	movq	%rsp, %rbp
	.cfi_def_cfa_register %rbp
	pushq	%rbx
	subq	$24, %rsp
	.cfi_offset %rbx, -24
	movq	%rdi, -24(%rbp)
	movq	%rsi, -16(%rbp)
	movq	-24(%rbp), %rdi
	callq	_ZNK9__gnu_cxx17__normal_iteratorIP9DataPointSt6vectorIS1_SaIS1_EEE4baseEv
	movq	(%rax), %rbx
	movq	-16(%rbp), %rdi
	callq	_ZNK9__gnu_cxx17__normal_iteratorIP9DataPointSt6vectorIS1_SaIS1_EEE4baseEv
	movq	(%rax), %rax
	subq	%rax, %rbx
	movl	$56, %ecx
	movq	%rbx, %rax
	cqto
	idivq	%rcx
	addq	$24, %rsp
	popq	%rbx
	popq	%rbp
	.cfi_def_cfa %rsp, 8
	retq
.Lfunc_end115:
	.size	_ZN9__gnu_cxxmiIP9DataPointSt6vectorIS1_SaIS1_EEEENS_17__normal_iteratorIT_T0_E15difference_typeERKS9_SC_, .Lfunc_end115-_ZN9__gnu_cxxmiIP9DataPointSt6vectorIS1_SaIS1_EEEENS_17__normal_iteratorIT_T0_E15difference_typeERKS9_SC_
	.cfi_endproc
                                        # -- End function
	.section	.text._ZNSt12_Vector_baseI9DataPointSaIS0_EE11_M_allocateEm,"axG",@progbits,_ZNSt12_Vector_baseI9DataPointSaIS0_EE11_M_allocateEm,comdat
	.weak	_ZNSt12_Vector_baseI9DataPointSaIS0_EE11_M_allocateEm # -- Begin function _ZNSt12_Vector_baseI9DataPointSaIS0_EE11_M_allocateEm
	.p2align	4, 0x90
	.type	_ZNSt12_Vector_baseI9DataPointSaIS0_EE11_M_allocateEm,@function
_ZNSt12_Vector_baseI9DataPointSaIS0_EE11_M_allocateEm: # @_ZNSt12_Vector_baseI9DataPointSaIS0_EE11_M_allocateEm
	.cfi_startproc
# %bb.0:
	pushq	%rbp
	.cfi_def_cfa_offset 16
	.cfi_offset %rbp, -16
	movq	%rsp, %rbp
	.cfi_def_cfa_register %rbp
	subq	$16, %rsp
	movq	%rdi, -16(%rbp)
	movq	%rsi, -8(%rbp)
	movq	-16(%rbp), %rdi
	cmpq	$0, -8(%rbp)
	je	.LBB116_2
# %bb.1:
	movq	-8(%rbp), %rsi
	callq	_ZNSt16allocator_traitsISaI9DataPointEE8allocateERS1_m
	jmp	.LBB116_3
.LBB116_2:
	xorl	%eax, %eax
	jmp	.LBB116_3
.LBB116_3:
	addq	$16, %rsp
	popq	%rbp
	.cfi_def_cfa %rsp, 8
	retq
.Lfunc_end116:
	.size	_ZNSt12_Vector_baseI9DataPointSaIS0_EE11_M_allocateEm, .Lfunc_end116-_ZNSt12_Vector_baseI9DataPointSaIS0_EE11_M_allocateEm
	.cfi_endproc
                                        # -- End function
	.section	.text._ZNSt6vectorI9DataPointSaIS0_EE11_S_relocateEPS0_S3_S3_RS1_,"axG",@progbits,_ZNSt6vectorI9DataPointSaIS0_EE11_S_relocateEPS0_S3_S3_RS1_,comdat
	.weak	_ZNSt6vectorI9DataPointSaIS0_EE11_S_relocateEPS0_S3_S3_RS1_ # -- Begin function _ZNSt6vectorI9DataPointSaIS0_EE11_S_relocateEPS0_S3_S3_RS1_
	.p2align	4, 0x90
	.type	_ZNSt6vectorI9DataPointSaIS0_EE11_S_relocateEPS0_S3_S3_RS1_,@function
_ZNSt6vectorI9DataPointSaIS0_EE11_S_relocateEPS0_S3_S3_RS1_: # @_ZNSt6vectorI9DataPointSaIS0_EE11_S_relocateEPS0_S3_S3_RS1_
	.cfi_startproc
# %bb.0:
	pushq	%rbp
	.cfi_def_cfa_offset 16
	.cfi_offset %rbp, -16
	movq	%rsp, %rbp
	.cfi_def_cfa_register %rbp
	subq	$48, %rsp
	movq	%rdi, -32(%rbp)
	movq	%rsi, -24(%rbp)
	movq	%rdx, -16(%rbp)
	movq	%rcx, -8(%rbp)
	movq	-32(%rbp), %rdi
	movq	-24(%rbp), %rsi
	movq	-16(%rbp), %rdx
	movq	-8(%rbp), %rcx
	callq	_ZNSt6vectorI9DataPointSaIS0_EE14_S_do_relocateEPS0_S3_S3_RS1_St17integral_constantIbLb1EE
	addq	$48, %rsp
	popq	%rbp
	.cfi_def_cfa %rsp, 8
	retq
.Lfunc_end117:
	.size	_ZNSt6vectorI9DataPointSaIS0_EE11_S_relocateEPS0_S3_S3_RS1_, .Lfunc_end117-_ZNSt6vectorI9DataPointSaIS0_EE11_S_relocateEPS0_S3_S3_RS1_
	.cfi_endproc
                                        # -- End function
	.section	.text._ZNK9__gnu_cxx17__normal_iteratorIP9DataPointSt6vectorIS1_SaIS1_EEE4baseEv,"axG",@progbits,_ZNK9__gnu_cxx17__normal_iteratorIP9DataPointSt6vectorIS1_SaIS1_EEE4baseEv,comdat
	.weak	_ZNK9__gnu_cxx17__normal_iteratorIP9DataPointSt6vectorIS1_SaIS1_EEE4baseEv # -- Begin function _ZNK9__gnu_cxx17__normal_iteratorIP9DataPointSt6vectorIS1_SaIS1_EEE4baseEv
	.p2align	4, 0x90
	.type	_ZNK9__gnu_cxx17__normal_iteratorIP9DataPointSt6vectorIS1_SaIS1_EEE4baseEv,@function
_ZNK9__gnu_cxx17__normal_iteratorIP9DataPointSt6vectorIS1_SaIS1_EEE4baseEv: # @_ZNK9__gnu_cxx17__normal_iteratorIP9DataPointSt6vectorIS1_SaIS1_EEE4baseEv
	.cfi_startproc
# %bb.0:
	pushq	%rbp
	.cfi_def_cfa_offset 16
	.cfi_offset %rbp, -16
	movq	%rsp, %rbp
	.cfi_def_cfa_register %rbp
	movq	%rdi, -8(%rbp)
	movq	-8(%rbp), %rax
	popq	%rbp
	.cfi_def_cfa %rsp, 8
	retq
.Lfunc_end118:
	.size	_ZNK9__gnu_cxx17__normal_iteratorIP9DataPointSt6vectorIS1_SaIS1_EEE4baseEv, .Lfunc_end118-_ZNK9__gnu_cxx17__normal_iteratorIP9DataPointSt6vectorIS1_SaIS1_EEE4baseEv
	.cfi_endproc
                                        # -- End function
	.section	.text._ZNSt16allocator_traitsISaI9DataPointEE7destroyIS0_EEvRS1_PT_,"axG",@progbits,_ZNSt16allocator_traitsISaI9DataPointEE7destroyIS0_EEvRS1_PT_,comdat
	.weak	_ZNSt16allocator_traitsISaI9DataPointEE7destroyIS0_EEvRS1_PT_ # -- Begin function _ZNSt16allocator_traitsISaI9DataPointEE7destroyIS0_EEvRS1_PT_
	.p2align	4, 0x90
	.type	_ZNSt16allocator_traitsISaI9DataPointEE7destroyIS0_EEvRS1_PT_,@function
_ZNSt16allocator_traitsISaI9DataPointEE7destroyIS0_EEvRS1_PT_: # @_ZNSt16allocator_traitsISaI9DataPointEE7destroyIS0_EEvRS1_PT_
	.cfi_startproc
# %bb.0:
	pushq	%rbp
	.cfi_def_cfa_offset 16
	.cfi_offset %rbp, -16
	movq	%rsp, %rbp
	.cfi_def_cfa_register %rbp
	subq	$16, %rsp
	movq	%rdi, -16(%rbp)
	movq	%rsi, -8(%rbp)
	movq	-16(%rbp), %rdi
	movq	-8(%rbp), %rsi
	callq	_ZN9__gnu_cxx13new_allocatorI9DataPointE7destroyIS1_EEvPT_
	addq	$16, %rsp
	popq	%rbp
	.cfi_def_cfa %rsp, 8
	retq
.Lfunc_end119:
	.size	_ZNSt16allocator_traitsISaI9DataPointEE7destroyIS0_EEvRS1_PT_, .Lfunc_end119-_ZNSt16allocator_traitsISaI9DataPointEE7destroyIS0_EEvRS1_PT_
	.cfi_endproc
                                        # -- End function
	.section	.text._ZNKSt6vectorI9DataPointSaIS0_EE8max_sizeEv,"axG",@progbits,_ZNKSt6vectorI9DataPointSaIS0_EE8max_sizeEv,comdat
	.weak	_ZNKSt6vectorI9DataPointSaIS0_EE8max_sizeEv # -- Begin function _ZNKSt6vectorI9DataPointSaIS0_EE8max_sizeEv
	.p2align	4, 0x90
	.type	_ZNKSt6vectorI9DataPointSaIS0_EE8max_sizeEv,@function
_ZNKSt6vectorI9DataPointSaIS0_EE8max_sizeEv: # @_ZNKSt6vectorI9DataPointSaIS0_EE8max_sizeEv
	.cfi_startproc
# %bb.0:
	pushq	%rbp
	.cfi_def_cfa_offset 16
	.cfi_offset %rbp, -16
	movq	%rsp, %rbp
	.cfi_def_cfa_register %rbp
	subq	$16, %rsp
	movq	%rdi, -8(%rbp)
	movq	-8(%rbp), %rdi
	callq	_ZNKSt12_Vector_baseI9DataPointSaIS0_EE19_M_get_Tp_allocatorEv
	movq	%rax, %rdi
	callq	_ZNSt6vectorI9DataPointSaIS0_EE11_S_max_sizeERKS1_
	addq	$16, %rsp
	popq	%rbp
	.cfi_def_cfa %rsp, 8
	retq
.Lfunc_end120:
	.size	_ZNKSt6vectorI9DataPointSaIS0_EE8max_sizeEv, .Lfunc_end120-_ZNKSt6vectorI9DataPointSaIS0_EE8max_sizeEv
	.cfi_endproc
                                        # -- End function
	.section	.text._ZNSt6vectorI9DataPointSaIS0_EE11_S_max_sizeERKS1_,"axG",@progbits,_ZNSt6vectorI9DataPointSaIS0_EE11_S_max_sizeERKS1_,comdat
	.weak	_ZNSt6vectorI9DataPointSaIS0_EE11_S_max_sizeERKS1_ # -- Begin function _ZNSt6vectorI9DataPointSaIS0_EE11_S_max_sizeERKS1_
	.p2align	4, 0x90
	.type	_ZNSt6vectorI9DataPointSaIS0_EE11_S_max_sizeERKS1_,@function
_ZNSt6vectorI9DataPointSaIS0_EE11_S_max_sizeERKS1_: # @_ZNSt6vectorI9DataPointSaIS0_EE11_S_max_sizeERKS1_
	.cfi_startproc
# %bb.0:
	pushq	%rbp
	.cfi_def_cfa_offset 16
	.cfi_offset %rbp, -16
	movq	%rsp, %rbp
	.cfi_def_cfa_register %rbp
	subq	$32, %rsp
	movq	%rdi, -24(%rbp)
	movabsq	$164703072086692425, %rax       # imm = 0x249249249249249
	movq	%rax, -16(%rbp)
	movq	-24(%rbp), %rdi
	callq	_ZNSt16allocator_traitsISaI9DataPointEE8max_sizeERKS1_
	movq	%rax, -8(%rbp)
	leaq	-16(%rbp), %rdi
	leaq	-8(%rbp), %rsi
	callq	_ZSt3minImERKT_S2_S2_
	movq	(%rax), %rax
	addq	$32, %rsp
	popq	%rbp
	.cfi_def_cfa %rsp, 8
	retq
.Lfunc_end121:
	.size	_ZNSt6vectorI9DataPointSaIS0_EE11_S_max_sizeERKS1_, .Lfunc_end121-_ZNSt6vectorI9DataPointSaIS0_EE11_S_max_sizeERKS1_
	.cfi_endproc
                                        # -- End function
	.section	.text._ZNKSt12_Vector_baseI9DataPointSaIS0_EE19_M_get_Tp_allocatorEv,"axG",@progbits,_ZNKSt12_Vector_baseI9DataPointSaIS0_EE19_M_get_Tp_allocatorEv,comdat
	.weak	_ZNKSt12_Vector_baseI9DataPointSaIS0_EE19_M_get_Tp_allocatorEv # -- Begin function _ZNKSt12_Vector_baseI9DataPointSaIS0_EE19_M_get_Tp_allocatorEv
	.p2align	4, 0x90
	.type	_ZNKSt12_Vector_baseI9DataPointSaIS0_EE19_M_get_Tp_allocatorEv,@function
_ZNKSt12_Vector_baseI9DataPointSaIS0_EE19_M_get_Tp_allocatorEv: # @_ZNKSt12_Vector_baseI9DataPointSaIS0_EE19_M_get_Tp_allocatorEv
	.cfi_startproc
# %bb.0:
	pushq	%rbp
	.cfi_def_cfa_offset 16
	.cfi_offset %rbp, -16
	movq	%rsp, %rbp
	.cfi_def_cfa_register %rbp
	movq	%rdi, -8(%rbp)
	movq	-8(%rbp), %rax
	popq	%rbp
	.cfi_def_cfa %rsp, 8
	retq
.Lfunc_end122:
	.size	_ZNKSt12_Vector_baseI9DataPointSaIS0_EE19_M_get_Tp_allocatorEv, .Lfunc_end122-_ZNKSt12_Vector_baseI9DataPointSaIS0_EE19_M_get_Tp_allocatorEv
	.cfi_endproc
                                        # -- End function
	.section	.text._ZNSt16allocator_traitsISaI9DataPointEE8max_sizeERKS1_,"axG",@progbits,_ZNSt16allocator_traitsISaI9DataPointEE8max_sizeERKS1_,comdat
	.weak	_ZNSt16allocator_traitsISaI9DataPointEE8max_sizeERKS1_ # -- Begin function _ZNSt16allocator_traitsISaI9DataPointEE8max_sizeERKS1_
	.p2align	4, 0x90
	.type	_ZNSt16allocator_traitsISaI9DataPointEE8max_sizeERKS1_,@function
_ZNSt16allocator_traitsISaI9DataPointEE8max_sizeERKS1_: # @_ZNSt16allocator_traitsISaI9DataPointEE8max_sizeERKS1_
	.cfi_startproc
# %bb.0:
	pushq	%rbp
	.cfi_def_cfa_offset 16
	.cfi_offset %rbp, -16
	movq	%rsp, %rbp
	.cfi_def_cfa_register %rbp
	subq	$16, %rsp
	movq	%rdi, -8(%rbp)
	movq	-8(%rbp), %rdi
	callq	_ZNK9__gnu_cxx13new_allocatorI9DataPointE8max_sizeEv
	addq	$16, %rsp
	popq	%rbp
	.cfi_def_cfa %rsp, 8
	retq
.Lfunc_end123:
	.size	_ZNSt16allocator_traitsISaI9DataPointEE8max_sizeERKS1_, .Lfunc_end123-_ZNSt16allocator_traitsISaI9DataPointEE8max_sizeERKS1_
	.cfi_endproc
                                        # -- End function
	.section	.text._ZNK9__gnu_cxx13new_allocatorI9DataPointE8max_sizeEv,"axG",@progbits,_ZNK9__gnu_cxx13new_allocatorI9DataPointE8max_sizeEv,comdat
	.weak	_ZNK9__gnu_cxx13new_allocatorI9DataPointE8max_sizeEv # -- Begin function _ZNK9__gnu_cxx13new_allocatorI9DataPointE8max_sizeEv
	.p2align	4, 0x90
	.type	_ZNK9__gnu_cxx13new_allocatorI9DataPointE8max_sizeEv,@function
_ZNK9__gnu_cxx13new_allocatorI9DataPointE8max_sizeEv: # @_ZNK9__gnu_cxx13new_allocatorI9DataPointE8max_sizeEv
	.cfi_startproc
# %bb.0:
	pushq	%rbp
	.cfi_def_cfa_offset 16
	.cfi_offset %rbp, -16
	movq	%rsp, %rbp
	.cfi_def_cfa_register %rbp
	subq	$16, %rsp
	movq	%rdi, -8(%rbp)
	movq	-8(%rbp), %rdi
	callq	_ZNK9__gnu_cxx13new_allocatorI9DataPointE11_M_max_sizeEv
	addq	$16, %rsp
	popq	%rbp
	.cfi_def_cfa %rsp, 8
	retq
.Lfunc_end124:
	.size	_ZNK9__gnu_cxx13new_allocatorI9DataPointE8max_sizeEv, .Lfunc_end124-_ZNK9__gnu_cxx13new_allocatorI9DataPointE8max_sizeEv
	.cfi_endproc
                                        # -- End function
	.section	.text._ZNK9__gnu_cxx13new_allocatorI9DataPointE11_M_max_sizeEv,"axG",@progbits,_ZNK9__gnu_cxx13new_allocatorI9DataPointE11_M_max_sizeEv,comdat
	.weak	_ZNK9__gnu_cxx13new_allocatorI9DataPointE11_M_max_sizeEv # -- Begin function _ZNK9__gnu_cxx13new_allocatorI9DataPointE11_M_max_sizeEv
	.p2align	4, 0x90
	.type	_ZNK9__gnu_cxx13new_allocatorI9DataPointE11_M_max_sizeEv,@function
_ZNK9__gnu_cxx13new_allocatorI9DataPointE11_M_max_sizeEv: # @_ZNK9__gnu_cxx13new_allocatorI9DataPointE11_M_max_sizeEv
	.cfi_startproc
# %bb.0:
	pushq	%rbp
	.cfi_def_cfa_offset 16
	.cfi_offset %rbp, -16
	movq	%rsp, %rbp
	.cfi_def_cfa_register %rbp
	movq	%rdi, -8(%rbp)
	movabsq	$164703072086692425, %rax       # imm = 0x249249249249249
	popq	%rbp
	.cfi_def_cfa %rsp, 8
	retq
.Lfunc_end125:
	.size	_ZNK9__gnu_cxx13new_allocatorI9DataPointE11_M_max_sizeEv, .Lfunc_end125-_ZNK9__gnu_cxx13new_allocatorI9DataPointE11_M_max_sizeEv
	.cfi_endproc
                                        # -- End function
	.section	.text._ZNSt16allocator_traitsISaI9DataPointEE8allocateERS1_m,"axG",@progbits,_ZNSt16allocator_traitsISaI9DataPointEE8allocateERS1_m,comdat
	.weak	_ZNSt16allocator_traitsISaI9DataPointEE8allocateERS1_m # -- Begin function _ZNSt16allocator_traitsISaI9DataPointEE8allocateERS1_m
	.p2align	4, 0x90
	.type	_ZNSt16allocator_traitsISaI9DataPointEE8allocateERS1_m,@function
_ZNSt16allocator_traitsISaI9DataPointEE8allocateERS1_m: # @_ZNSt16allocator_traitsISaI9DataPointEE8allocateERS1_m
	.cfi_startproc
# %bb.0:
	pushq	%rbp
	.cfi_def_cfa_offset 16
	.cfi_offset %rbp, -16
	movq	%rsp, %rbp
	.cfi_def_cfa_register %rbp
	subq	$16, %rsp
	movq	%rdi, -16(%rbp)
	movq	%rsi, -8(%rbp)
	movq	-16(%rbp), %rdi
	movq	-8(%rbp), %rsi
	xorl	%edx, %edx
	callq	_ZN9__gnu_cxx13new_allocatorI9DataPointE8allocateEmPKv
	addq	$16, %rsp
	popq	%rbp
	.cfi_def_cfa %rsp, 8
	retq
.Lfunc_end126:
	.size	_ZNSt16allocator_traitsISaI9DataPointEE8allocateERS1_m, .Lfunc_end126-_ZNSt16allocator_traitsISaI9DataPointEE8allocateERS1_m
	.cfi_endproc
                                        # -- End function
	.section	.text._ZN9__gnu_cxx13new_allocatorI9DataPointE8allocateEmPKv,"axG",@progbits,_ZN9__gnu_cxx13new_allocatorI9DataPointE8allocateEmPKv,comdat
	.weak	_ZN9__gnu_cxx13new_allocatorI9DataPointE8allocateEmPKv # -- Begin function _ZN9__gnu_cxx13new_allocatorI9DataPointE8allocateEmPKv
	.p2align	4, 0x90
	.type	_ZN9__gnu_cxx13new_allocatorI9DataPointE8allocateEmPKv,@function
_ZN9__gnu_cxx13new_allocatorI9DataPointE8allocateEmPKv: # @_ZN9__gnu_cxx13new_allocatorI9DataPointE8allocateEmPKv
	.cfi_startproc
# %bb.0:
	pushq	%rbp
	.cfi_def_cfa_offset 16
	.cfi_offset %rbp, -16
	movq	%rsp, %rbp
	.cfi_def_cfa_register %rbp
	pushq	%rbx
	subq	$24, %rsp
	.cfi_offset %rbx, -24
	movq	%rdi, -24(%rbp)
	movq	%rsi, -16(%rbp)
	movq	%rdx, -32(%rbp)
	movq	-24(%rbp), %rdi
	movq	-16(%rbp), %rbx
	callq	_ZNK9__gnu_cxx13new_allocatorI9DataPointE11_M_max_sizeEv
	cmpq	%rax, %rbx
	jbe	.LBB127_4
# %bb.1:
	movabsq	$329406144173384850, %rax       # imm = 0x492492492492492
	cmpq	%rax, -16(%rbp)
	jbe	.LBB127_3
# %bb.2:
	callq	_ZSt28__throw_bad_array_new_lengthv@PLT
.LBB127_3:
	callq	_ZSt17__throw_bad_allocv@PLT
.LBB127_4:
	imulq	$56, -16(%rbp), %rdi
	callq	_Znwm@PLT
	addq	$24, %rsp
	popq	%rbx
	popq	%rbp
	.cfi_def_cfa %rsp, 8
	retq
.Lfunc_end127:
	.size	_ZN9__gnu_cxx13new_allocatorI9DataPointE8allocateEmPKv, .Lfunc_end127-_ZN9__gnu_cxx13new_allocatorI9DataPointE8allocateEmPKv
	.cfi_endproc
                                        # -- End function
	.section	.text._ZNSt6vectorI9DataPointSaIS0_EE14_S_do_relocateEPS0_S3_S3_RS1_St17integral_constantIbLb1EE,"axG",@progbits,_ZNSt6vectorI9DataPointSaIS0_EE14_S_do_relocateEPS0_S3_S3_RS1_St17integral_constantIbLb1EE,comdat
	.weak	_ZNSt6vectorI9DataPointSaIS0_EE14_S_do_relocateEPS0_S3_S3_RS1_St17integral_constantIbLb1EE # -- Begin function _ZNSt6vectorI9DataPointSaIS0_EE14_S_do_relocateEPS0_S3_S3_RS1_St17integral_constantIbLb1EE
	.p2align	4, 0x90
	.type	_ZNSt6vectorI9DataPointSaIS0_EE14_S_do_relocateEPS0_S3_S3_RS1_St17integral_constantIbLb1EE,@function
_ZNSt6vectorI9DataPointSaIS0_EE14_S_do_relocateEPS0_S3_S3_RS1_St17integral_constantIbLb1EE: # @_ZNSt6vectorI9DataPointSaIS0_EE14_S_do_relocateEPS0_S3_S3_RS1_St17integral_constantIbLb1EE
	.cfi_startproc
# %bb.0:
	pushq	%rbp
	.cfi_def_cfa_offset 16
	.cfi_offset %rbp, -16
	movq	%rsp, %rbp
	.cfi_def_cfa_register %rbp
	subq	$48, %rsp
	movq	%rdi, -32(%rbp)
	movq	%rsi, -24(%rbp)
	movq	%rdx, -16(%rbp)
	movq	%rcx, -8(%rbp)
	movq	-32(%rbp), %rdi
	movq	-24(%rbp), %rsi
	movq	-16(%rbp), %rdx
	movq	-8(%rbp), %rcx
	callq	_ZSt12__relocate_aIP9DataPointS1_SaIS0_EET0_T_S4_S3_RT1_
	addq	$48, %rsp
	popq	%rbp
	.cfi_def_cfa %rsp, 8
	retq
.Lfunc_end128:
	.size	_ZNSt6vectorI9DataPointSaIS0_EE14_S_do_relocateEPS0_S3_S3_RS1_St17integral_constantIbLb1EE, .Lfunc_end128-_ZNSt6vectorI9DataPointSaIS0_EE14_S_do_relocateEPS0_S3_S3_RS1_St17integral_constantIbLb1EE
	.cfi_endproc
                                        # -- End function
	.section	.text._ZSt12__relocate_aIP9DataPointS1_SaIS0_EET0_T_S4_S3_RT1_,"axG",@progbits,_ZSt12__relocate_aIP9DataPointS1_SaIS0_EET0_T_S4_S3_RT1_,comdat
	.weak	_ZSt12__relocate_aIP9DataPointS1_SaIS0_EET0_T_S4_S3_RT1_ # -- Begin function _ZSt12__relocate_aIP9DataPointS1_SaIS0_EET0_T_S4_S3_RT1_
	.p2align	4, 0x90
	.type	_ZSt12__relocate_aIP9DataPointS1_SaIS0_EET0_T_S4_S3_RT1_,@function
_ZSt12__relocate_aIP9DataPointS1_SaIS0_EET0_T_S4_S3_RT1_: # @_ZSt12__relocate_aIP9DataPointS1_SaIS0_EET0_T_S4_S3_RT1_
	.cfi_startproc
# %bb.0:
	pushq	%rbp
	.cfi_def_cfa_offset 16
	.cfi_offset %rbp, -16
	movq	%rsp, %rbp
	.cfi_def_cfa_register %rbp
	pushq	%r14
	pushq	%rbx
	subq	$32, %rsp
	.cfi_offset %rbx, -32
	.cfi_offset %r14, -24
	movq	%rdi, -48(%rbp)
	movq	%rsi, -40(%rbp)
	movq	%rdx, -32(%rbp)
	movq	%rcx, -24(%rbp)
	movq	-48(%rbp), %rdi
	callq	_ZSt12__niter_baseIP9DataPointET_S2_
	movq	%rax, %r14
	movq	-40(%rbp), %rdi
	callq	_ZSt12__niter_baseIP9DataPointET_S2_
	movq	%rax, %rbx
	movq	-32(%rbp), %rdi
	callq	_ZSt12__niter_baseIP9DataPointET_S2_
	movq	-24(%rbp), %rcx
	movq	%r14, %rdi
	movq	%rbx, %rsi
	movq	%rax, %rdx
	callq	_ZSt14__relocate_a_1IP9DataPointS1_SaIS0_EET0_T_S4_S3_RT1_
	addq	$32, %rsp
	popq	%rbx
	popq	%r14
	popq	%rbp
	.cfi_def_cfa %rsp, 8
	retq
.Lfunc_end129:
	.size	_ZSt12__relocate_aIP9DataPointS1_SaIS0_EET0_T_S4_S3_RT1_, .Lfunc_end129-_ZSt12__relocate_aIP9DataPointS1_SaIS0_EET0_T_S4_S3_RT1_
	.cfi_endproc
                                        # -- End function
	.section	.text._ZSt14__relocate_a_1IP9DataPointS1_SaIS0_EET0_T_S4_S3_RT1_,"axG",@progbits,_ZSt14__relocate_a_1IP9DataPointS1_SaIS0_EET0_T_S4_S3_RT1_,comdat
	.weak	_ZSt14__relocate_a_1IP9DataPointS1_SaIS0_EET0_T_S4_S3_RT1_ # -- Begin function _ZSt14__relocate_a_1IP9DataPointS1_SaIS0_EET0_T_S4_S3_RT1_
	.p2align	4, 0x90
	.type	_ZSt14__relocate_a_1IP9DataPointS1_SaIS0_EET0_T_S4_S3_RT1_,@function
_ZSt14__relocate_a_1IP9DataPointS1_SaIS0_EET0_T_S4_S3_RT1_: # @_ZSt14__relocate_a_1IP9DataPointS1_SaIS0_EET0_T_S4_S3_RT1_
	.cfi_startproc
# %bb.0:
	pushq	%rbp
	.cfi_def_cfa_offset 16
	.cfi_offset %rbp, -16
	movq	%rsp, %rbp
	.cfi_def_cfa_register %rbp
	pushq	%rbx
	subq	$40, %rsp
	.cfi_offset %rbx, -24
	movq	%rdi, -24(%rbp)
	movq	%rsi, -48(%rbp)
	movq	%rdx, -40(%rbp)
	movq	%rcx, -32(%rbp)
	movq	-40(%rbp), %rax
	movq	%rax, -16(%rbp)
.LBB130_1:                              # =>This Inner Loop Header: Depth=1
	movq	-24(%rbp), %rax
	cmpq	-48(%rbp), %rax
	je	.LBB130_4
# %bb.2:                                #   in Loop: Header=BB130_1 Depth=1
	movq	-16(%rbp), %rdi
	callq	_ZSt11__addressofI9DataPointEPT_RS1_
	movq	%rax, %rbx
	movq	-24(%rbp), %rdi
	callq	_ZSt11__addressofI9DataPointEPT_RS1_
	movq	-32(%rbp), %rdx
	movq	%rbx, %rdi
	movq	%rax, %rsi
	callq	_ZSt19__relocate_object_aI9DataPointS0_SaIS0_EEvPT_PT0_RT1_
# %bb.3:                                #   in Loop: Header=BB130_1 Depth=1
	movq	-24(%rbp), %rax
	addq	$56, %rax
	movq	%rax, -24(%rbp)
	movq	-16(%rbp), %rax
	addq	$56, %rax
	movq	%rax, -16(%rbp)
	jmp	.LBB130_1
.LBB130_4:
	movq	-16(%rbp), %rax
	addq	$40, %rsp
	popq	%rbx
	popq	%rbp
	.cfi_def_cfa %rsp, 8
	retq
.Lfunc_end130:
	.size	_ZSt14__relocate_a_1IP9DataPointS1_SaIS0_EET0_T_S4_S3_RT1_, .Lfunc_end130-_ZSt14__relocate_a_1IP9DataPointS1_SaIS0_EET0_T_S4_S3_RT1_
	.cfi_endproc
                                        # -- End function
	.section	.text._ZSt12__niter_baseIP9DataPointET_S2_,"axG",@progbits,_ZSt12__niter_baseIP9DataPointET_S2_,comdat
	.weak	_ZSt12__niter_baseIP9DataPointET_S2_ # -- Begin function _ZSt12__niter_baseIP9DataPointET_S2_
	.p2align	4, 0x90
	.type	_ZSt12__niter_baseIP9DataPointET_S2_,@function
_ZSt12__niter_baseIP9DataPointET_S2_:   # @_ZSt12__niter_baseIP9DataPointET_S2_
	.cfi_startproc
# %bb.0:
	pushq	%rbp
	.cfi_def_cfa_offset 16
	.cfi_offset %rbp, -16
	movq	%rsp, %rbp
	.cfi_def_cfa_register %rbp
	movq	%rdi, -8(%rbp)
	movq	-8(%rbp), %rax
	popq	%rbp
	.cfi_def_cfa %rsp, 8
	retq
.Lfunc_end131:
	.size	_ZSt12__niter_baseIP9DataPointET_S2_, .Lfunc_end131-_ZSt12__niter_baseIP9DataPointET_S2_
	.cfi_endproc
                                        # -- End function
	.section	.text._ZSt19__relocate_object_aI9DataPointS0_SaIS0_EEvPT_PT0_RT1_,"axG",@progbits,_ZSt19__relocate_object_aI9DataPointS0_SaIS0_EEvPT_PT0_RT1_,comdat
	.weak	_ZSt19__relocate_object_aI9DataPointS0_SaIS0_EEvPT_PT0_RT1_ # -- Begin function _ZSt19__relocate_object_aI9DataPointS0_SaIS0_EEvPT_PT0_RT1_
	.p2align	4, 0x90
	.type	_ZSt19__relocate_object_aI9DataPointS0_SaIS0_EEvPT_PT0_RT1_,@function
_ZSt19__relocate_object_aI9DataPointS0_SaIS0_EEvPT_PT0_RT1_: # @_ZSt19__relocate_object_aI9DataPointS0_SaIS0_EEvPT_PT0_RT1_
	.cfi_startproc
# %bb.0:
	pushq	%rbp
	.cfi_def_cfa_offset 16
	.cfi_offset %rbp, -16
	movq	%rsp, %rbp
	.cfi_def_cfa_register %rbp
	pushq	%r14
	pushq	%rbx
	subq	$32, %rsp
	.cfi_offset %rbx, -32
	.cfi_offset %r14, -24
	movq	%rdi, -40(%rbp)
	movq	%rsi, -32(%rbp)
	movq	%rdx, -24(%rbp)
	movq	-24(%rbp), %rbx
	movq	-40(%rbp), %r14
	movq	-32(%rbp), %rdi
	callq	_ZSt4moveIR9DataPointEONSt16remove_referenceIT_E4typeEOS3_
	movq	%rbx, %rdi
	movq	%r14, %rsi
	movq	%rax, %rdx
	callq	_ZNSt16allocator_traitsISaI9DataPointEE9constructIS0_JS0_EEEvRS1_PT_DpOT0_
	movq	-24(%rbp), %rbx
	movq	-32(%rbp), %rdi
	callq	_ZSt11__addressofI9DataPointEPT_RS1_
	movq	%rbx, %rdi
	movq	%rax, %rsi
	callq	_ZNSt16allocator_traitsISaI9DataPointEE7destroyIS0_EEvRS1_PT_
	addq	$32, %rsp
	popq	%rbx
	popq	%r14
	popq	%rbp
	.cfi_def_cfa %rsp, 8
	retq
.Lfunc_end132:
	.size	_ZSt19__relocate_object_aI9DataPointS0_SaIS0_EEvPT_PT0_RT1_, .Lfunc_end132-_ZSt19__relocate_object_aI9DataPointS0_SaIS0_EEvPT_PT0_RT1_
	.cfi_endproc
                                        # -- End function
	.section	.text._ZNSt16allocator_traitsISaI9DataPointEE9constructIS0_JS0_EEEvRS1_PT_DpOT0_,"axG",@progbits,_ZNSt16allocator_traitsISaI9DataPointEE9constructIS0_JS0_EEEvRS1_PT_DpOT0_,comdat
	.weak	_ZNSt16allocator_traitsISaI9DataPointEE9constructIS0_JS0_EEEvRS1_PT_DpOT0_ # -- Begin function _ZNSt16allocator_traitsISaI9DataPointEE9constructIS0_JS0_EEEvRS1_PT_DpOT0_
	.p2align	4, 0x90
	.type	_ZNSt16allocator_traitsISaI9DataPointEE9constructIS0_JS0_EEEvRS1_PT_DpOT0_,@function
_ZNSt16allocator_traitsISaI9DataPointEE9constructIS0_JS0_EEEvRS1_PT_DpOT0_: # @_ZNSt16allocator_traitsISaI9DataPointEE9constructIS0_JS0_EEEvRS1_PT_DpOT0_
	.cfi_startproc
# %bb.0:
	pushq	%rbp
	.cfi_def_cfa_offset 16
	.cfi_offset %rbp, -16
	movq	%rsp, %rbp
	.cfi_def_cfa_register %rbp
	pushq	%r14
	pushq	%rbx
	subq	$32, %rsp
	.cfi_offset %rbx, -32
	.cfi_offset %r14, -24
	movq	%rdi, -40(%rbp)
	movq	%rsi, -32(%rbp)
	movq	%rdx, -24(%rbp)
	movq	-40(%rbp), %r14
	movq	-32(%rbp), %rbx
	movq	-24(%rbp), %rdi
	callq	_ZSt7forwardI9DataPointEOT_RNSt16remove_referenceIS1_E4typeE
	movq	%r14, %rdi
	movq	%rbx, %rsi
	movq	%rax, %rdx
	callq	_ZN9__gnu_cxx13new_allocatorI9DataPointE9constructIS1_JS1_EEEvPT_DpOT0_
	addq	$32, %rsp
	popq	%rbx
	popq	%r14
	popq	%rbp
	.cfi_def_cfa %rsp, 8
	retq
.Lfunc_end133:
	.size	_ZNSt16allocator_traitsISaI9DataPointEE9constructIS0_JS0_EEEvRS1_PT_DpOT0_, .Lfunc_end133-_ZNSt16allocator_traitsISaI9DataPointEE9constructIS0_JS0_EEEvRS1_PT_DpOT0_
	.cfi_endproc
                                        # -- End function
	.section	.text._ZSt4moveIR9DataPointEONSt16remove_referenceIT_E4typeEOS3_,"axG",@progbits,_ZSt4moveIR9DataPointEONSt16remove_referenceIT_E4typeEOS3_,comdat
	.weak	_ZSt4moveIR9DataPointEONSt16remove_referenceIT_E4typeEOS3_ # -- Begin function _ZSt4moveIR9DataPointEONSt16remove_referenceIT_E4typeEOS3_
	.p2align	4, 0x90
	.type	_ZSt4moveIR9DataPointEONSt16remove_referenceIT_E4typeEOS3_,@function
_ZSt4moveIR9DataPointEONSt16remove_referenceIT_E4typeEOS3_: # @_ZSt4moveIR9DataPointEONSt16remove_referenceIT_E4typeEOS3_
	.cfi_startproc
# %bb.0:
	pushq	%rbp
	.cfi_def_cfa_offset 16
	.cfi_offset %rbp, -16
	movq	%rsp, %rbp
	.cfi_def_cfa_register %rbp
	movq	%rdi, -8(%rbp)
	movq	-8(%rbp), %rax
	popq	%rbp
	.cfi_def_cfa %rsp, 8
	retq
.Lfunc_end134:
	.size	_ZSt4moveIR9DataPointEONSt16remove_referenceIT_E4typeEOS3_, .Lfunc_end134-_ZSt4moveIR9DataPointEONSt16remove_referenceIT_E4typeEOS3_
	.cfi_endproc
                                        # -- End function
	.section	.text._ZN9__gnu_cxx13new_allocatorI9DataPointE9constructIS1_JS1_EEEvPT_DpOT0_,"axG",@progbits,_ZN9__gnu_cxx13new_allocatorI9DataPointE9constructIS1_JS1_EEEvPT_DpOT0_,comdat
	.weak	_ZN9__gnu_cxx13new_allocatorI9DataPointE9constructIS1_JS1_EEEvPT_DpOT0_ # -- Begin function _ZN9__gnu_cxx13new_allocatorI9DataPointE9constructIS1_JS1_EEEvPT_DpOT0_
	.p2align	4, 0x90
	.type	_ZN9__gnu_cxx13new_allocatorI9DataPointE9constructIS1_JS1_EEEvPT_DpOT0_,@function
_ZN9__gnu_cxx13new_allocatorI9DataPointE9constructIS1_JS1_EEEvPT_DpOT0_: # @_ZN9__gnu_cxx13new_allocatorI9DataPointE9constructIS1_JS1_EEEvPT_DpOT0_
	.cfi_startproc
# %bb.0:
	pushq	%rbp
	.cfi_def_cfa_offset 16
	.cfi_offset %rbp, -16
	movq	%rsp, %rbp
	.cfi_def_cfa_register %rbp
	pushq	%rbx
	subq	$24, %rsp
	.cfi_offset %rbx, -24
	movq	%rdi, -32(%rbp)
	movq	%rsi, -24(%rbp)
	movq	%rdx, -16(%rbp)
	movq	-24(%rbp), %rbx
	movq	-16(%rbp), %rdi
	callq	_ZSt7forwardI9DataPointEOT_RNSt16remove_referenceIS1_E4typeE
	movq	%rbx, %rdi
	movq	%rax, %rsi
	callq	_ZN9DataPointC2EOS_
	addq	$24, %rsp
	popq	%rbx
	popq	%rbp
	.cfi_def_cfa %rsp, 8
	retq
.Lfunc_end135:
	.size	_ZN9__gnu_cxx13new_allocatorI9DataPointE9constructIS1_JS1_EEEvPT_DpOT0_, .Lfunc_end135-_ZN9__gnu_cxx13new_allocatorI9DataPointE9constructIS1_JS1_EEEvPT_DpOT0_
	.cfi_endproc
                                        # -- End function
	.section	.text._ZSt7forwardI9DataPointEOT_RNSt16remove_referenceIS1_E4typeE,"axG",@progbits,_ZSt7forwardI9DataPointEOT_RNSt16remove_referenceIS1_E4typeE,comdat
	.weak	_ZSt7forwardI9DataPointEOT_RNSt16remove_referenceIS1_E4typeE # -- Begin function _ZSt7forwardI9DataPointEOT_RNSt16remove_referenceIS1_E4typeE
	.p2align	4, 0x90
	.type	_ZSt7forwardI9DataPointEOT_RNSt16remove_referenceIS1_E4typeE,@function
_ZSt7forwardI9DataPointEOT_RNSt16remove_referenceIS1_E4typeE: # @_ZSt7forwardI9DataPointEOT_RNSt16remove_referenceIS1_E4typeE
	.cfi_startproc
# %bb.0:
	pushq	%rbp
	.cfi_def_cfa_offset 16
	.cfi_offset %rbp, -16
	movq	%rsp, %rbp
	.cfi_def_cfa_register %rbp
	movq	%rdi, -8(%rbp)
	movq	-8(%rbp), %rax
	popq	%rbp
	.cfi_def_cfa %rsp, 8
	retq
.Lfunc_end136:
	.size	_ZSt7forwardI9DataPointEOT_RNSt16remove_referenceIS1_E4typeE, .Lfunc_end136-_ZSt7forwardI9DataPointEOT_RNSt16remove_referenceIS1_E4typeE
	.cfi_endproc
                                        # -- End function
	.section	.text._ZN9DataPointC2EOS_,"axG",@progbits,_ZN9DataPointC2EOS_,comdat
	.weak	_ZN9DataPointC2EOS_             # -- Begin function _ZN9DataPointC2EOS_
	.p2align	4, 0x90
	.type	_ZN9DataPointC2EOS_,@function
_ZN9DataPointC2EOS_:                    # @_ZN9DataPointC2EOS_
	.cfi_startproc
# %bb.0:
	pushq	%rbp
	.cfi_def_cfa_offset 16
	.cfi_offset %rbp, -16
	movq	%rsp, %rbp
	.cfi_def_cfa_register %rbp
	pushq	%rbx
	subq	$24, %rsp
	.cfi_offset %rbx, -24
	movq	%rdi, -24(%rbp)
	movq	%rsi, -16(%rbp)
	movq	-24(%rbp), %rbx
	movq	-16(%rbp), %rsi
	movq	%rbx, %rdi
	callq	_ZNSt6vectorINSt7__cxx1112basic_stringIcSt11char_traitsIcESaIcEEESaIS5_EEC2EOS7_
	addq	$24, %rbx
	movq	-16(%rbp), %rsi
	addq	$24, %rsi
	movq	%rbx, %rdi
	callq	_ZNSt7__cxx1112basic_stringIcSt11char_traitsIcESaIcEEC1EOS4_@PLT
	addq	$24, %rsp
	popq	%rbx
	popq	%rbp
	.cfi_def_cfa %rsp, 8
	retq
.Lfunc_end137:
	.size	_ZN9DataPointC2EOS_, .Lfunc_end137-_ZN9DataPointC2EOS_
	.cfi_endproc
                                        # -- End function
	.section	.text._ZNSt6vectorINSt7__cxx1112basic_stringIcSt11char_traitsIcESaIcEEESaIS5_EEC2EOS7_,"axG",@progbits,_ZNSt6vectorINSt7__cxx1112basic_stringIcSt11char_traitsIcESaIcEEESaIS5_EEC2EOS7_,comdat
	.weak	_ZNSt6vectorINSt7__cxx1112basic_stringIcSt11char_traitsIcESaIcEEESaIS5_EEC2EOS7_ # -- Begin function _ZNSt6vectorINSt7__cxx1112basic_stringIcSt11char_traitsIcESaIcEEESaIS5_EEC2EOS7_
	.p2align	4, 0x90
	.type	_ZNSt6vectorINSt7__cxx1112basic_stringIcSt11char_traitsIcESaIcEEESaIS5_EEC2EOS7_,@function
_ZNSt6vectorINSt7__cxx1112basic_stringIcSt11char_traitsIcESaIcEEESaIS5_EEC2EOS7_: # @_ZNSt6vectorINSt7__cxx1112basic_stringIcSt11char_traitsIcESaIcEEESaIS5_EEC2EOS7_
	.cfi_startproc
# %bb.0:
	pushq	%rbp
	.cfi_def_cfa_offset 16
	.cfi_offset %rbp, -16
	movq	%rsp, %rbp
	.cfi_def_cfa_register %rbp
	subq	$16, %rsp
	movq	%rdi, -16(%rbp)
	movq	%rsi, -8(%rbp)
	movq	-16(%rbp), %rdi
	movq	-8(%rbp), %rsi
	callq	_ZNSt12_Vector_baseINSt7__cxx1112basic_stringIcSt11char_traitsIcESaIcEEESaIS5_EEC2EOS7_
	addq	$16, %rsp
	popq	%rbp
	.cfi_def_cfa %rsp, 8
	retq
.Lfunc_end138:
	.size	_ZNSt6vectorINSt7__cxx1112basic_stringIcSt11char_traitsIcESaIcEEESaIS5_EEC2EOS7_, .Lfunc_end138-_ZNSt6vectorINSt7__cxx1112basic_stringIcSt11char_traitsIcESaIcEEESaIS5_EEC2EOS7_
	.cfi_endproc
                                        # -- End function
	.section	.text._ZNSt12_Vector_baseINSt7__cxx1112basic_stringIcSt11char_traitsIcESaIcEEESaIS5_EEC2EOS7_,"axG",@progbits,_ZNSt12_Vector_baseINSt7__cxx1112basic_stringIcSt11char_traitsIcESaIcEEESaIS5_EEC2EOS7_,comdat
	.weak	_ZNSt12_Vector_baseINSt7__cxx1112basic_stringIcSt11char_traitsIcESaIcEEESaIS5_EEC2EOS7_ # -- Begin function _ZNSt12_Vector_baseINSt7__cxx1112basic_stringIcSt11char_traitsIcESaIcEEESaIS5_EEC2EOS7_
	.p2align	4, 0x90
	.type	_ZNSt12_Vector_baseINSt7__cxx1112basic_stringIcSt11char_traitsIcESaIcEEESaIS5_EEC2EOS7_,@function
_ZNSt12_Vector_baseINSt7__cxx1112basic_stringIcSt11char_traitsIcESaIcEEESaIS5_EEC2EOS7_: # @_ZNSt12_Vector_baseINSt7__cxx1112basic_stringIcSt11char_traitsIcESaIcEEESaIS5_EEC2EOS7_
	.cfi_startproc
# %bb.0:
	pushq	%rbp
	.cfi_def_cfa_offset 16
	.cfi_offset %rbp, -16
	movq	%rsp, %rbp
	.cfi_def_cfa_register %rbp
	subq	$16, %rsp
	movq	%rdi, -16(%rbp)
	movq	%rsi, -8(%rbp)
	movq	-16(%rbp), %rdi
	movq	-8(%rbp), %rsi
	callq	_ZNSt12_Vector_baseINSt7__cxx1112basic_stringIcSt11char_traitsIcESaIcEEESaIS5_EE12_Vector_implC2EOS8_
	addq	$16, %rsp
	popq	%rbp
	.cfi_def_cfa %rsp, 8
	retq
.Lfunc_end139:
	.size	_ZNSt12_Vector_baseINSt7__cxx1112basic_stringIcSt11char_traitsIcESaIcEEESaIS5_EEC2EOS7_, .Lfunc_end139-_ZNSt12_Vector_baseINSt7__cxx1112basic_stringIcSt11char_traitsIcESaIcEEESaIS5_EEC2EOS7_
	.cfi_endproc
                                        # -- End function
	.section	.text._ZNSt12_Vector_baseINSt7__cxx1112basic_stringIcSt11char_traitsIcESaIcEEESaIS5_EE12_Vector_implC2EOS8_,"axG",@progbits,_ZNSt12_Vector_baseINSt7__cxx1112basic_stringIcSt11char_traitsIcESaIcEEESaIS5_EE12_Vector_implC2EOS8_,comdat
	.weak	_ZNSt12_Vector_baseINSt7__cxx1112basic_stringIcSt11char_traitsIcESaIcEEESaIS5_EE12_Vector_implC2EOS8_ # -- Begin function _ZNSt12_Vector_baseINSt7__cxx1112basic_stringIcSt11char_traitsIcESaIcEEESaIS5_EE12_Vector_implC2EOS8_
	.p2align	4, 0x90
	.type	_ZNSt12_Vector_baseINSt7__cxx1112basic_stringIcSt11char_traitsIcESaIcEEESaIS5_EE12_Vector_implC2EOS8_,@function
_ZNSt12_Vector_baseINSt7__cxx1112basic_stringIcSt11char_traitsIcESaIcEEESaIS5_EE12_Vector_implC2EOS8_: # @_ZNSt12_Vector_baseINSt7__cxx1112basic_stringIcSt11char_traitsIcESaIcEEESaIS5_EE12_Vector_implC2EOS8_
	.cfi_startproc
# %bb.0:
	pushq	%rbp
	.cfi_def_cfa_offset 16
	.cfi_offset %rbp, -16
	movq	%rsp, %rbp
	.cfi_def_cfa_register %rbp
	pushq	%rbx
	subq	$24, %rsp
	.cfi_offset %rbx, -24
	movq	%rdi, -24(%rbp)
	movq	%rsi, -16(%rbp)
	movq	-24(%rbp), %rbx
	movq	-16(%rbp), %rdi
	callq	_ZSt4moveIRNSt12_Vector_baseINSt7__cxx1112basic_stringIcSt11char_traitsIcESaIcEEESaIS6_EE12_Vector_implEEONSt16remove_referenceIT_E4typeEOSC_
	movq	%rbx, %rdi
	movq	%rax, %rsi
	callq	_ZNSaINSt7__cxx1112basic_stringIcSt11char_traitsIcESaIcEEEEC2ERKS5_
	movq	-16(%rbp), %rdi
	callq	_ZSt4moveIRNSt12_Vector_baseINSt7__cxx1112basic_stringIcSt11char_traitsIcESaIcEEESaIS6_EE12_Vector_implEEONSt16remove_referenceIT_E4typeEOSC_
	movq	%rbx, %rdi
	movq	%rax, %rsi
	callq	_ZNSt12_Vector_baseINSt7__cxx1112basic_stringIcSt11char_traitsIcESaIcEEESaIS5_EE17_Vector_impl_dataC2EOS8_
	addq	$24, %rsp
	popq	%rbx
	popq	%rbp
	.cfi_def_cfa %rsp, 8
	retq
.Lfunc_end140:
	.size	_ZNSt12_Vector_baseINSt7__cxx1112basic_stringIcSt11char_traitsIcESaIcEEESaIS5_EE12_Vector_implC2EOS8_, .Lfunc_end140-_ZNSt12_Vector_baseINSt7__cxx1112basic_stringIcSt11char_traitsIcESaIcEEESaIS5_EE12_Vector_implC2EOS8_
	.cfi_endproc
                                        # -- End function
	.section	.text._ZSt4moveIRNSt12_Vector_baseINSt7__cxx1112basic_stringIcSt11char_traitsIcESaIcEEESaIS6_EE12_Vector_implEEONSt16remove_referenceIT_E4typeEOSC_,"axG",@progbits,_ZSt4moveIRNSt12_Vector_baseINSt7__cxx1112basic_stringIcSt11char_traitsIcESaIcEEESaIS6_EE12_Vector_implEEONSt16remove_referenceIT_E4typeEOSC_,comdat
	.weak	_ZSt4moveIRNSt12_Vector_baseINSt7__cxx1112basic_stringIcSt11char_traitsIcESaIcEEESaIS6_EE12_Vector_implEEONSt16remove_referenceIT_E4typeEOSC_ # -- Begin function _ZSt4moveIRNSt12_Vector_baseINSt7__cxx1112basic_stringIcSt11char_traitsIcESaIcEEESaIS6_EE12_Vector_implEEONSt16remove_referenceIT_E4typeEOSC_
	.p2align	4, 0x90
	.type	_ZSt4moveIRNSt12_Vector_baseINSt7__cxx1112basic_stringIcSt11char_traitsIcESaIcEEESaIS6_EE12_Vector_implEEONSt16remove_referenceIT_E4typeEOSC_,@function
_ZSt4moveIRNSt12_Vector_baseINSt7__cxx1112basic_stringIcSt11char_traitsIcESaIcEEESaIS6_EE12_Vector_implEEONSt16remove_referenceIT_E4typeEOSC_: # @_ZSt4moveIRNSt12_Vector_baseINSt7__cxx1112basic_stringIcSt11char_traitsIcESaIcEEESaIS6_EE12_Vector_implEEONSt16remove_referenceIT_E4typeEOSC_
	.cfi_startproc
# %bb.0:
	pushq	%rbp
	.cfi_def_cfa_offset 16
	.cfi_offset %rbp, -16
	movq	%rsp, %rbp
	.cfi_def_cfa_register %rbp
	movq	%rdi, -8(%rbp)
	movq	-8(%rbp), %rax
	popq	%rbp
	.cfi_def_cfa %rsp, 8
	retq
.Lfunc_end141:
	.size	_ZSt4moveIRNSt12_Vector_baseINSt7__cxx1112basic_stringIcSt11char_traitsIcESaIcEEESaIS6_EE12_Vector_implEEONSt16remove_referenceIT_E4typeEOSC_, .Lfunc_end141-_ZSt4moveIRNSt12_Vector_baseINSt7__cxx1112basic_stringIcSt11char_traitsIcESaIcEEESaIS6_EE12_Vector_implEEONSt16remove_referenceIT_E4typeEOSC_
	.cfi_endproc
                                        # -- End function
	.section	.text._ZNSt12_Vector_baseINSt7__cxx1112basic_stringIcSt11char_traitsIcESaIcEEESaIS5_EE17_Vector_impl_dataC2EOS8_,"axG",@progbits,_ZNSt12_Vector_baseINSt7__cxx1112basic_stringIcSt11char_traitsIcESaIcEEESaIS5_EE17_Vector_impl_dataC2EOS8_,comdat
	.weak	_ZNSt12_Vector_baseINSt7__cxx1112basic_stringIcSt11char_traitsIcESaIcEEESaIS5_EE17_Vector_impl_dataC2EOS8_ # -- Begin function _ZNSt12_Vector_baseINSt7__cxx1112basic_stringIcSt11char_traitsIcESaIcEEESaIS5_EE17_Vector_impl_dataC2EOS8_
	.p2align	4, 0x90
	.type	_ZNSt12_Vector_baseINSt7__cxx1112basic_stringIcSt11char_traitsIcESaIcEEESaIS5_EE17_Vector_impl_dataC2EOS8_,@function
_ZNSt12_Vector_baseINSt7__cxx1112basic_stringIcSt11char_traitsIcESaIcEEESaIS5_EE17_Vector_impl_dataC2EOS8_: # @_ZNSt12_Vector_baseINSt7__cxx1112basic_stringIcSt11char_traitsIcESaIcEEESaIS5_EE17_Vector_impl_dataC2EOS8_
	.cfi_startproc
# %bb.0:
	pushq	%rbp
	.cfi_def_cfa_offset 16
	.cfi_offset %rbp, -16
	movq	%rsp, %rbp
	.cfi_def_cfa_register %rbp
	movq	%rdi, -16(%rbp)
	movq	%rsi, -8(%rbp)
	movq	-16(%rbp), %rax
	movq	-8(%rbp), %rcx
	movq	(%rcx), %rcx
	movq	%rcx, (%rax)
	movq	-8(%rbp), %rcx
	movq	8(%rcx), %rcx
	movq	%rcx, 8(%rax)
	movq	-8(%rbp), %rcx
	movq	16(%rcx), %rcx
	movq	%rcx, 16(%rax)
	movq	-8(%rbp), %rax
	movq	$0, 16(%rax)
	movq	-8(%rbp), %rax
	movq	$0, 8(%rax)
	movq	-8(%rbp), %rax
	movq	$0, (%rax)
	popq	%rbp
	.cfi_def_cfa %rsp, 8
	retq
.Lfunc_end142:
	.size	_ZNSt12_Vector_baseINSt7__cxx1112basic_stringIcSt11char_traitsIcESaIcEEESaIS5_EE17_Vector_impl_dataC2EOS8_, .Lfunc_end142-_ZNSt12_Vector_baseINSt7__cxx1112basic_stringIcSt11char_traitsIcESaIcEEESaIS5_EE17_Vector_impl_dataC2EOS8_
	.cfi_endproc
                                        # -- End function
	.section	.text._ZN9__gnu_cxx13new_allocatorI9DataPointE7destroyIS1_EEvPT_,"axG",@progbits,_ZN9__gnu_cxx13new_allocatorI9DataPointE7destroyIS1_EEvPT_,comdat
	.weak	_ZN9__gnu_cxx13new_allocatorI9DataPointE7destroyIS1_EEvPT_ # -- Begin function _ZN9__gnu_cxx13new_allocatorI9DataPointE7destroyIS1_EEvPT_
	.p2align	4, 0x90
	.type	_ZN9__gnu_cxx13new_allocatorI9DataPointE7destroyIS1_EEvPT_,@function
_ZN9__gnu_cxx13new_allocatorI9DataPointE7destroyIS1_EEvPT_: # @_ZN9__gnu_cxx13new_allocatorI9DataPointE7destroyIS1_EEvPT_
	.cfi_startproc
# %bb.0:
	pushq	%rbp
	.cfi_def_cfa_offset 16
	.cfi_offset %rbp, -16
	movq	%rsp, %rbp
	.cfi_def_cfa_register %rbp
	subq	$16, %rsp
	movq	%rdi, -16(%rbp)
	movq	%rsi, -8(%rbp)
	movq	-8(%rbp), %rdi
	callq	_ZN9DataPointD2Ev
	addq	$16, %rsp
	popq	%rbp
	.cfi_def_cfa %rsp, 8
	retq
.Lfunc_end143:
