	.text
	.file	"source.cpp"
	.section	.text.startup,"ax",@progbits
	.p2align	4, 0x90                         # -- Begin function __cxx_global_var_init
	.type	__cxx_global_var_init,@function
__cxx_global_var_init:                  # @__cxx_global_var_init
	.cfi_startproc
# %bb.0:
	pushq	%rbp
	.cfi_def_cfa_offset 16
	.cfi_offset %rbp, -16
	movq	%rsp, %rbp
	.cfi_def_cfa_register %rbp
	movl	$_ZStL8__ioinit, %edi
	callq	_ZNSt8ios_base4InitC1Ev@PLT
	movq	_ZNSt8ios_base4InitD1Ev@GOTPCREL(%rip), %rdi
	movl	$_ZStL8__ioinit, %esi
	movl	$__dso_handle, %edx
	callq	__cxa_atexit@PLT
	popq	%rbp
	.cfi_def_cfa %rsp, 8
	retq
.Lfunc_end0:
	.size	__cxx_global_var_init, .Lfunc_end0-__cxx_global_var_init
	.cfi_endproc
                                        # -- End function
	.section	.rodata.cst8,"aM",@progbits,8
	.p2align	3                               # -- Begin function main
.LCPI1_0:
	.quad	0x3ff0000000000000              # double 1
	.text
	.globl	main
	.p2align	4, 0x90
	.type	main,@function
main:                                   # @main
.Lfunc_begin0:
	.cfi_startproc
	.cfi_personality 3, __gxx_personality_v0
	.cfi_lsda 3, .Lexception0
# %bb.0:
	pushq	%rbp
	.cfi_def_cfa_offset 16
	.cfi_offset %rbp, -16
	movq	%rsp, %rbp
	.cfi_def_cfa_register %rbp
	pushq	%r15
	pushq	%r14
	pushq	%rbx
	subq	$696, %rsp                      # imm = 0x2B8
	.cfi_offset %rbx, -40
	.cfi_offset %r14, -32
	.cfi_offset %r15, -24
	movl	$0, -100(%rbp)
	leaq	-712(%rbp), %rdi
	movsd	.LCPI1_0(%rip), %xmm0           # xmm0 = mem[0],zero
	xorps	%xmm1, %xmm1
	movaps	%xmm0, %xmm2
	callq	_ZN3SVMC2Eddd
	leaq	-568(%rbp), %r14
	movb	$1, -85(%rbp)
	movq	%r14, -112(%rbp)
	movabsq	$4607182418800017408, %rax      # imm = 0x3FF0000000000000
	movq	%rax, -328(%rbp)
	movabsq	$4607632778762754458, %rax      # imm = 0x3FF199999999999A
	movq	%rax, -320(%rbp)
	leaq	-328(%rbp), %rax
	movq	%rax, -232(%rbp)
	movq	$2, -224(%rbp)
	leaq	-80(%rbp), %rbx
	movq	%rbx, %rdi
	callq	_ZNSaIdEC2Ev
	movq	-232(%rbp), %rsi
	movq	-224(%rbp), %rdx
.Ltmp0:
	movq	%r14, %rdi
	movq	%rbx, %rcx
	callq	_ZNSt6vectorIdSaIdEEC2ESt16initializer_listIdERKS0_
.Ltmp1:
	jmp	.LBB1_1
.LBB1_1:
	movq	%r14, %rbx
	addq	$24, %rbx
	movq	%rbx, -112(%rbp)
	movabsq	$4611686018427387904, %rax      # imm = 0x4000000000000000
	movq	%rax, -312(%rbp)
	movabsq	$4607182418800017408, %rax      # imm = 0x3FF0000000000000
	movq	%rax, -304(%rbp)
	leaq	-312(%rbp), %rax
	movq	%rax, -216(%rbp)
	movq	$2, -208(%rbp)
	leaq	-72(%rbp), %r15
	movq	%r15, %rdi
	callq	_ZNSaIdEC2Ev
	movq	-216(%rbp), %rsi
	movq	-208(%rbp), %rdx
.Ltmp3:
	movq	%rbx, %rdi
	movq	%r15, %rcx
	callq	_ZNSt6vectorIdSaIdEEC2ESt16initializer_listIdERKS0_
.Ltmp4:
	jmp	.LBB1_2
.LBB1_2:
	addq	$24, %rbx
	movq	%rbx, -112(%rbp)
	movabsq	$4608533498688228557, %rax      # imm = 0x3FF4CCCCCCCCCCCD
	movq	%rax, -296(%rbp)
	movabsq	$4609434218613702656, %rax      # imm = 0x3FF8000000000000
	movq	%rax, -288(%rbp)
	leaq	-296(%rbp), %rax
	movq	%rax, -200(%rbp)
	movq	$2, -192(%rbp)
	leaq	-64(%rbp), %r15
	movq	%r15, %rdi
	callq	_ZNSaIdEC2Ev
	movq	-200(%rbp), %rsi
	movq	-192(%rbp), %rdx
.Ltmp6:
	movq	%rbx, %rdi
	movq	%r15, %rcx
	callq	_ZNSt6vectorIdSaIdEEC2ESt16initializer_listIdERKS0_
.Ltmp7:
	jmp	.LBB1_3
.LBB1_3:
	addq	$24, %rbx
	movq	%rbx, -112(%rbp)
	movabsq	$4608083138725491507, %rax      # imm = 0x3FF3333333333333
	movq	%rax, -280(%rbp)
	movabsq	$4607182418800017408, %rax      # imm = 0x3FF0000000000000
	movq	%rax, -272(%rbp)
	leaq	-280(%rbp), %rax
	movq	%rax, -184(%rbp)
	movq	$2, -176(%rbp)
	leaq	-56(%rbp), %r15
	movq	%r15, %rdi
	callq	_ZNSaIdEC2Ev
	movq	-184(%rbp), %rsi
	movq	-176(%rbp), %rdx
.Ltmp9:
	movq	%rbx, %rdi
	movq	%r15, %rcx
	callq	_ZNSt6vectorIdSaIdEEC2ESt16initializer_listIdERKS0_
.Ltmp10:
	jmp	.LBB1_4
.LBB1_4:
	movb	$0, -85(%rbp)
	leaq	-568(%rbp), %rax
	movq	%rax, -248(%rbp)
	movq	$4, -240(%rbp)
	leaq	-48(%rbp), %rbx
	movq	%rbx, %rdi
	callq	_ZNSaISt6vectorIdSaIdEEEC2Ev
	movq	-248(%rbp), %rsi
	movq	-240(%rbp), %rdx
.Ltmp12:
	leaq	-472(%rbp), %rdi
	movq	%rbx, %rcx
	callq	_ZNSt6vectorIS_IdSaIdEESaIS1_EEC2ESt16initializer_listIS1_ERKS2_
.Ltmp13:
	jmp	.LBB1_5
.LBB1_5:
	leaq	-48(%rbp), %rdi
	callq	_ZNSaISt6vectorIdSaIdEEED2Ev
	leaq	-568(%rbp), %r14
	movq	%r14, %rbx
	addq	$96, %rbx
.LBB1_6:                                # =>This Inner Loop Header: Depth=1
	addq	$-24, %rbx
	movq	%rbx, %rdi
	callq	_ZNSt6vectorIdSaIdEED2Ev
	cmpq	%r14, %rbx
	jne	.LBB1_6
# %bb.7:
	leaq	-56(%rbp), %rdi
	callq	_ZNSaIdED2Ev
	leaq	-64(%rbp), %rdi
	callq	_ZNSaIdED2Ev
	leaq	-72(%rbp), %rdi
	callq	_ZNSaIdED2Ev
	leaq	-80(%rbp), %rdi
	callq	_ZNSaIdED2Ev
	movl	$1, -132(%rbp)
	movl	$1, -128(%rbp)
	movl	$-1, -124(%rbp)
	movl	$-1, -120(%rbp)
	leaq	-132(%rbp), %rax
	movq	%rax, -168(%rbp)
	movq	$4, -160(%rbp)
	leaq	-40(%rbp), %rbx
	movq	%rbx, %rdi
	callq	_ZNSaIiEC2Ev
	movq	-168(%rbp), %rsi
	movq	-160(%rbp), %rdx
.Ltmp15:
	leaq	-448(%rbp), %rdi
	movq	%rbx, %rcx
	callq	_ZNSt6vectorIiSaIiEEC2ESt16initializer_listIiERKS0_
.Ltmp16:
	jmp	.LBB1_8
.LBB1_8:
	leaq	-40(%rbp), %rdi
	callq	_ZNSaIiED2Ev
.Ltmp18:
	leaq	-424(%rbp), %rdi
	leaq	-472(%rbp), %rsi
	callq	_ZNSt6vectorIS_IdSaIdEESaIS1_EEC2ERKS3_
.Ltmp19:
	jmp	.LBB1_9
.LBB1_9:
.Ltmp21:
	leaq	-400(%rbp), %rdi
	leaq	-448(%rbp), %rsi
	callq	_ZNSt6vectorIiSaIiEEC2ERKS1_
.Ltmp22:
	jmp	.LBB1_10
.LBB1_10:
.Ltmp24:
	leaq	-712(%rbp), %rdi
	leaq	-424(%rbp), %rsi
	leaq	-400(%rbp), %rdx
	callq	_ZN3SVM3fitESt6vectorIS0_IdSaIdEESaIS2_EES0_IiSaIiEE
.Ltmp25:
	jmp	.LBB1_11
.LBB1_11:
	leaq	-400(%rbp), %rdi
	callq	_ZNSt6vectorIiSaIiEED2Ev
	leaq	-424(%rbp), %rdi
	callq	_ZNSt6vectorIS_IdSaIdEESaIS1_EED2Ev
	movabsq	$4608533498688228557, %rax      # imm = 0x3FF4CCCCCCCCCCCD
	movq	%rax, -264(%rbp)
	movabsq	$4608083138725491507, %rax      # imm = 0x3FF3333333333333
	movq	%rax, -256(%rbp)
	leaq	-264(%rbp), %rax
	movq	%rax, -152(%rbp)
	movq	$2, -144(%rbp)
	leaq	-32(%rbp), %rbx
	movq	%rbx, %rdi
	callq	_ZNSaIdEC2Ev
	movq	-152(%rbp), %rsi
	movq	-144(%rbp), %rdx
.Ltmp27:
	leaq	-376(%rbp), %rdi
	movq	%rbx, %rcx
	callq	_ZNSt6vectorIdSaIdEEC2ESt16initializer_listIdERKS0_
.Ltmp28:
	jmp	.LBB1_12
.LBB1_12:
	leaq	-32(%rbp), %rdi
	callq	_ZNSaIdED2Ev
.Ltmp30:
	leaq	-352(%rbp), %rdi
	leaq	-376(%rbp), %rsi
	callq	_ZNSt6vectorIdSaIdEEC2ERKS1_
.Ltmp31:
	jmp	.LBB1_13
.LBB1_13:
.Ltmp32:
	leaq	-712(%rbp), %rdi
	leaq	-352(%rbp), %rsi
	callq	_ZN3SVM7predictESt6vectorIdSaIdEE
	movl	%eax, %ebx
.Ltmp33:
	jmp	.LBB1_14
.LBB1_14:
	leaq	-352(%rbp), %rdi
	callq	_ZNSt6vectorIdSaIdEED2Ev
	movl	%ebx, -116(%rbp)
.Ltmp35:
	movq	_ZSt4cout@GOTPCREL(%rip), %rdi
	movl	$.L.str, %esi
	callq	_ZStlsISt11char_traitsIcEERSt13basic_ostreamIcT_ES5_PKc@PLT
.Ltmp36:
	jmp	.LBB1_15
.LBB1_15:
	movl	-116(%rbp), %esi
.Ltmp37:
	movq	%rax, %rdi
	callq	_ZNSolsEi@PLT
.Ltmp38:
	jmp	.LBB1_16
.LBB1_16:
.Ltmp39:
	movq	_ZSt4endlIcSt11char_traitsIcEERSt13basic_ostreamIT_T0_ES6_@GOTPCREL(%rip), %rsi
	movq	%rax, %rdi
	callq	_ZNSolsEPFRSoS_E@PLT
.Ltmp40:
	jmp	.LBB1_17
.LBB1_17:
	movl	$0, -100(%rbp)
	leaq	-376(%rbp), %rdi
	callq	_ZNSt6vectorIdSaIdEED2Ev
	leaq	-448(%rbp), %rdi
	callq	_ZNSt6vectorIiSaIiEED2Ev
	leaq	-472(%rbp), %rdi
	callq	_ZNSt6vectorIS_IdSaIdEESaIS1_EED2Ev
	leaq	-712(%rbp), %rdi
	callq	_ZN3SVMD2Ev
	movl	-100(%rbp), %eax
	addq	$696, %rsp                      # imm = 0x2B8
	popq	%rbx
	popq	%r14
	popq	%r15
	popq	%rbp
	.cfi_def_cfa %rsp, 8
	retq
.LBB1_18:
	.cfi_def_cfa %rbp, 16
.Ltmp2:
	movq	%rax, -96(%rbp)
	movl	%edx, -84(%rbp)
	jmp	.LBB1_28
.LBB1_19:
.Ltmp5:
	movq	%rax, -96(%rbp)
	movl	%edx, -84(%rbp)
	jmp	.LBB1_27
.LBB1_20:
.Ltmp8:
	movq	%rax, -96(%rbp)
	movl	%edx, -84(%rbp)
	jmp	.LBB1_26
.LBB1_21:
.Ltmp11:
	movq	%rax, -96(%rbp)
	movl	%edx, -84(%rbp)
	jmp	.LBB1_25
.LBB1_22:
.Ltmp14:
	movq	%rax, -96(%rbp)
	movl	%edx, -84(%rbp)
	leaq	-48(%rbp), %rdi
	callq	_ZNSaISt6vectorIdSaIdEEED2Ev
	leaq	-568(%rbp), %r15
	movq	%r15, %rbx
	addq	$96, %rbx
.LBB1_23:                               # =>This Inner Loop Header: Depth=1
	addq	$-24, %rbx
	movq	%rbx, %rdi
	callq	_ZNSt6vectorIdSaIdEED2Ev
	cmpq	%r15, %rbx
	jne	.LBB1_23
# %bb.24:
	jmp	.LBB1_25
.LBB1_25:
	leaq	-56(%rbp), %rdi
	callq	_ZNSaIdED2Ev
.LBB1_26:
	leaq	-64(%rbp), %rdi
	callq	_ZNSaIdED2Ev
.LBB1_27:
	leaq	-72(%rbp), %rdi
	callq	_ZNSaIdED2Ev
.LBB1_28:
	leaq	-80(%rbp), %rdi
	callq	_ZNSaIdED2Ev
	testb	$1, -85(%rbp)
	jne	.LBB1_29
	jmp	.LBB1_34
.LBB1_29:
	movq	-112(%rbp), %rbx
	cmpq	%rbx, %r14
	je	.LBB1_33
# %bb.30:                               # %.preheader
	jmp	.LBB1_31
.LBB1_31:                               # =>This Inner Loop Header: Depth=1
	addq	$-24, %rbx
	movq	%rbx, %rdi
	callq	_ZNSt6vectorIdSaIdEED2Ev
	cmpq	%r14, %rbx
	jne	.LBB1_31
# %bb.32:                               # %.loopexit
	jmp	.LBB1_33
.LBB1_33:
	jmp	.LBB1_34
.LBB1_34:
	jmp	.LBB1_46
.LBB1_35:
.Ltmp17:
	movq	%rax, -96(%rbp)
	movl	%edx, -84(%rbp)
	leaq	-40(%rbp), %rdi
	callq	_ZNSaIiED2Ev
	jmp	.LBB1_45
.LBB1_36:
.Ltmp20:
	movq	%rax, -96(%rbp)
	movl	%edx, -84(%rbp)
	jmp	.LBB1_44
.LBB1_37:
.Ltmp23:
	movq	%rax, -96(%rbp)
	movl	%edx, -84(%rbp)
	jmp	.LBB1_39
.LBB1_38:
.Ltmp26:
	movq	%rax, -96(%rbp)
	movl	%edx, -84(%rbp)
	leaq	-400(%rbp), %rdi
	callq	_ZNSt6vectorIiSaIiEED2Ev
.LBB1_39:
	leaq	-424(%rbp), %rdi
	callq	_ZNSt6vectorIS_IdSaIdEESaIS1_EED2Ev
	jmp	.LBB1_44
.LBB1_40:
.Ltmp29:
	movq	%rax, -96(%rbp)
	movl	%edx, -84(%rbp)
	leaq	-32(%rbp), %rdi
	callq	_ZNSaIdED2Ev
	jmp	.LBB1_44
.LBB1_41:
.Ltmp41:
	movq	%rax, -96(%rbp)
	movl	%edx, -84(%rbp)
	jmp	.LBB1_43
.LBB1_42:
.Ltmp34:
	movq	%rax, -96(%rbp)
	movl	%edx, -84(%rbp)
	leaq	-352(%rbp), %rdi
	callq	_ZNSt6vectorIdSaIdEED2Ev
.LBB1_43:
	leaq	-376(%rbp), %rdi
	callq	_ZNSt6vectorIdSaIdEED2Ev
.LBB1_44:
	leaq	-448(%rbp), %rdi
	callq	_ZNSt6vectorIiSaIiEED2Ev
.LBB1_45:
	leaq	-472(%rbp), %rdi
	callq	_ZNSt6vectorIS_IdSaIdEESaIS1_EED2Ev
.LBB1_46:
	leaq	-712(%rbp), %rdi
	callq	_ZN3SVMD2Ev
# %bb.47:
	movq	-96(%rbp), %rdi
	callq	_Unwind_Resume@PLT
.Lfunc_end1:
	.size	main, .Lfunc_end1-main
	.cfi_endproc
	.section	.gcc_except_table,"a",@progbits
	.p2align	2
GCC_except_table1:
.Lexception0:
	.byte	255                             # @LPStart Encoding = omit
	.byte	255                             # @TType Encoding = omit
	.byte	1                               # Call site Encoding = uleb128
	.uleb128 .Lcst_end0-.Lcst_begin0
.Lcst_begin0:
	.uleb128 .Ltmp0-.Lfunc_begin0           # >> Call Site 1 <<
	.uleb128 .Ltmp1-.Ltmp0                  #   Call between .Ltmp0 and .Ltmp1
	.uleb128 .Ltmp2-.Lfunc_begin0           #     jumps to .Ltmp2
	.byte	0                               #   On action: cleanup
	.uleb128 .Ltmp3-.Lfunc_begin0           # >> Call Site 2 <<
	.uleb128 .Ltmp4-.Ltmp3                  #   Call between .Ltmp3 and .Ltmp4
	.uleb128 .Ltmp5-.Lfunc_begin0           #     jumps to .Ltmp5
	.byte	0                               #   On action: cleanup
	.uleb128 .Ltmp6-.Lfunc_begin0           # >> Call Site 3 <<
	.uleb128 .Ltmp7-.Ltmp6                  #   Call between .Ltmp6 and .Ltmp7
	.uleb128 .Ltmp8-.Lfunc_begin0           #     jumps to .Ltmp8
	.byte	0                               #   On action: cleanup
	.uleb128 .Ltmp9-.Lfunc_begin0           # >> Call Site 4 <<
	.uleb128 .Ltmp10-.Ltmp9                 #   Call between .Ltmp9 and .Ltmp10
	.uleb128 .Ltmp11-.Lfunc_begin0          #     jumps to .Ltmp11
	.byte	0                               #   On action: cleanup
	.uleb128 .Ltmp12-.Lfunc_begin0          # >> Call Site 5 <<
	.uleb128 .Ltmp13-.Ltmp12                #   Call between .Ltmp12 and .Ltmp13
	.uleb128 .Ltmp14-.Lfunc_begin0          #     jumps to .Ltmp14
	.byte	0                               #   On action: cleanup
	.uleb128 .Ltmp15-.Lfunc_begin0          # >> Call Site 6 <<
	.uleb128 .Ltmp16-.Ltmp15                #   Call between .Ltmp15 and .Ltmp16
	.uleb128 .Ltmp17-.Lfunc_begin0          #     jumps to .Ltmp17
	.byte	0                               #   On action: cleanup
	.uleb128 .Ltmp18-.Lfunc_begin0          # >> Call Site 7 <<
	.uleb128 .Ltmp19-.Ltmp18                #   Call between .Ltmp18 and .Ltmp19
	.uleb128 .Ltmp20-.Lfunc_begin0          #     jumps to .Ltmp20
	.byte	0                               #   On action: cleanup
	.uleb128 .Ltmp21-.Lfunc_begin0          # >> Call Site 8 <<
	.uleb128 .Ltmp22-.Ltmp21                #   Call between .Ltmp21 and .Ltmp22
	.uleb128 .Ltmp23-.Lfunc_begin0          #     jumps to .Ltmp23
	.byte	0                               #   On action: cleanup
	.uleb128 .Ltmp24-.Lfunc_begin0          # >> Call Site 9 <<
	.uleb128 .Ltmp25-.Ltmp24                #   Call between .Ltmp24 and .Ltmp25
	.uleb128 .Ltmp26-.Lfunc_begin0          #     jumps to .Ltmp26
	.byte	0                               #   On action: cleanup
	.uleb128 .Ltmp27-.Lfunc_begin0          # >> Call Site 10 <<
	.uleb128 .Ltmp28-.Ltmp27                #   Call between .Ltmp27 and .Ltmp28
	.uleb128 .Ltmp29-.Lfunc_begin0          #     jumps to .Ltmp29
	.byte	0                               #   On action: cleanup
	.uleb128 .Ltmp30-.Lfunc_begin0          # >> Call Site 11 <<
	.uleb128 .Ltmp31-.Ltmp30                #   Call between .Ltmp30 and .Ltmp31
	.uleb128 .Ltmp41-.Lfunc_begin0          #     jumps to .Ltmp41
	.byte	0                               #   On action: cleanup
	.uleb128 .Ltmp32-.Lfunc_begin0          # >> Call Site 12 <<
	.uleb128 .Ltmp33-.Ltmp32                #   Call between .Ltmp32 and .Ltmp33
	.uleb128 .Ltmp34-.Lfunc_begin0          #     jumps to .Ltmp34
	.byte	0                               #   On action: cleanup
	.uleb128 .Ltmp35-.Lfunc_begin0          # >> Call Site 13 <<
	.uleb128 .Ltmp40-.Ltmp35                #   Call between .Ltmp35 and .Ltmp40
	.uleb128 .Ltmp41-.Lfunc_begin0          #     jumps to .Ltmp41
	.byte	0                               #   On action: cleanup
	.uleb128 .Ltmp40-.Lfunc_begin0          # >> Call Site 14 <<
	.uleb128 .Lfunc_end1-.Ltmp40            #   Call between .Ltmp40 and .Lfunc_end1
	.byte	0                               #     has no landing pad
	.byte	0                               #   On action: cleanup
.Lcst_end0:
	.p2align	2
                                        # -- End function
	.section	.rodata.cst8,"aM",@progbits,8
	.p2align	3                               # -- Begin function _ZN3SVMC2Eddd
.LCPI2_0:
	.quad	0x3f50624dd2f1a9fc              # double 0.001
	.section	.text._ZN3SVMC2Eddd,"axG",@progbits,_ZN3SVMC2Eddd,comdat
	.weak	_ZN3SVMC2Eddd
	.p2align	4, 0x90
	.type	_ZN3SVMC2Eddd,@function
_ZN3SVMC2Eddd:                          # @_ZN3SVMC2Eddd
	.cfi_startproc
# %bb.0:
	pushq	%rbp
	.cfi_def_cfa_offset 16
	.cfi_offset %rbp, -16
	movq	%rsp, %rbp
	.cfi_def_cfa_register %rbp
	pushq	%rbx
	subq	$40, %rsp
	.cfi_offset %rbx, -24
	movq	%rdi, -40(%rbp)
	movsd	%xmm0, -32(%rbp)
	movsd	%xmm1, -24(%rbp)
	movsd	%xmm2, -16(%rbp)
	movq	-40(%rbp), %rbx
	movq	%rbx, %rdi
	addq	$40, %rdi
	callq	_ZNSt6vectorIS_IdSaIdEESaIS1_EEC2Ev
	movq	%rbx, %rdi
	addq	$64, %rdi
	callq	_ZNSt6vectorIdSaIdEEC2Ev
	movq	%rbx, %rdi
	addq	$96, %rdi
	callq	_ZNSt6vectorIS_IdSaIdEESaIS1_EEC2Ev
	movq	%rbx, %rdi
	addq	$120, %rdi
	callq	_ZNSt6vectorIiSaIiEEC2Ev
	movsd	-32(%rbp), %xmm0                # xmm0 = mem[0],zero
	movsd	%xmm0, (%rbx)
	movsd	-24(%rbp), %xmm0                # xmm0 = mem[0],zero
	movsd	%xmm0, 8(%rbx)
	movsd	-16(%rbp), %xmm0                # xmm0 = mem[0],zero
	movsd	%xmm0, 16(%rbx)
	movsd	.LCPI2_0(%rip), %xmm0           # xmm0 = mem[0],zero
	movsd	%xmm0, 24(%rbx)
	movsd	.LCPI2_0(%rip), %xmm0           # xmm0 = mem[0],zero
	movsd	%xmm0, 32(%rbx)
	addq	$40, %rsp
	popq	%rbx
	popq	%rbp
	.cfi_def_cfa %rsp, 8
	retq
.Lfunc_end2:
	.size	_ZN3SVMC2Eddd, .Lfunc_end2-_ZN3SVMC2Eddd
	.cfi_endproc
                                        # -- End function
	.section	.text._ZNSaIdEC2Ev,"axG",@progbits,_ZNSaIdEC2Ev,comdat
	.weak	_ZNSaIdEC2Ev                    # -- Begin function _ZNSaIdEC2Ev
	.p2align	4, 0x90
	.type	_ZNSaIdEC2Ev,@function
_ZNSaIdEC2Ev:                           # @_ZNSaIdEC2Ev
	.cfi_startproc
# %bb.0:
	pushq	%rbp
	.cfi_def_cfa_offset 16
	.cfi_offset %rbp, -16
	movq	%rsp, %rbp
	.cfi_def_cfa_register %rbp
	subq	$16, %rsp
	movq	%rdi, -8(%rbp)
	movq	-8(%rbp), %rdi
	callq	_ZN9__gnu_cxx13new_allocatorIdEC2Ev
	addq	$16, %rsp
	popq	%rbp
	.cfi_def_cfa %rsp, 8
	retq
.Lfunc_end3:
	.size	_ZNSaIdEC2Ev, .Lfunc_end3-_ZNSaIdEC2Ev
	.cfi_endproc
                                        # -- End function
	.section	.text._ZNSt6vectorIdSaIdEEC2ESt16initializer_listIdERKS0_,"axG",@progbits,_ZNSt6vectorIdSaIdEEC2ESt16initializer_listIdERKS0_,comdat
	.weak	_ZNSt6vectorIdSaIdEEC2ESt16initializer_listIdERKS0_ # -- Begin function _ZNSt6vectorIdSaIdEEC2ESt16initializer_listIdERKS0_
	.p2align	4, 0x90
	.type	_ZNSt6vectorIdSaIdEEC2ESt16initializer_listIdERKS0_,@function
_ZNSt6vectorIdSaIdEEC2ESt16initializer_listIdERKS0_: # @_ZNSt6vectorIdSaIdEEC2ESt16initializer_listIdERKS0_
.Lfunc_begin1:
	.cfi_startproc
	.cfi_personality 3, __gxx_personality_v0
	.cfi_lsda 3, .Lexception1
# %bb.0:
	pushq	%rbp
	.cfi_def_cfa_offset 16
	.cfi_offset %rbp, -16
	movq	%rsp, %rbp
	.cfi_def_cfa_register %rbp
	pushq	%r15
	pushq	%r14
	pushq	%rbx
	subq	$72, %rsp
	.cfi_offset %rbx, -40
	.cfi_offset %r14, -32
	.cfi_offset %r15, -24
	movq	%rsi, -72(%rbp)
	movq	%rdx, -64(%rbp)
	movq	%rdi, -48(%rbp)
	movq	%rcx, -40(%rbp)
	movq	-48(%rbp), %r15
	movq	-40(%rbp), %rsi
	movq	%r15, %rdi
	callq	_ZNSt12_Vector_baseIdSaIdEEC2ERKS0_
	leaq	-72(%rbp), %r14
	movq	%r14, %rdi
	callq	_ZNKSt16initializer_listIdE5beginEv
	movq	%rax, %rbx
	movq	%r14, %rdi
	callq	_ZNKSt16initializer_listIdE3endEv
.Ltmp42:
	movq	%r15, %rdi
	movq	%rbx, %rsi
	movq	%rax, %rdx
	callq	_ZNSt6vectorIdSaIdEE19_M_range_initializeIPKdEEvT_S5_St20forward_iterator_tag
.Ltmp43:
	jmp	.LBB4_1
.LBB4_1:
	addq	$72, %rsp
	popq	%rbx
	popq	%r14
	popq	%r15
	popq	%rbp
	.cfi_def_cfa %rsp, 8
	retq
.LBB4_2:
	.cfi_def_cfa %rbp, 16
.Ltmp44:
	movq	%rax, -32(%rbp)
	movl	%edx, -52(%rbp)
	movq	%r15, %rdi
	callq	_ZNSt12_Vector_baseIdSaIdEED2Ev
# %bb.3:
	movq	-32(%rbp), %rdi
	callq	_Unwind_Resume@PLT
.Lfunc_end4:
	.size	_ZNSt6vectorIdSaIdEEC2ESt16initializer_listIdERKS0_, .Lfunc_end4-_ZNSt6vectorIdSaIdEEC2ESt16initializer_listIdERKS0_
	.cfi_endproc
	.section	.gcc_except_table._ZNSt6vectorIdSaIdEEC2ESt16initializer_listIdERKS0_,"aG",@progbits,_ZNSt6vectorIdSaIdEEC2ESt16initializer_listIdERKS0_,comdat
	.p2align	2
GCC_except_table4:
.Lexception1:
	.byte	255                             # @LPStart Encoding = omit
	.byte	255                             # @TType Encoding = omit
	.byte	1                               # Call site Encoding = uleb128
	.uleb128 .Lcst_end1-.Lcst_begin1
.Lcst_begin1:
	.uleb128 .Ltmp42-.Lfunc_begin1          # >> Call Site 1 <<
	.uleb128 .Ltmp43-.Ltmp42                #   Call between .Ltmp42 and .Ltmp43
	.uleb128 .Ltmp44-.Lfunc_begin1          #     jumps to .Ltmp44
	.byte	0                               #   On action: cleanup
	.uleb128 .Ltmp43-.Lfunc_begin1          # >> Call Site 2 <<
	.uleb128 .Lfunc_end4-.Ltmp43            #   Call between .Ltmp43 and .Lfunc_end4
	.byte	0                               #     has no landing pad
	.byte	0                               #   On action: cleanup
.Lcst_end1:
	.p2align	2
                                        # -- End function
	.section	.text._ZNSaISt6vectorIdSaIdEEEC2Ev,"axG",@progbits,_ZNSaISt6vectorIdSaIdEEEC2Ev,comdat
	.weak	_ZNSaISt6vectorIdSaIdEEEC2Ev    # -- Begin function _ZNSaISt6vectorIdSaIdEEEC2Ev
	.p2align	4, 0x90
	.type	_ZNSaISt6vectorIdSaIdEEEC2Ev,@function
_ZNSaISt6vectorIdSaIdEEEC2Ev:           # @_ZNSaISt6vectorIdSaIdEEEC2Ev
	.cfi_startproc
# %bb.0:
	pushq	%rbp
	.cfi_def_cfa_offset 16
	.cfi_offset %rbp, -16
	movq	%rsp, %rbp
	.cfi_def_cfa_register %rbp
	subq	$16, %rsp
	movq	%rdi, -8(%rbp)
	movq	-8(%rbp), %rdi
	callq	_ZN9__gnu_cxx13new_allocatorISt6vectorIdSaIdEEEC2Ev
	addq	$16, %rsp
	popq	%rbp
	.cfi_def_cfa %rsp, 8
	retq
.Lfunc_end5:
	.size	_ZNSaISt6vectorIdSaIdEEEC2Ev, .Lfunc_end5-_ZNSaISt6vectorIdSaIdEEEC2Ev
	.cfi_endproc
                                        # -- End function
	.section	.text._ZNSt6vectorIS_IdSaIdEESaIS1_EEC2ESt16initializer_listIS1_ERKS2_,"axG",@progbits,_ZNSt6vectorIS_IdSaIdEESaIS1_EEC2ESt16initializer_listIS1_ERKS2_,comdat
	.weak	_ZNSt6vectorIS_IdSaIdEESaIS1_EEC2ESt16initializer_listIS1_ERKS2_ # -- Begin function _ZNSt6vectorIS_IdSaIdEESaIS1_EEC2ESt16initializer_listIS1_ERKS2_
	.p2align	4, 0x90
	.type	_ZNSt6vectorIS_IdSaIdEESaIS1_EEC2ESt16initializer_listIS1_ERKS2_,@function
_ZNSt6vectorIS_IdSaIdEESaIS1_EEC2ESt16initializer_listIS1_ERKS2_: # @_ZNSt6vectorIS_IdSaIdEESaIS1_EEC2ESt16initializer_listIS1_ERKS2_
.Lfunc_begin2:
	.cfi_startproc
	.cfi_personality 3, __gxx_personality_v0
	.cfi_lsda 3, .Lexception2
# %bb.0:
	pushq	%rbp
	.cfi_def_cfa_offset 16
	.cfi_offset %rbp, -16
	movq	%rsp, %rbp
	.cfi_def_cfa_register %rbp
	pushq	%r15
	pushq	%r14
	pushq	%rbx
	subq	$72, %rsp
	.cfi_offset %rbx, -40
	.cfi_offset %r14, -32
	.cfi_offset %r15, -24
	movq	%rsi, -72(%rbp)
	movq	%rdx, -64(%rbp)
	movq	%rdi, -48(%rbp)
	movq	%rcx, -40(%rbp)
	movq	-48(%rbp), %r15
	movq	-40(%rbp), %rsi
	movq	%r15, %rdi
	callq	_ZNSt12_Vector_baseISt6vectorIdSaIdEESaIS2_EEC2ERKS3_
	leaq	-72(%rbp), %r14
	movq	%r14, %rdi
	callq	_ZNKSt16initializer_listISt6vectorIdSaIdEEE5beginEv
	movq	%rax, %rbx
	movq	%r14, %rdi
	callq	_ZNKSt16initializer_listISt6vectorIdSaIdEEE3endEv
.Ltmp45:
	movq	%r15, %rdi
	movq	%rbx, %rsi
	movq	%rax, %rdx
	callq	_ZNSt6vectorIS_IdSaIdEESaIS1_EE19_M_range_initializeIPKS1_EEvT_S7_St20forward_iterator_tag
.Ltmp46:
	jmp	.LBB6_1
.LBB6_1:
	addq	$72, %rsp
	popq	%rbx
	popq	%r14
	popq	%r15
	popq	%rbp
	.cfi_def_cfa %rsp, 8
	retq
.LBB6_2:
	.cfi_def_cfa %rbp, 16
.Ltmp47:
	movq	%rax, -32(%rbp)
	movl	%edx, -52(%rbp)
	movq	%r15, %rdi
	callq	_ZNSt12_Vector_baseISt6vectorIdSaIdEESaIS2_EED2Ev
# %bb.3:
	movq	-32(%rbp), %rdi
	callq	_Unwind_Resume@PLT
.Lfunc_end6:
	.size	_ZNSt6vectorIS_IdSaIdEESaIS1_EEC2ESt16initializer_listIS1_ERKS2_, .Lfunc_end6-_ZNSt6vectorIS_IdSaIdEESaIS1_EEC2ESt16initializer_listIS1_ERKS2_
	.cfi_endproc
	.section	.gcc_except_table._ZNSt6vectorIS_IdSaIdEESaIS1_EEC2ESt16initializer_listIS1_ERKS2_,"aG",@progbits,_ZNSt6vectorIS_IdSaIdEESaIS1_EEC2ESt16initializer_listIS1_ERKS2_,comdat
	.p2align	2
GCC_except_table6:
.Lexception2:
	.byte	255                             # @LPStart Encoding = omit
	.byte	255                             # @TType Encoding = omit
	.byte	1                               # Call site Encoding = uleb128
	.uleb128 .Lcst_end2-.Lcst_begin2
.Lcst_begin2:
	.uleb128 .Ltmp45-.Lfunc_begin2          # >> Call Site 1 <<
	.uleb128 .Ltmp46-.Ltmp45                #   Call between .Ltmp45 and .Ltmp46
	.uleb128 .Ltmp47-.Lfunc_begin2          #     jumps to .Ltmp47
	.byte	0                               #   On action: cleanup
	.uleb128 .Ltmp46-.Lfunc_begin2          # >> Call Site 2 <<
	.uleb128 .Lfunc_end6-.Ltmp46            #   Call between .Ltmp46 and .Lfunc_end6
	.byte	0                               #     has no landing pad
	.byte	0                               #   On action: cleanup
.Lcst_end2:
	.p2align	2
                                        # -- End function
	.section	.text._ZNSaISt6vectorIdSaIdEEED2Ev,"axG",@progbits,_ZNSaISt6vectorIdSaIdEEED2Ev,comdat
	.weak	_ZNSaISt6vectorIdSaIdEEED2Ev    # -- Begin function _ZNSaISt6vectorIdSaIdEEED2Ev
	.p2align	4, 0x90
	.type	_ZNSaISt6vectorIdSaIdEEED2Ev,@function
_ZNSaISt6vectorIdSaIdEEED2Ev:           # @_ZNSaISt6vectorIdSaIdEEED2Ev
	.cfi_startproc
# %bb.0:
	pushq	%rbp
	.cfi_def_cfa_offset 16
	.cfi_offset %rbp, -16
	movq	%rsp, %rbp
	.cfi_def_cfa_register %rbp
	subq	$16, %rsp
	movq	%rdi, -8(%rbp)
	movq	-8(%rbp), %rdi
	callq	_ZN9__gnu_cxx13new_allocatorISt6vectorIdSaIdEEED2Ev
	addq	$16, %rsp
	popq	%rbp
	.cfi_def_cfa %rsp, 8
	retq
.Lfunc_end7:
	.size	_ZNSaISt6vectorIdSaIdEEED2Ev, .Lfunc_end7-_ZNSaISt6vectorIdSaIdEEED2Ev
	.cfi_endproc
                                        # -- End function
	.section	.text._ZNSt6vectorIdSaIdEED2Ev,"axG",@progbits,_ZNSt6vectorIdSaIdEED2Ev,comdat
	.weak	_ZNSt6vectorIdSaIdEED2Ev        # -- Begin function _ZNSt6vectorIdSaIdEED2Ev
	.p2align	4, 0x90
	.type	_ZNSt6vectorIdSaIdEED2Ev,@function
_ZNSt6vectorIdSaIdEED2Ev:               # @_ZNSt6vectorIdSaIdEED2Ev
.Lfunc_begin3:
	.cfi_startproc
	.cfi_personality 3, __gxx_personality_v0
	.cfi_lsda 3, .Lexception3
# %bb.0:
	pushq	%rbp
	.cfi_def_cfa_offset 16
	.cfi_offset %rbp, -16
	movq	%rsp, %rbp
	.cfi_def_cfa_register %rbp
	pushq	%r15
	pushq	%r14
	pushq	%rbx
	subq	$24, %rsp
	.cfi_offset %rbx, -40
	.cfi_offset %r14, -32
	.cfi_offset %r15, -24
	movq	%rdi, -40(%rbp)
	movq	-40(%rbp), %rbx
	movq	(%rbx), %r14
	movq	8(%rbx), %r15
	movq	%rbx, %rdi
	callq	_ZNSt12_Vector_baseIdSaIdEE19_M_get_Tp_allocatorEv
.Ltmp48:
	movq	%r14, %rdi
	movq	%r15, %rsi
	movq	%rax, %rdx
	callq	_ZSt8_DestroyIPddEvT_S1_RSaIT0_E
.Ltmp49:
	jmp	.LBB8_1
.LBB8_1:
	movq	%rbx, %rdi
	callq	_ZNSt12_Vector_baseIdSaIdEED2Ev
	addq	$24, %rsp
	popq	%rbx
	popq	%r14
	popq	%r15
	popq	%rbp
	.cfi_def_cfa %rsp, 8
	retq
.LBB8_2:
	.cfi_def_cfa %rbp, 16
.Ltmp50:
	movq	%rax, -32(%rbp)
	movl	%edx, -44(%rbp)
	movq	%rbx, %rdi
	callq	_ZNSt12_Vector_baseIdSaIdEED2Ev
# %bb.3:
	movq	-32(%rbp), %rdi
	callq	__clang_call_terminate
.Lfunc_end8:
	.size	_ZNSt6vectorIdSaIdEED2Ev, .Lfunc_end8-_ZNSt6vectorIdSaIdEED2Ev
	.cfi_endproc
	.section	.gcc_except_table._ZNSt6vectorIdSaIdEED2Ev,"aG",@progbits,_ZNSt6vectorIdSaIdEED2Ev,comdat
	.p2align	2
GCC_except_table8:
.Lexception3:
	.byte	255                             # @LPStart Encoding = omit
	.byte	3                               # @TType Encoding = udata4
	.uleb128 .Lttbase0-.Lttbaseref0
.Lttbaseref0:
	.byte	1                               # Call site Encoding = uleb128
	.uleb128 .Lcst_end3-.Lcst_begin3
.Lcst_begin3:
	.uleb128 .Ltmp48-.Lfunc_begin3          # >> Call Site 1 <<
	.uleb128 .Ltmp49-.Ltmp48                #   Call between .Ltmp48 and .Ltmp49
	.uleb128 .Ltmp50-.Lfunc_begin3          #     jumps to .Ltmp50
	.byte	1                               #   On action: 1
.Lcst_end3:
	.byte	1                               # >> Action Record 1 <<
                                        #   Catch TypeInfo 1
	.byte	0                               #   No further actions
	.p2align	2
                                        # >> Catch TypeInfos <<
	.long	0                               # TypeInfo 1
.Lttbase0:
	.p2align	2
                                        # -- End function
	.section	.text._ZNSaIdED2Ev,"axG",@progbits,_ZNSaIdED2Ev,comdat
	.weak	_ZNSaIdED2Ev                    # -- Begin function _ZNSaIdED2Ev
	.p2align	4, 0x90
	.type	_ZNSaIdED2Ev,@function
_ZNSaIdED2Ev:                           # @_ZNSaIdED2Ev
	.cfi_startproc
# %bb.0:
	pushq	%rbp
	.cfi_def_cfa_offset 16
	.cfi_offset %rbp, -16
	movq	%rsp, %rbp
	.cfi_def_cfa_register %rbp
	subq	$16, %rsp
	movq	%rdi, -8(%rbp)
	movq	-8(%rbp), %rdi
	callq	_ZN9__gnu_cxx13new_allocatorIdED2Ev
	addq	$16, %rsp
	popq	%rbp
	.cfi_def_cfa %rsp, 8
	retq
.Lfunc_end9:
	.size	_ZNSaIdED2Ev, .Lfunc_end9-_ZNSaIdED2Ev
	.cfi_endproc
                                        # -- End function
	.section	.text._ZNSaIiEC2Ev,"axG",@progbits,_ZNSaIiEC2Ev,comdat
	.weak	_ZNSaIiEC2Ev                    # -- Begin function _ZNSaIiEC2Ev
	.p2align	4, 0x90
	.type	_ZNSaIiEC2Ev,@function
_ZNSaIiEC2Ev:                           # @_ZNSaIiEC2Ev
	.cfi_startproc
# %bb.0:
	pushq	%rbp
	.cfi_def_cfa_offset 16
	.cfi_offset %rbp, -16
	movq	%rsp, %rbp
	.cfi_def_cfa_register %rbp
	subq	$16, %rsp
	movq	%rdi, -8(%rbp)
	movq	-8(%rbp), %rdi
	callq	_ZN9__gnu_cxx13new_allocatorIiEC2Ev
	addq	$16, %rsp
	popq	%rbp
	.cfi_def_cfa %rsp, 8
	retq
.Lfunc_end10:
	.size	_ZNSaIiEC2Ev, .Lfunc_end10-_ZNSaIiEC2Ev
	.cfi_endproc
                                        # -- End function
	.section	.text._ZNSt6vectorIiSaIiEEC2ESt16initializer_listIiERKS0_,"axG",@progbits,_ZNSt6vectorIiSaIiEEC2ESt16initializer_listIiERKS0_,comdat
	.weak	_ZNSt6vectorIiSaIiEEC2ESt16initializer_listIiERKS0_ # -- Begin function _ZNSt6vectorIiSaIiEEC2ESt16initializer_listIiERKS0_
	.p2align	4, 0x90
	.type	_ZNSt6vectorIiSaIiEEC2ESt16initializer_listIiERKS0_,@function
_ZNSt6vectorIiSaIiEEC2ESt16initializer_listIiERKS0_: # @_ZNSt6vectorIiSaIiEEC2ESt16initializer_listIiERKS0_
.Lfunc_begin4:
	.cfi_startproc
	.cfi_personality 3, __gxx_personality_v0
	.cfi_lsda 3, .Lexception4
# %bb.0:
	pushq	%rbp
	.cfi_def_cfa_offset 16
	.cfi_offset %rbp, -16
	movq	%rsp, %rbp
	.cfi_def_cfa_register %rbp
	pushq	%r15
	pushq	%r14
	pushq	%rbx
	subq	$72, %rsp
	.cfi_offset %rbx, -40
	.cfi_offset %r14, -32
	.cfi_offset %r15, -24
	movq	%rsi, -72(%rbp)
	movq	%rdx, -64(%rbp)
	movq	%rdi, -48(%rbp)
	movq	%rcx, -40(%rbp)
	movq	-48(%rbp), %r15
	movq	-40(%rbp), %rsi
	movq	%r15, %rdi
	callq	_ZNSt12_Vector_baseIiSaIiEEC2ERKS0_
	leaq	-72(%rbp), %r14
	movq	%r14, %rdi
	callq	_ZNKSt16initializer_listIiE5beginEv
	movq	%rax, %rbx
	movq	%r14, %rdi
	callq	_ZNKSt16initializer_listIiE3endEv
.Ltmp51:
	movq	%r15, %rdi
	movq	%rbx, %rsi
	movq	%rax, %rdx
	callq	_ZNSt6vectorIiSaIiEE19_M_range_initializeIPKiEEvT_S5_St20forward_iterator_tag
.Ltmp52:
	jmp	.LBB11_1
.LBB11_1:
	addq	$72, %rsp
	popq	%rbx
	popq	%r14
	popq	%r15
	popq	%rbp
	.cfi_def_cfa %rsp, 8
	retq
.LBB11_2:
	.cfi_def_cfa %rbp, 16
.Ltmp53:
	movq	%rax, -32(%rbp)
	movl	%edx, -52(%rbp)
	movq	%r15, %rdi
	callq	_ZNSt12_Vector_baseIiSaIiEED2Ev
# %bb.3:
	movq	-32(%rbp), %rdi
	callq	_Unwind_Resume@PLT
.Lfunc_end11:
	.size	_ZNSt6vectorIiSaIiEEC2ESt16initializer_listIiERKS0_, .Lfunc_end11-_ZNSt6vectorIiSaIiEEC2ESt16initializer_listIiERKS0_
	.cfi_endproc
	.section	.gcc_except_table._ZNSt6vectorIiSaIiEEC2ESt16initializer_listIiERKS0_,"aG",@progbits,_ZNSt6vectorIiSaIiEEC2ESt16initializer_listIiERKS0_,comdat
	.p2align	2
GCC_except_table11:
.Lexception4:
	.byte	255                             # @LPStart Encoding = omit
	.byte	255                             # @TType Encoding = omit
	.byte	1                               # Call site Encoding = uleb128
	.uleb128 .Lcst_end4-.Lcst_begin4
.Lcst_begin4:
	.uleb128 .Ltmp51-.Lfunc_begin4          # >> Call Site 1 <<
	.uleb128 .Ltmp52-.Ltmp51                #   Call between .Ltmp51 and .Ltmp52
	.uleb128 .Ltmp53-.Lfunc_begin4          #     jumps to .Ltmp53
	.byte	0                               #   On action: cleanup
	.uleb128 .Ltmp52-.Lfunc_begin4          # >> Call Site 2 <<
	.uleb128 .Lfunc_end11-.Ltmp52           #   Call between .Ltmp52 and .Lfunc_end11
	.byte	0                               #     has no landing pad
	.byte	0                               #   On action: cleanup
.Lcst_end4:
	.p2align	2
                                        # -- End function
	.section	.text._ZNSaIiED2Ev,"axG",@progbits,_ZNSaIiED2Ev,comdat
	.weak	_ZNSaIiED2Ev                    # -- Begin function _ZNSaIiED2Ev
	.p2align	4, 0x90
	.type	_ZNSaIiED2Ev,@function
_ZNSaIiED2Ev:                           # @_ZNSaIiED2Ev
	.cfi_startproc
# %bb.0:
	pushq	%rbp
	.cfi_def_cfa_offset 16
	.cfi_offset %rbp, -16
	movq	%rsp, %rbp
	.cfi_def_cfa_register %rbp
	subq	$16, %rsp
	movq	%rdi, -8(%rbp)
	movq	-8(%rbp), %rdi
	callq	_ZN9__gnu_cxx13new_allocatorIiED2Ev
	addq	$16, %rsp
	popq	%rbp
	.cfi_def_cfa %rsp, 8
	retq
.Lfunc_end12:
	.size	_ZNSaIiED2Ev, .Lfunc_end12-_ZNSaIiED2Ev
	.cfi_endproc
                                        # -- End function
	.section	.text._ZN3SVM3fitESt6vectorIS0_IdSaIdEESaIS2_EES0_IiSaIiEE,"axG",@progbits,_ZN3SVM3fitESt6vectorIS0_IdSaIdEESaIS2_EES0_IiSaIiEE,comdat
	.weak	_ZN3SVM3fitESt6vectorIS0_IdSaIdEESaIS2_EES0_IiSaIiEE # -- Begin function _ZN3SVM3fitESt6vectorIS0_IdSaIdEESaIS2_EES0_IiSaIiEE
	.p2align	4, 0x90
	.type	_ZN3SVM3fitESt6vectorIS0_IdSaIdEESaIS2_EES0_IiSaIiEE,@function
_ZN3SVM3fitESt6vectorIS0_IdSaIdEESaIS2_EES0_IiSaIiEE: # @_ZN3SVM3fitESt6vectorIS0_IdSaIdEESaIS2_EES0_IiSaIiEE
.Lfunc_begin5:
	.cfi_startproc
	.cfi_personality 3, __gxx_personality_v0
	.cfi_lsda 3, .Lexception5
# %bb.0:
	pushq	%rbp
	.cfi_def_cfa_offset 16
	.cfi_offset %rbp, -16
	movq	%rsp, %rbp
	.cfi_def_cfa_register %rbp
	pushq	%r15
	pushq	%r14
	pushq	%r13
	pushq	%r12
	pushq	%rbx
	subq	$440, %rsp                      # imm = 0x1B8
	.cfi_offset %rbx, -56
	.cfi_offset %r12, -48
	.cfi_offset %r13, -40
	.cfi_offset %r14, -32
	.cfi_offset %r15, -24
	movq	%rdx, %r14
	movq	%rsi, %r12
	movq	%rdi, -304(%rbp)
	movq	-304(%rbp), %r15
	movq	%r12, %rdi
	callq	_ZNKSt6vectorIS_IdSaIdEESaIS1_EE4sizeEv
	movl	%eax, -88(%rbp)
	movq	%r12, %rdi
	xorl	%esi, %esi
	callq	_ZNSt6vectorIS_IdSaIdEESaIS1_EEixEm
	movq	%rax, %rdi
	callq	_ZNKSt6vectorIdSaIdEE4sizeEv
	movl	%eax, -308(%rbp)
	movslq	-88(%rbp), %rbx
	leaq	-72(%rbp), %r13
	movq	%r13, %rdi
	callq	_ZNSaIdEC2Ev
.Ltmp54:
	leaq	-384(%rbp), %rdi
	movq	%rbx, %rsi
	movq	%r13, %rdx
	callq	_ZNSt6vectorIdSaIdEEC2EmRKS0_
.Ltmp55:
	jmp	.LBB13_1
.LBB13_1:
	leaq	-64(%rbp), %r13
	movq	%r13, %rdi
	callq	_ZNSaISt6vectorIdSaIdEEEC2Ev
.Ltmp57:
	leaq	-480(%rbp), %rdi
	leaq	-384(%rbp), %rdx
	movq	%rbx, %rsi
	movq	%r13, %rcx
	callq	_ZNSt6vectorIS_IdSaIdEESaIS1_EEC2EmRKS1_RKS2_
.Ltmp58:
	jmp	.LBB13_2
.LBB13_2:
	movq	%r15, %rdi
	addq	$40, %rdi
	leaq	-480(%rbp), %rsi
	callq	_ZNSt6vectorIS_IdSaIdEESaIS1_EEaSEOS3_
	leaq	-480(%rbp), %rdi
	callq	_ZNSt6vectorIS_IdSaIdEESaIS1_EED2Ev
	leaq	-64(%rbp), %rdi
	callq	_ZNSaISt6vectorIdSaIdEEED2Ev
	leaq	-384(%rbp), %rdi
	callq	_ZNSt6vectorIdSaIdEED2Ev
	leaq	-72(%rbp), %rdi
	callq	_ZNSaIdED2Ev
	movl	$0, -84(%rbp)
.LBB13_3:                               # =>This Loop Header: Depth=1
                                        #     Child Loop BB13_5 Depth 2
	movl	-84(%rbp), %eax
	cmpl	-88(%rbp), %eax
	jge	.LBB13_18
# %bb.4:                                #   in Loop: Header=BB13_3 Depth=1
	movl	$0, -80(%rbp)
.LBB13_5:                               #   Parent Loop BB13_3 Depth=1
                                        # =>  This Inner Loop Header: Depth=2
	movl	-80(%rbp), %eax
	cmpl	-88(%rbp), %eax
	jge	.LBB13_16
# %bb.6:                                #   in Loop: Header=BB13_5 Depth=2
	movslq	-84(%rbp), %rsi
	movq	%r12, %rdi
	callq	_ZNSt6vectorIS_IdSaIdEESaIS1_EEixEm
	leaq	-360(%rbp), %rdi
	movq	%rax, %rsi
	callq	_ZNSt6vectorIdSaIdEEC2ERKS1_
	movslq	-80(%rbp), %rsi
	movq	%r12, %rdi
	callq	_ZNSt6vectorIS_IdSaIdEESaIS1_EEixEm
.Ltmp69:
	leaq	-336(%rbp), %rdi
	movq	%rax, %rsi
	callq	_ZNSt6vectorIdSaIdEEC2ERKS1_
.Ltmp70:
	jmp	.LBB13_7
.LBB13_7:                               #   in Loop: Header=BB13_5 Depth=2
.Ltmp72:
	leaq	-360(%rbp), %rsi
	leaq	-336(%rbp), %rdx
	movq	%r15, %rdi
	callq	_ZN3SVM6kernelESt6vectorIdSaIdEES2_
.Ltmp73:
	jmp	.LBB13_8
.LBB13_8:                               #   in Loop: Header=BB13_5 Depth=2
	movq	%r15, %rdi
	addq	$40, %rdi
	movslq	-84(%rbp), %rsi
	movsd	%xmm0, -232(%rbp)               # 8-byte Spill
	callq	_ZNSt6vectorIS_IdSaIdEESaIS1_EEixEm
	movslq	-80(%rbp), %rsi
	movq	%rax, %rdi
	callq	_ZNSt6vectorIdSaIdEEixEm
	movsd	-232(%rbp), %xmm0               # 8-byte Reload
                                        # xmm0 = mem[0],zero
	movsd	%xmm0, (%rax)
	leaq	-336(%rbp), %rdi
	callq	_ZNSt6vectorIdSaIdEED2Ev
	leaq	-360(%rbp), %rdi
	callq	_ZNSt6vectorIdSaIdEED2Ev
# %bb.9:                                #   in Loop: Header=BB13_5 Depth=2
	movl	-80(%rbp), %eax
	addl	$1, %eax
	movl	%eax, -80(%rbp)
	jmp	.LBB13_5
.LBB13_10:
.Ltmp56:
	movq	%rax, -96(%rbp)
	movl	%edx, -76(%rbp)
	jmp	.LBB13_12
.LBB13_11:
.Ltmp59:
	movq	%rax, -96(%rbp)
	movl	%edx, -76(%rbp)
	leaq	-64(%rbp), %rdi
	callq	_ZNSaISt6vectorIdSaIdEEED2Ev
	leaq	-384(%rbp), %rdi
	callq	_ZNSt6vectorIdSaIdEED2Ev
.LBB13_12:
	leaq	-72(%rbp), %rdi
	callq	_ZNSaIdED2Ev
	jmp	.LBB13_49
.LBB13_13:
.Ltmp71:
	movq	%rax, -96(%rbp)
	movl	%edx, -76(%rbp)
	jmp	.LBB13_15
.LBB13_14:
.Ltmp74:
	movq	%rax, -96(%rbp)
	movl	%edx, -76(%rbp)
	leaq	-336(%rbp), %rdi
	callq	_ZNSt6vectorIdSaIdEED2Ev
.LBB13_15:
	leaq	-360(%rbp), %rdi
	callq	_ZNSt6vectorIdSaIdEED2Ev
	jmp	.LBB13_49
.LBB13_16:                              #   in Loop: Header=BB13_3 Depth=1
	jmp	.LBB13_17
.LBB13_17:                              #   in Loop: Header=BB13_3 Depth=1
	movl	-84(%rbp), %eax
	addl	$1, %eax
	movl	%eax, -84(%rbp)
	jmp	.LBB13_3
.LBB13_18:
	movslq	-88(%rbp), %rbx
	movq	$0, -296(%rbp)
	leaq	-56(%rbp), %r13
	movq	%r13, %rdi
	callq	_ZNSaIdEC2Ev
.Ltmp60:
	leaq	-456(%rbp), %rdi
	leaq	-296(%rbp), %rdx
	movq	%rbx, %rsi
	movq	%r13, %rcx
	callq	_ZNSt6vectorIdSaIdEEC2EmRKdRKS0_
.Ltmp61:
	jmp	.LBB13_19
.LBB13_19:
	movq	%r15, %rdi
	addq	$64, %rdi
	leaq	-456(%rbp), %rsi
	callq	_ZNSt6vectorIdSaIdEEaSEOS1_
	leaq	-456(%rbp), %rdi
	callq	_ZNSt6vectorIdSaIdEED2Ev
	leaq	-56(%rbp), %rdi
	callq	_ZNSaIdED2Ev
	xorps	%xmm0, %xmm0
	movsd	%xmm0, 88(%r15)
	movq	%r15, %rdi
	addq	$96, %rdi
	movq	%r12, %rsi
	callq	_ZNSt6vectorIS_IdSaIdEESaIS1_EEaSERKS3_
	movq	%r15, %rdi
	addq	$120, %rdi
	movq	%r14, %rsi
	callq	_ZNSt6vectorIiSaIiEEaSERKS1_
	movl	$0, -100(%rbp)
.LBB13_20:                              # =>This Loop Header: Depth=1
                                        #     Child Loop BB13_22 Depth 2
	cmpl	$100, -100(%rbp)
	jge	.LBB13_48
# %bb.21:                               #   in Loop: Header=BB13_20 Depth=1
	movl	$0, -44(%rbp)
.LBB13_22:                              #   Parent Loop BB13_20 Depth=1
                                        # =>  This Inner Loop Header: Depth=2
	movl	-44(%rbp), %eax
	cmpl	-88(%rbp), %eax
	jge	.LBB13_46
# %bb.23:                               #   in Loop: Header=BB13_22 Depth=2
	movslq	-44(%rbp), %rsi
	movq	%r12, %rdi
	callq	_ZNSt6vectorIS_IdSaIdEESaIS1_EEixEm
	leaq	-432(%rbp), %rbx
	movq	%rbx, %rdi
	movq	%rax, %rsi
	callq	_ZNSt6vectorIdSaIdEEC2ERKS1_
.Ltmp63:
	movq	%r15, %rdi
	movq	%rbx, %rsi
	callq	_ZN3SVM7predictESt6vectorIdSaIdEE
	movl	%eax, %ebx
.Ltmp64:
	jmp	.LBB13_24
.LBB13_24:                              #   in Loop: Header=BB13_22 Depth=2
	movslq	-44(%rbp), %rsi
	movq	%r14, %rdi
	callq	_ZNSt6vectorIiSaIiEEixEm
	subl	(%rax), %ebx
	cvtsi2sd	%ebx, %xmm0
	movsd	%xmm0, -184(%rbp)               # 8-byte Spill
	leaq	-432(%rbp), %rdi
	callq	_ZNSt6vectorIdSaIdEED2Ev
	movsd	-184(%rbp), %xmm0               # 8-byte Reload
                                        # xmm0 = mem[0],zero
	movsd	%xmm0, -112(%rbp)
	movsd	-112(%rbp), %xmm0               # xmm0 = mem[0],zero
	movsd	24(%r15), %xmm1                 # xmm1 = mem[0],zero
	movq	%xmm1, %rax
	movabsq	$-9223372036854775808, %rcx     # imm = 0x8000000000000000
	xorq	%rcx, %rax
	movq	%rax, %xmm1
	ucomisd	%xmm0, %xmm1
	jbe	.LBB13_26
# %bb.25:                               #   in Loop: Header=BB13_22 Depth=2
	movq	%r15, %rdi
	addq	$64, %rdi
	movslq	-44(%rbp), %rsi
	callq	_ZNSt6vectorIdSaIdEEixEm
	movsd	(%rax), %xmm0                   # xmm0 = mem[0],zero
	movsd	(%r15), %xmm1                   # xmm1 = mem[0],zero
	ucomisd	%xmm0, %xmm1
	ja	.LBB13_28
.LBB13_26:                              #   in Loop: Header=BB13_22 Depth=2
	movsd	-112(%rbp), %xmm0               # xmm0 = mem[0],zero
	ucomisd	24(%r15), %xmm0
	jbe	.LBB13_44
# %bb.27:                               #   in Loop: Header=BB13_22 Depth=2
	movq	%r15, %rdi
	addq	$64, %rdi
	movslq	-44(%rbp), %rsi
	callq	_ZNSt6vectorIdSaIdEEixEm
	movsd	(%rax), %xmm0                   # xmm0 = mem[0],zero
	xorps	%xmm1, %xmm1
	ucomisd	%xmm1, %xmm0
	jbe	.LBB13_44
.LBB13_28:                              #   in Loop: Header=BB13_22 Depth=2
	movl	-44(%rbp), %esi
	movsd	-112(%rbp), %xmm0               # xmm0 = mem[0],zero
	movq	%r15, %rdi
	callq	_ZN3SVM8select_jEid
	movl	%eax, -48(%rbp)
	movslq	-48(%rbp), %rsi
	movq	%r12, %rdi
	callq	_ZNSt6vectorIS_IdSaIdEESaIS1_EEixEm
	leaq	-408(%rbp), %rbx
	movq	%rbx, %rdi
	movq	%rax, %rsi
	callq	_ZNSt6vectorIdSaIdEEC2ERKS1_
.Ltmp66:
	movq	%r15, %rdi
	movq	%rbx, %rsi
	callq	_ZN3SVM7predictESt6vectorIdSaIdEE
	movl	%eax, %ebx
.Ltmp67:
	jmp	.LBB13_29
.LBB13_29:                              #   in Loop: Header=BB13_22 Depth=2
	movslq	-48(%rbp), %rsi
	movq	%r14, %rdi
	callq	_ZNSt6vectorIiSaIiEEixEm
	subl	(%rax), %ebx
	cvtsi2sd	%ebx, %xmm0
	movsd	%xmm0, -176(%rbp)               # 8-byte Spill
	leaq	-408(%rbp), %rdi
	callq	_ZNSt6vectorIdSaIdEED2Ev
	movsd	-176(%rbp), %xmm0               # 8-byte Reload
                                        # xmm0 = mem[0],zero
	movsd	%xmm0, -288(%rbp)
	movq	%r15, %rdi
	addq	$64, %rdi
	movslq	-44(%rbp), %rsi
	callq	_ZNSt6vectorIdSaIdEEixEm
	movsd	(%rax), %xmm0                   # xmm0 = mem[0],zero
	movsd	%xmm0, -280(%rbp)
	movq	%r15, %rdi
	addq	$64, %rdi
	movslq	-48(%rbp), %rsi
	callq	_ZNSt6vectorIdSaIdEEixEm
	movsd	(%rax), %xmm0                   # xmm0 = mem[0],zero
	movsd	%xmm0, -160(%rbp)
	xorps	%xmm0, %xmm0
	movsd	%xmm0, -272(%rbp)
	movq	%r15, %rdi
	addq	$64, %rdi
	movslq	-44(%rbp), %rsi
	callq	_ZNSt6vectorIdSaIdEEixEm
	movsd	(%rax), %xmm0                   # xmm0 = mem[0],zero
	movsd	%xmm0, -224(%rbp)               # 8-byte Spill
	movq	%r15, %rdi
	addq	$64, %rdi
	movslq	-48(%rbp), %rsi
	callq	_ZNSt6vectorIdSaIdEEixEm
	movsd	-224(%rbp), %xmm0               # 8-byte Reload
                                        # xmm0 = mem[0],zero
	addsd	(%rax), %xmm0
	subsd	(%r15), %xmm0
	movsd	%xmm0, -264(%rbp)
	leaq	-272(%rbp), %rdi
	leaq	-264(%rbp), %rsi
	callq	_ZSt3maxIdERKT_S2_S2_
	movsd	(%rax), %xmm0                   # xmm0 = mem[0],zero
	movsd	%xmm0, -152(%rbp)
	movq	%r15, %rdi
	addq	$64, %rdi
	movslq	-44(%rbp), %rsi
	callq	_ZNSt6vectorIdSaIdEEixEm
	movsd	(%rax), %xmm0                   # xmm0 = mem[0],zero
	movsd	%xmm0, -216(%rbp)               # 8-byte Spill
	movq	%r15, %rdi
	addq	$64, %rdi
	movslq	-48(%rbp), %rsi
	callq	_ZNSt6vectorIdSaIdEEixEm
	movsd	-216(%rbp), %xmm0               # 8-byte Reload
                                        # xmm0 = mem[0],zero
	addsd	(%rax), %xmm0
	movsd	%xmm0, -256(%rbp)
	leaq	-256(%rbp), %rsi
	movq	%r15, %rdi
	callq	_ZSt3minIdERKT_S2_S2_
	movsd	(%rax), %xmm0                   # xmm0 = mem[0],zero
	movsd	%xmm0, -144(%rbp)
	movsd	-152(%rbp), %xmm0               # xmm0 = mem[0],zero
	ucomisd	-144(%rbp), %xmm0
	jne	.LBB13_34
	jp	.LBB13_34
# %bb.30:                               #   in Loop: Header=BB13_22 Depth=2
	jmp	.LBB13_45
.LBB13_31:
.Ltmp62:
	movq	%rax, -96(%rbp)
	movl	%edx, -76(%rbp)
	leaq	-56(%rbp), %rdi
	callq	_ZNSaIdED2Ev
	jmp	.LBB13_49
.LBB13_32:
.Ltmp65:
	movq	%rax, -96(%rbp)
	movl	%edx, -76(%rbp)
	leaq	-432(%rbp), %rdi
	callq	_ZNSt6vectorIdSaIdEED2Ev
	jmp	.LBB13_49
.LBB13_33:
.Ltmp68:
	movq	%rax, -96(%rbp)
	movl	%edx, -76(%rbp)
	leaq	-408(%rbp), %rdi
	callq	_ZNSt6vectorIdSaIdEED2Ev
	jmp	.LBB13_49
.LBB13_34:                              #   in Loop: Header=BB13_22 Depth=2
	movq	%r15, %rdi
	addq	$40, %rdi
	movslq	-44(%rbp), %rsi
	callq	_ZNSt6vectorIS_IdSaIdEESaIS1_EEixEm
	movslq	-48(%rbp), %rsi
	movq	%rax, %rdi
	callq	_ZNSt6vectorIdSaIdEEixEm
	movsd	(%rax), %xmm0                   # xmm0 = mem[0],zero
	movsd	%xmm0, -128(%rbp)               # 8-byte Spill
	movq	%r15, %rdi
	addq	$40, %rdi
	movslq	-44(%rbp), %rsi
	callq	_ZNSt6vectorIS_IdSaIdEESaIS1_EEixEm
	movslq	-44(%rbp), %rsi
	movq	%rax, %rdi
	callq	_ZNSt6vectorIdSaIdEEixEm
	movsd	(%rax), %xmm0                   # xmm0 = mem[0],zero
	movq	%xmm0, %rax
	movabsq	$-9223372036854775808, %rcx     # imm = 0x8000000000000000
	xorq	%rcx, %rax
	movq	%rax, %xmm0
	movsd	-128(%rbp), %xmm1               # 8-byte Reload
                                        # xmm1 = mem[0],zero
	addsd	%xmm1, %xmm1
	addsd	%xmm0, %xmm1
	movsd	%xmm1, -128(%rbp)               # 8-byte Spill
	movq	%r15, %rdi
	addq	$40, %rdi
	movslq	-48(%rbp), %rsi
	callq	_ZNSt6vectorIS_IdSaIdEESaIS1_EEixEm
	movslq	-48(%rbp), %rsi
	movq	%rax, %rdi
	callq	_ZNSt6vectorIdSaIdEEixEm
	movsd	-128(%rbp), %xmm0               # 8-byte Reload
                                        # xmm0 = mem[0],zero
	subsd	(%rax), %xmm0
	movsd	%xmm0, -168(%rbp)
	movsd	-168(%rbp), %xmm0               # xmm0 = mem[0],zero
	xorps	%xmm1, %xmm1
	ucomisd	%xmm1, %xmm0
	jb	.LBB13_36
# %bb.35:                               #   in Loop: Header=BB13_22 Depth=2
	jmp	.LBB13_45
.LBB13_36:                              #   in Loop: Header=BB13_22 Depth=2
	movq	%r15, %rdi
	addq	$64, %rdi
	movslq	-48(%rbp), %rsi
	callq	_ZNSt6vectorIdSaIdEEixEm
	movsd	(%rax), %xmm1                   # xmm1 = mem[0],zero
	movsd	-112(%rbp), %xmm0               # xmm0 = mem[0],zero
	subsd	-288(%rbp), %xmm0
	divsd	-168(%rbp), %xmm0
	subsd	%xmm0, %xmm1
	movsd	%xmm1, -192(%rbp)               # 8-byte Spill
	movq	%r15, %rdi
	addq	$64, %rdi
	movslq	-48(%rbp), %rsi
	callq	_ZNSt6vectorIdSaIdEEixEm
	movsd	-192(%rbp), %xmm0               # 8-byte Reload
                                        # xmm0 = mem[0],zero
	movsd	%xmm0, (%rax)
	movq	%r15, %rdi
	addq	$64, %rdi
	movslq	-48(%rbp), %rsi
	callq	_ZNSt6vectorIdSaIdEEixEm
	movsd	(%rax), %xmm0                   # xmm0 = mem[0],zero
	ucomisd	-144(%rbp), %xmm0
	jbe	.LBB13_38
# %bb.37:                               #   in Loop: Header=BB13_22 Depth=2
	movsd	-144(%rbp), %xmm0               # xmm0 = mem[0],zero
	movsd	%xmm0, -200(%rbp)               # 8-byte Spill
	movq	%r15, %rdi
	addq	$64, %rdi
	movslq	-48(%rbp), %rsi
	callq	_ZNSt6vectorIdSaIdEEixEm
	movsd	-200(%rbp), %xmm0               # 8-byte Reload
                                        # xmm0 = mem[0],zero
	movsd	%xmm0, (%rax)
	jmp	.LBB13_41
.LBB13_38:                              #   in Loop: Header=BB13_22 Depth=2
	movq	%r15, %rdi
	addq	$64, %rdi
	movslq	-48(%rbp), %rsi
	callq	_ZNSt6vectorIdSaIdEEixEm
	movsd	(%rax), %xmm0                   # xmm0 = mem[0],zero
	movsd	-152(%rbp), %xmm1               # xmm1 = mem[0],zero
	ucomisd	%xmm0, %xmm1
	jbe	.LBB13_40
# %bb.39:                               #   in Loop: Header=BB13_22 Depth=2
	movsd	-152(%rbp), %xmm0               # xmm0 = mem[0],zero
	movsd	%xmm0, -208(%rbp)               # 8-byte Spill
	movq	%r15, %rdi
	addq	$64, %rdi
	movslq	-48(%rbp), %rsi
	callq	_ZNSt6vectorIdSaIdEEixEm
	movsd	-208(%rbp), %xmm0               # 8-byte Reload
                                        # xmm0 = mem[0],zero
	movsd	%xmm0, (%rax)
.LBB13_40:                              #   in Loop: Header=BB13_22 Depth=2
	jmp	.LBB13_41
.LBB13_41:                              #   in Loop: Header=BB13_22 Depth=2
	movq	%r15, %rdi
	addq	$64, %rdi
	movslq	-48(%rbp), %rsi
	callq	_ZNSt6vectorIdSaIdEEixEm
	movsd	(%rax), %xmm0                   # xmm0 = mem[0],zero
	subsd	-160(%rbp), %xmm0
	callq	_ZSt3absd
	movsd	32(%r15), %xmm1                 # xmm1 = mem[0],zero
	ucomisd	%xmm0, %xmm1
	jbe	.LBB13_43
# %bb.42:                               #   in Loop: Header=BB13_22 Depth=2
	jmp	.LBB13_45
.LBB13_43:                              #   in Loop: Header=BB13_22 Depth=2
	movq	%r15, %rdi
	addq	$64, %rdi
	movslq	-44(%rbp), %rsi
	callq	_ZNSt6vectorIdSaIdEEixEm
	movsd	(%rax), %xmm0                   # xmm0 = mem[0],zero
	addsd	-160(%rbp), %xmm0
	movsd	%xmm0, -120(%rbp)               # 8-byte Spill
	movq	%r15, %rdi
	addq	$64, %rdi
	movslq	-48(%rbp), %rsi
	callq	_ZNSt6vectorIdSaIdEEixEm
	movsd	-120(%rbp), %xmm0               # 8-byte Reload
                                        # xmm0 = mem[0],zero
	subsd	(%rax), %xmm0
	movsd	%xmm0, -120(%rbp)               # 8-byte Spill
	movq	%r15, %rdi
	addq	$64, %rdi
	movslq	-44(%rbp), %rsi
	callq	_ZNSt6vectorIdSaIdEEixEm
	movsd	-120(%rbp), %xmm0               # 8-byte Reload
                                        # xmm0 = mem[0],zero
	movsd	%xmm0, (%rax)
	movsd	88(%r15), %xmm0                 # xmm0 = mem[0],zero
	addsd	-112(%rbp), %xmm0
	movsd	%xmm0, -248(%rbp)               # 8-byte Spill
	movq	%r15, %rdi
	addq	$64, %rdi
	movslq	-44(%rbp), %rsi
	callq	_ZNSt6vectorIdSaIdEEixEm
	movsd	(%rax), %xmm0                   # xmm0 = mem[0],zero
	subsd	-280(%rbp), %xmm0
	movsd	%xmm0, -136(%rbp)               # 8-byte Spill
	movq	%r15, %rdi
	addq	$40, %rdi
	movslq	-44(%rbp), %rsi
	callq	_ZNSt6vectorIS_IdSaIdEESaIS1_EEixEm
	movslq	-44(%rbp), %rsi
	movq	%rax, %rdi
	callq	_ZNSt6vectorIdSaIdEEixEm
	movsd	(%rax), %xmm0                   # xmm0 = mem[0],zero
	movsd	-136(%rbp), %xmm1               # 8-byte Reload
                                        # xmm1 = mem[0],zero
	mulsd	%xmm0, %xmm1
	addsd	-248(%rbp), %xmm1               # 8-byte Folded Reload
	movsd	%xmm1, -136(%rbp)               # 8-byte Spill
	movq	%r15, %rdi
	addq	$64, %rdi
	movslq	-48(%rbp), %rsi
	callq	_ZNSt6vectorIdSaIdEEixEm
	movsd	(%rax), %xmm0                   # xmm0 = mem[0],zero
	subsd	-160(%rbp), %xmm0
	movsd	%xmm0, -240(%rbp)               # 8-byte Spill
	movq	%r15, %rdi
	addq	$40, %rdi
	movslq	-44(%rbp), %rsi
	callq	_ZNSt6vectorIS_IdSaIdEESaIS1_EEixEm
	movslq	-48(%rbp), %rsi
	movq	%rax, %rdi
	callq	_ZNSt6vectorIdSaIdEEixEm
	movsd	(%rax), %xmm0                   # xmm0 = mem[0],zero
	movsd	-240(%rbp), %xmm1               # 8-byte Reload
                                        # xmm1 = mem[0],zero
	mulsd	%xmm0, %xmm1
	addsd	-136(%rbp), %xmm1               # 8-byte Folded Reload
	movsd	%xmm1, 88(%r15)
.LBB13_44:                              #   in Loop: Header=BB13_22 Depth=2
	jmp	.LBB13_45
.LBB13_45:                              #   in Loop: Header=BB13_22 Depth=2
	movl	-44(%rbp), %eax
	addl	$1, %eax
	movl	%eax, -44(%rbp)
	jmp	.LBB13_22
.LBB13_46:                              #   in Loop: Header=BB13_20 Depth=1
	jmp	.LBB13_47
.LBB13_47:                              #   in Loop: Header=BB13_20 Depth=1
	movl	-100(%rbp), %eax
	addl	$1, %eax
	movl	%eax, -100(%rbp)
	jmp	.LBB13_20
.LBB13_48:
	addq	$440, %rsp                      # imm = 0x1B8
	popq	%rbx
	popq	%r12
	popq	%r13
	popq	%r14
	popq	%r15
	popq	%rbp
	.cfi_def_cfa %rsp, 8
	retq
.LBB13_49:
	.cfi_def_cfa %rbp, 16
	movq	-96(%rbp), %rdi
	callq	_Unwind_Resume@PLT
.Lfunc_end13:
	.size	_ZN3SVM3fitESt6vectorIS0_IdSaIdEESaIS2_EES0_IiSaIiEE, .Lfunc_end13-_ZN3SVM3fitESt6vectorIS0_IdSaIdEESaIS2_EES0_IiSaIiEE
	.cfi_endproc
	.section	.gcc_except_table._ZN3SVM3fitESt6vectorIS0_IdSaIdEESaIS2_EES0_IiSaIiEE,"aG",@progbits,_ZN3SVM3fitESt6vectorIS0_IdSaIdEESaIS2_EES0_IiSaIiEE,comdat
	.p2align	2
GCC_except_table13:
.Lexception5:
	.byte	255                             # @LPStart Encoding = omit
	.byte	255                             # @TType Encoding = omit
	.byte	1                               # Call site Encoding = uleb128
	.uleb128 .Lcst_end5-.Lcst_begin5
.Lcst_begin5:
	.uleb128 .Ltmp54-.Lfunc_begin5          # >> Call Site 1 <<
	.uleb128 .Ltmp55-.Ltmp54                #   Call between .Ltmp54 and .Ltmp55
	.uleb128 .Ltmp56-.Lfunc_begin5          #     jumps to .Ltmp56
	.byte	0                               #   On action: cleanup
	.uleb128 .Ltmp57-.Lfunc_begin5          # >> Call Site 2 <<
	.uleb128 .Ltmp58-.Ltmp57                #   Call between .Ltmp57 and .Ltmp58
	.uleb128 .Ltmp59-.Lfunc_begin5          #     jumps to .Ltmp59
	.byte	0                               #   On action: cleanup
	.uleb128 .Ltmp58-.Lfunc_begin5          # >> Call Site 3 <<
	.uleb128 .Ltmp69-.Ltmp58                #   Call between .Ltmp58 and .Ltmp69
	.byte	0                               #     has no landing pad
	.byte	0                               #   On action: cleanup
	.uleb128 .Ltmp69-.Lfunc_begin5          # >> Call Site 4 <<
	.uleb128 .Ltmp70-.Ltmp69                #   Call between .Ltmp69 and .Ltmp70
	.uleb128 .Ltmp71-.Lfunc_begin5          #     jumps to .Ltmp71
	.byte	0                               #   On action: cleanup
	.uleb128 .Ltmp72-.Lfunc_begin5          # >> Call Site 5 <<
	.uleb128 .Ltmp73-.Ltmp72                #   Call between .Ltmp72 and .Ltmp73
	.uleb128 .Ltmp74-.Lfunc_begin5          #     jumps to .Ltmp74
	.byte	0                               #   On action: cleanup
	.uleb128 .Ltmp60-.Lfunc_begin5          # >> Call Site 6 <<
	.uleb128 .Ltmp61-.Ltmp60                #   Call between .Ltmp60 and .Ltmp61
	.uleb128 .Ltmp62-.Lfunc_begin5          #     jumps to .Ltmp62
	.byte	0                               #   On action: cleanup
	.uleb128 .Ltmp61-.Lfunc_begin5          # >> Call Site 7 <<
	.uleb128 .Ltmp63-.Ltmp61                #   Call between .Ltmp61 and .Ltmp63
	.byte	0                               #     has no landing pad
	.byte	0                               #   On action: cleanup
	.uleb128 .Ltmp63-.Lfunc_begin5          # >> Call Site 8 <<
	.uleb128 .Ltmp64-.Ltmp63                #   Call between .Ltmp63 and .Ltmp64
	.uleb128 .Ltmp65-.Lfunc_begin5          #     jumps to .Ltmp65
	.byte	0                               #   On action: cleanup
	.uleb128 .Ltmp64-.Lfunc_begin5          # >> Call Site 9 <<
	.uleb128 .Ltmp66-.Ltmp64                #   Call between .Ltmp64 and .Ltmp66
	.byte	0                               #     has no landing pad
	.byte	0                               #   On action: cleanup
	.uleb128 .Ltmp66-.Lfunc_begin5          # >> Call Site 10 <<
	.uleb128 .Ltmp67-.Ltmp66                #   Call between .Ltmp66 and .Ltmp67
	.uleb128 .Ltmp68-.Lfunc_begin5          #     jumps to .Ltmp68
	.byte	0                               #   On action: cleanup
	.uleb128 .Ltmp67-.Lfunc_begin5          # >> Call Site 11 <<
	.uleb128 .Lfunc_end13-.Ltmp67           #   Call between .Ltmp67 and .Lfunc_end13
	.byte	0                               #     has no landing pad
	.byte	0                               #   On action: cleanup
.Lcst_end5:
	.p2align	2
                                        # -- End function
	.section	.text._ZNSt6vectorIS_IdSaIdEESaIS1_EEC2ERKS3_,"axG",@progbits,_ZNSt6vectorIS_IdSaIdEESaIS1_EEC2ERKS3_,comdat
	.weak	_ZNSt6vectorIS_IdSaIdEESaIS1_EEC2ERKS3_ # -- Begin function _ZNSt6vectorIS_IdSaIdEESaIS1_EEC2ERKS3_
	.p2align	4, 0x90
	.type	_ZNSt6vectorIS_IdSaIdEESaIS1_EEC2ERKS3_,@function
_ZNSt6vectorIS_IdSaIdEESaIS1_EEC2ERKS3_: # @_ZNSt6vectorIS_IdSaIdEESaIS1_EEC2ERKS3_
.Lfunc_begin6:
	.cfi_startproc
	.cfi_personality 3, __gxx_personality_v0
	.cfi_lsda 3, .Lexception6
# %bb.0:
	pushq	%rbp
	.cfi_def_cfa_offset 16
	.cfi_offset %rbp, -16
	movq	%rsp, %rbp
	.cfi_def_cfa_register %rbp
	pushq	%r15
	pushq	%r14
	pushq	%rbx
	subq	$56, %rsp
	.cfi_offset %rbx, -40
	.cfi_offset %r14, -32
	.cfi_offset %r15, -24
	movq	%rdi, -80(%rbp)
	movq	%rsi, -40(%rbp)
	movq	-80(%rbp), %r14
	movq	-40(%rbp), %rdi
	callq	_ZNKSt6vectorIS_IdSaIdEESaIS1_EE4sizeEv
	movq	%rax, %rbx
	movq	-40(%rbp), %rdi
	callq	_ZNKSt12_Vector_baseISt6vectorIdSaIdEESaIS2_EE19_M_get_Tp_allocatorEv
	leaq	-32(%rbp), %r15
	movq	%r15, %rdi
	movq	%rax, %rsi
	callq	_ZN9__gnu_cxx14__alloc_traitsISaISt6vectorIdSaIdEEES3_E17_S_select_on_copyERKS4_
.Ltmp75:
	movq	%r14, %rdi
	movq	%rbx, %rsi
	movq	%r15, %rdx
	callq	_ZNSt12_Vector_baseISt6vectorIdSaIdEESaIS2_EEC2EmRKS3_
.Ltmp76:
	jmp	.LBB14_1
.LBB14_1:
	leaq	-32(%rbp), %rdi
	callq	_ZNSaISt6vectorIdSaIdEEED2Ev
	movq	-40(%rbp), %rdi
	callq	_ZNKSt6vectorIS_IdSaIdEESaIS1_EE5beginEv
	movq	%rax, -72(%rbp)
	movq	-40(%rbp), %rdi
	callq	_ZNKSt6vectorIS_IdSaIdEESaIS1_EE3endEv
	movq	%rax, -64(%rbp)
	movq	(%r14), %rbx
	movq	%r14, %rdi
	callq	_ZNSt12_Vector_baseISt6vectorIdSaIdEESaIS2_EE19_M_get_Tp_allocatorEv
	movq	-72(%rbp), %rdi
	movq	-64(%rbp), %rsi
.Ltmp78:
	movq	%rbx, %rdx
	movq	%rax, %rcx
	callq	_ZSt22__uninitialized_copy_aIN9__gnu_cxx17__normal_iteratorIPKSt6vectorIdSaIdEES2_IS4_SaIS4_EEEEPS4_S4_ET0_T_SC_SB_RSaIT1_E
.Ltmp79:
	jmp	.LBB14_2
.LBB14_2:
	movq	%rax, 8(%r14)
	addq	$56, %rsp
	popq	%rbx
	popq	%r14
	popq	%r15
	popq	%rbp
	.cfi_def_cfa %rsp, 8
	retq
.LBB14_3:
	.cfi_def_cfa %rbp, 16
.Ltmp77:
	movq	%rax, -56(%rbp)
	movl	%edx, -44(%rbp)
	leaq	-32(%rbp), %rdi
	callq	_ZNSaISt6vectorIdSaIdEEED2Ev
	jmp	.LBB14_5
.LBB14_4:
.Ltmp80:
	movq	%rax, -56(%rbp)
	movl	%edx, -44(%rbp)
	movq	%r14, %rdi
	callq	_ZNSt12_Vector_baseISt6vectorIdSaIdEESaIS2_EED2Ev
.LBB14_5:
	movq	-56(%rbp), %rdi
	callq	_Unwind_Resume@PLT
.Lfunc_end14:
	.size	_ZNSt6vectorIS_IdSaIdEESaIS1_EEC2ERKS3_, .Lfunc_end14-_ZNSt6vectorIS_IdSaIdEESaIS1_EEC2ERKS3_
	.cfi_endproc
	.section	.gcc_except_table._ZNSt6vectorIS_IdSaIdEESaIS1_EEC2ERKS3_,"aG",@progbits,_ZNSt6vectorIS_IdSaIdEESaIS1_EEC2ERKS3_,comdat
	.p2align	2
GCC_except_table14:
.Lexception6:
	.byte	255                             # @LPStart Encoding = omit
	.byte	255                             # @TType Encoding = omit
	.byte	1                               # Call site Encoding = uleb128
	.uleb128 .Lcst_end6-.Lcst_begin6
.Lcst_begin6:
	.uleb128 .Lfunc_begin6-.Lfunc_begin6    # >> Call Site 1 <<
	.uleb128 .Ltmp75-.Lfunc_begin6          #   Call between .Lfunc_begin6 and .Ltmp75
	.byte	0                               #     has no landing pad
	.byte	0                               #   On action: cleanup
	.uleb128 .Ltmp75-.Lfunc_begin6          # >> Call Site 2 <<
	.uleb128 .Ltmp76-.Ltmp75                #   Call between .Ltmp75 and .Ltmp76
	.uleb128 .Ltmp77-.Lfunc_begin6          #     jumps to .Ltmp77
	.byte	0                               #   On action: cleanup
	.uleb128 .Ltmp78-.Lfunc_begin6          # >> Call Site 3 <<
	.uleb128 .Ltmp79-.Ltmp78                #   Call between .Ltmp78 and .Ltmp79
	.uleb128 .Ltmp80-.Lfunc_begin6          #     jumps to .Ltmp80
	.byte	0                               #   On action: cleanup
	.uleb128 .Ltmp79-.Lfunc_begin6          # >> Call Site 4 <<
	.uleb128 .Lfunc_end14-.Ltmp79           #   Call between .Ltmp79 and .Lfunc_end14
	.byte	0                               #     has no landing pad
	.byte	0                               #   On action: cleanup
.Lcst_end6:
	.p2align	2
                                        # -- End function
	.section	.text._ZNSt6vectorIiSaIiEEC2ERKS1_,"axG",@progbits,_ZNSt6vectorIiSaIiEEC2ERKS1_,comdat
	.weak	_ZNSt6vectorIiSaIiEEC2ERKS1_    # -- Begin function _ZNSt6vectorIiSaIiEEC2ERKS1_
	.p2align	4, 0x90
	.type	_ZNSt6vectorIiSaIiEEC2ERKS1_,@function
_ZNSt6vectorIiSaIiEEC2ERKS1_:           # @_ZNSt6vectorIiSaIiEEC2ERKS1_
.Lfunc_begin7:
	.cfi_startproc
	.cfi_personality 3, __gxx_personality_v0
	.cfi_lsda 3, .Lexception7
# %bb.0:
	pushq	%rbp
	.cfi_def_cfa_offset 16
	.cfi_offset %rbp, -16
	movq	%rsp, %rbp
	.cfi_def_cfa_register %rbp
	pushq	%r15
	pushq	%r14
	pushq	%rbx
	subq	$56, %rsp
	.cfi_offset %rbx, -40
	.cfi_offset %r14, -32
	.cfi_offset %r15, -24
	movq	%rdi, -80(%rbp)
	movq	%rsi, -40(%rbp)
	movq	-80(%rbp), %r14
	movq	-40(%rbp), %rdi
	callq	_ZNKSt6vectorIiSaIiEE4sizeEv
	movq	%rax, %rbx
	movq	-40(%rbp), %rdi
	callq	_ZNKSt12_Vector_baseIiSaIiEE19_M_get_Tp_allocatorEv
	leaq	-32(%rbp), %r15
	movq	%r15, %rdi
	movq	%rax, %rsi
	callq	_ZN9__gnu_cxx14__alloc_traitsISaIiEiE17_S_select_on_copyERKS1_
.Ltmp81:
	movq	%r14, %rdi
	movq	%rbx, %rsi
	movq	%r15, %rdx
	callq	_ZNSt12_Vector_baseIiSaIiEEC2EmRKS0_
.Ltmp82:
	jmp	.LBB15_1
.LBB15_1:
	leaq	-32(%rbp), %rdi
	callq	_ZNSaIiED2Ev
	movq	-40(%rbp), %rdi
	callq	_ZNKSt6vectorIiSaIiEE5beginEv
	movq	%rax, -72(%rbp)
	movq	-40(%rbp), %rdi
	callq	_ZNKSt6vectorIiSaIiEE3endEv
	movq	%rax, -64(%rbp)
	movq	(%r14), %rbx
	movq	%r14, %rdi
	callq	_ZNSt12_Vector_baseIiSaIiEE19_M_get_Tp_allocatorEv
	movq	-72(%rbp), %rdi
	movq	-64(%rbp), %rsi
.Ltmp84:
	movq	%rbx, %rdx
	movq	%rax, %rcx
	callq	_ZSt22__uninitialized_copy_aIN9__gnu_cxx17__normal_iteratorIPKiSt6vectorIiSaIiEEEEPiiET0_T_SA_S9_RSaIT1_E
.Ltmp85:
	jmp	.LBB15_2
.LBB15_2:
	movq	%rax, 8(%r14)
	addq	$56, %rsp
	popq	%rbx
	popq	%r14
	popq	%r15
	popq	%rbp
	.cfi_def_cfa %rsp, 8
	retq
.LBB15_3:
	.cfi_def_cfa %rbp, 16
.Ltmp83:
	movq	%rax, -56(%rbp)
	movl	%edx, -44(%rbp)
	leaq	-32(%rbp), %rdi
	callq	_ZNSaIiED2Ev
	jmp	.LBB15_5
.LBB15_4:
.Ltmp86:
	movq	%rax, -56(%rbp)
	movl	%edx, -44(%rbp)
	movq	%r14, %rdi
	callq	_ZNSt12_Vector_baseIiSaIiEED2Ev
.LBB15_5:
	movq	-56(%rbp), %rdi
	callq	_Unwind_Resume@PLT
.Lfunc_end15:
	.size	_ZNSt6vectorIiSaIiEEC2ERKS1_, .Lfunc_end15-_ZNSt6vectorIiSaIiEEC2ERKS1_
	.cfi_endproc
	.section	.gcc_except_table._ZNSt6vectorIiSaIiEEC2ERKS1_,"aG",@progbits,_ZNSt6vectorIiSaIiEEC2ERKS1_,comdat
	.p2align	2
GCC_except_table15:
.Lexception7:
	.byte	255                             # @LPStart Encoding = omit
	.byte	255                             # @TType Encoding = omit
	.byte	1                               # Call site Encoding = uleb128
	.uleb128 .Lcst_end7-.Lcst_begin7
.Lcst_begin7:
	.uleb128 .Lfunc_begin7-.Lfunc_begin7    # >> Call Site 1 <<
	.uleb128 .Ltmp81-.Lfunc_begin7          #   Call between .Lfunc_begin7 and .Ltmp81
	.byte	0                               #     has no landing pad
	.byte	0                               #   On action: cleanup
	.uleb128 .Ltmp81-.Lfunc_begin7          # >> Call Site 2 <<
	.uleb128 .Ltmp82-.Ltmp81                #   Call between .Ltmp81 and .Ltmp82
	.uleb128 .Ltmp83-.Lfunc_begin7          #     jumps to .Ltmp83
	.byte	0                               #   On action: cleanup
	.uleb128 .Ltmp84-.Lfunc_begin7          # >> Call Site 3 <<
	.uleb128 .Ltmp85-.Ltmp84                #   Call between .Ltmp84 and .Ltmp85
	.uleb128 .Ltmp86-.Lfunc_begin7          #     jumps to .Ltmp86
	.byte	0                               #   On action: cleanup
	.uleb128 .Ltmp85-.Lfunc_begin7          # >> Call Site 4 <<
	.uleb128 .Lfunc_end15-.Ltmp85           #   Call between .Ltmp85 and .Lfunc_end15
	.byte	0                               #     has no landing pad
	.byte	0                               #   On action: cleanup
.Lcst_end7:
	.p2align	2
                                        # -- End function
	.section	.text._ZNSt6vectorIiSaIiEED2Ev,"axG",@progbits,_ZNSt6vectorIiSaIiEED2Ev,comdat
	.weak	_ZNSt6vectorIiSaIiEED2Ev        # -- Begin function _ZNSt6vectorIiSaIiEED2Ev
	.p2align	4, 0x90
	.type	_ZNSt6vectorIiSaIiEED2Ev,@function
_ZNSt6vectorIiSaIiEED2Ev:               # @_ZNSt6vectorIiSaIiEED2Ev
.Lfunc_begin8:
	.cfi_startproc
	.cfi_personality 3, __gxx_personality_v0
	.cfi_lsda 3, .Lexception8
# %bb.0:
	pushq	%rbp
	.cfi_def_cfa_offset 16
	.cfi_offset %rbp, -16
	movq	%rsp, %rbp
	.cfi_def_cfa_register %rbp
	pushq	%r15
	pushq	%r14
	pushq	%rbx
	subq	$24, %rsp
	.cfi_offset %rbx, -40
	.cfi_offset %r14, -32
	.cfi_offset %r15, -24
	movq	%rdi, -40(%rbp)
	movq	-40(%rbp), %rbx
	movq	(%rbx), %r14
	movq	8(%rbx), %r15
	movq	%rbx, %rdi
	callq	_ZNSt12_Vector_baseIiSaIiEE19_M_get_Tp_allocatorEv
.Ltmp87:
	movq	%r14, %rdi
	movq	%r15, %rsi
	movq	%rax, %rdx
	callq	_ZSt8_DestroyIPiiEvT_S1_RSaIT0_E
.Ltmp88:
	jmp	.LBB16_1
.LBB16_1:
	movq	%rbx, %rdi
	callq	_ZNSt12_Vector_baseIiSaIiEED2Ev
	addq	$24, %rsp
	popq	%rbx
	popq	%r14
	popq	%r15
	popq	%rbp
	.cfi_def_cfa %rsp, 8
	retq
.LBB16_2:
	.cfi_def_cfa %rbp, 16
.Ltmp89:
	movq	%rax, -32(%rbp)
	movl	%edx, -44(%rbp)
	movq	%rbx, %rdi
	callq	_ZNSt12_Vector_baseIiSaIiEED2Ev
# %bb.3:
	movq	-32(%rbp), %rdi
	callq	__clang_call_terminate
.Lfunc_end16:
	.size	_ZNSt6vectorIiSaIiEED2Ev, .Lfunc_end16-_ZNSt6vectorIiSaIiEED2Ev
	.cfi_endproc
	.section	.gcc_except_table._ZNSt6vectorIiSaIiEED2Ev,"aG",@progbits,_ZNSt6vectorIiSaIiEED2Ev,comdat
	.p2align	2
GCC_except_table16:
.Lexception8:
	.byte	255                             # @LPStart Encoding = omit
	.byte	3                               # @TType Encoding = udata4
	.uleb128 .Lttbase1-.Lttbaseref1
.Lttbaseref1:
	.byte	1                               # Call site Encoding = uleb128
	.uleb128 .Lcst_end8-.Lcst_begin8
.Lcst_begin8:
	.uleb128 .Ltmp87-.Lfunc_begin8          # >> Call Site 1 <<
	.uleb128 .Ltmp88-.Ltmp87                #   Call between .Ltmp87 and .Ltmp88
	.uleb128 .Ltmp89-.Lfunc_begin8          #     jumps to .Ltmp89
	.byte	1                               #   On action: 1
.Lcst_end8:
	.byte	1                               # >> Action Record 1 <<
                                        #   Catch TypeInfo 1
	.byte	0                               #   No further actions
	.p2align	2
                                        # >> Catch TypeInfos <<
	.long	0                               # TypeInfo 1
.Lttbase1:
	.p2align	2
                                        # -- End function
	.section	.text._ZNSt6vectorIS_IdSaIdEESaIS1_EED2Ev,"axG",@progbits,_ZNSt6vectorIS_IdSaIdEESaIS1_EED2Ev,comdat
	.weak	_ZNSt6vectorIS_IdSaIdEESaIS1_EED2Ev # -- Begin function _ZNSt6vectorIS_IdSaIdEESaIS1_EED2Ev
	.p2align	4, 0x90
	.type	_ZNSt6vectorIS_IdSaIdEESaIS1_EED2Ev,@function
_ZNSt6vectorIS_IdSaIdEESaIS1_EED2Ev:    # @_ZNSt6vectorIS_IdSaIdEESaIS1_EED2Ev
.Lfunc_begin9:
	.cfi_startproc
	.cfi_personality 3, __gxx_personality_v0
	.cfi_lsda 3, .Lexception9
# %bb.0:
	pushq	%rbp
	.cfi_def_cfa_offset 16
	.cfi_offset %rbp, -16
	movq	%rsp, %rbp
	.cfi_def_cfa_register %rbp
	pushq	%r15
	pushq	%r14
	pushq	%rbx
	subq	$24, %rsp
	.cfi_offset %rbx, -40
	.cfi_offset %r14, -32
	.cfi_offset %r15, -24
	movq	%rdi, -40(%rbp)
	movq	-40(%rbp), %rbx
	movq	(%rbx), %r14
	movq	8(%rbx), %r15
	movq	%rbx, %rdi
	callq	_ZNSt12_Vector_baseISt6vectorIdSaIdEESaIS2_EE19_M_get_Tp_allocatorEv
.Ltmp90:
	movq	%r14, %rdi
	movq	%r15, %rsi
	movq	%rax, %rdx
	callq	_ZSt8_DestroyIPSt6vectorIdSaIdEES2_EvT_S4_RSaIT0_E
.Ltmp91:
	jmp	.LBB17_1
.LBB17_1:
	movq	%rbx, %rdi
	callq	_ZNSt12_Vector_baseISt6vectorIdSaIdEESaIS2_EED2Ev
	addq	$24, %rsp
	popq	%rbx
	popq	%r14
	popq	%r15
	popq	%rbp
	.cfi_def_cfa %rsp, 8
	retq
.LBB17_2:
	.cfi_def_cfa %rbp, 16
.Ltmp92:
	movq	%rax, -32(%rbp)
	movl	%edx, -44(%rbp)
	movq	%rbx, %rdi
	callq	_ZNSt12_Vector_baseISt6vectorIdSaIdEESaIS2_EED2Ev
# %bb.3:
	movq	-32(%rbp), %rdi
	callq	__clang_call_terminate
.Lfunc_end17:
	.size	_ZNSt6vectorIS_IdSaIdEESaIS1_EED2Ev, .Lfunc_end17-_ZNSt6vectorIS_IdSaIdEESaIS1_EED2Ev
	.cfi_endproc
	.section	.gcc_except_table._ZNSt6vectorIS_IdSaIdEESaIS1_EED2Ev,"aG",@progbits,_ZNSt6vectorIS_IdSaIdEESaIS1_EED2Ev,comdat
	.p2align	2
GCC_except_table17:
.Lexception9:
	.byte	255                             # @LPStart Encoding = omit
	.byte	3                               # @TType Encoding = udata4
	.uleb128 .Lttbase2-.Lttbaseref2
.Lttbaseref2:
	.byte	1                               # Call site Encoding = uleb128
	.uleb128 .Lcst_end9-.Lcst_begin9
.Lcst_begin9:
	.uleb128 .Ltmp90-.Lfunc_begin9          # >> Call Site 1 <<
	.uleb128 .Ltmp91-.Ltmp90                #   Call between .Ltmp90 and .Ltmp91
	.uleb128 .Ltmp92-.Lfunc_begin9          #     jumps to .Ltmp92
	.byte	1                               #   On action: 1
.Lcst_end9:
	.byte	1                               # >> Action Record 1 <<
                                        #   Catch TypeInfo 1
	.byte	0                               #   No further actions
	.p2align	2
                                        # >> Catch TypeInfos <<
	.long	0                               # TypeInfo 1
.Lttbase2:
	.p2align	2
                                        # -- End function
	.section	.text._ZN3SVM7predictESt6vectorIdSaIdEE,"axG",@progbits,_ZN3SVM7predictESt6vectorIdSaIdEE,comdat
	.weak	_ZN3SVM7predictESt6vectorIdSaIdEE # -- Begin function _ZN3SVM7predictESt6vectorIdSaIdEE
	.p2align	4, 0x90
	.type	_ZN3SVM7predictESt6vectorIdSaIdEE,@function
_ZN3SVM7predictESt6vectorIdSaIdEE:      # @_ZN3SVM7predictESt6vectorIdSaIdEE
.Lfunc_begin10:
	.cfi_startproc
	.cfi_personality 3, __gxx_personality_v0
	.cfi_lsda 3, .Lexception10
# %bb.0:
	pushq	%rbp
	.cfi_def_cfa_offset 16
	.cfi_offset %rbp, -16
	movq	%rsp, %rbp
	.cfi_def_cfa_register %rbp
	pushq	%r15
	pushq	%r14
	pushq	%rbx
	subq	$104, %rsp
	.cfi_offset %rbx, -40
	.cfi_offset %r14, -32
	.cfi_offset %r15, -24
	movq	%rsi, %r14
	movq	%rdi, -72(%rbp)
	movq	-72(%rbp), %r15
	xorps	%xmm0, %xmm0
	movsd	%xmm0, -48(%rbp)
	movl	$0, -28(%rbp)
.LBB18_1:                               # =>This Inner Loop Header: Depth=1
	movslq	-28(%rbp), %rbx
	movq	%r15, %rdi
	addq	$64, %rdi
	callq	_ZNKSt6vectorIdSaIdEE4sizeEv
	cmpq	%rax, %rbx
	jae	.LBB18_9
# %bb.2:                                #   in Loop: Header=BB18_1 Depth=1
	movq	%r15, %rdi
	addq	$64, %rdi
	movslq	-28(%rbp), %rsi
	callq	_ZNSt6vectorIdSaIdEEixEm
	movsd	(%rax), %xmm0                   # xmm0 = mem[0],zero
	movsd	%xmm0, -40(%rbp)                # 8-byte Spill
	movq	%r15, %rdi
	addq	$120, %rdi
	movslq	-28(%rbp), %rsi
	callq	_ZNSt6vectorIiSaIiEEixEm
	cvtsi2sdl	(%rax), %xmm0
	movsd	-40(%rbp), %xmm1                # 8-byte Reload
                                        # xmm1 = mem[0],zero
	mulsd	%xmm0, %xmm1
	movsd	%xmm1, -40(%rbp)                # 8-byte Spill
	leaq	-120(%rbp), %rdi
	movq	%r14, %rsi
	callq	_ZNSt6vectorIdSaIdEEC2ERKS1_
	movq	%r15, %rdi
	addq	$96, %rdi
	movslq	-28(%rbp), %rsi
	callq	_ZNSt6vectorIS_IdSaIdEESaIS1_EEixEm
.Ltmp93:
	leaq	-96(%rbp), %rdi
	movq	%rax, %rsi
	callq	_ZNSt6vectorIdSaIdEEC2ERKS1_
.Ltmp94:
	jmp	.LBB18_3
.LBB18_3:                               #   in Loop: Header=BB18_1 Depth=1
.Ltmp96:
	leaq	-120(%rbp), %rsi
	leaq	-96(%rbp), %rdx
	movq	%r15, %rdi
	callq	_ZN3SVM6kernelESt6vectorIdSaIdEES2_
.Ltmp97:
	jmp	.LBB18_4
.LBB18_4:                               #   in Loop: Header=BB18_1 Depth=1
	movsd	-48(%rbp), %xmm1                # xmm1 = mem[0],zero
	movsd	-40(%rbp), %xmm2                # 8-byte Reload
                                        # xmm2 = mem[0],zero
	mulsd	%xmm0, %xmm2
	addsd	%xmm1, %xmm2
	movsd	%xmm2, -48(%rbp)
	leaq	-96(%rbp), %rdi
	callq	_ZNSt6vectorIdSaIdEED2Ev
	leaq	-120(%rbp), %rdi
	callq	_ZNSt6vectorIdSaIdEED2Ev
# %bb.5:                                #   in Loop: Header=BB18_1 Depth=1
	movl	-28(%rbp), %eax
	addl	$1, %eax
	movl	%eax, -28(%rbp)
	jmp	.LBB18_1
.LBB18_6:
.Ltmp95:
	movq	%rax, -64(%rbp)
	movl	%edx, -52(%rbp)
	jmp	.LBB18_8
.LBB18_7:
.Ltmp98:
	movq	%rax, -64(%rbp)
	movl	%edx, -52(%rbp)
	leaq	-96(%rbp), %rdi
	callq	_ZNSt6vectorIdSaIdEED2Ev
.LBB18_8:
	leaq	-120(%rbp), %rdi
	callq	_ZNSt6vectorIdSaIdEED2Ev
	jmp	.LBB18_10
.LBB18_9:
	movsd	-48(%rbp), %xmm0                # xmm0 = mem[0],zero
	addsd	88(%r15), %xmm0
	xorps	%xmm1, %xmm1
	movl	$4294967295, %eax               # imm = 0xFFFFFFFF
	movl	$1, %ecx
	ucomisd	%xmm1, %xmm0
	cmovael	%ecx, %eax
	addq	$104, %rsp
	popq	%rbx
	popq	%r14
	popq	%r15
	popq	%rbp
	.cfi_def_cfa %rsp, 8
	retq
.LBB18_10:
	.cfi_def_cfa %rbp, 16
	movq	-64(%rbp), %rdi
	callq	_Unwind_Resume@PLT
.Lfunc_end18:
	.size	_ZN3SVM7predictESt6vectorIdSaIdEE, .Lfunc_end18-_ZN3SVM7predictESt6vectorIdSaIdEE
	.cfi_endproc
	.section	.gcc_except_table._ZN3SVM7predictESt6vectorIdSaIdEE,"aG",@progbits,_ZN3SVM7predictESt6vectorIdSaIdEE,comdat
	.p2align	2
GCC_except_table18:
.Lexception10:
	.byte	255                             # @LPStart Encoding = omit
	.byte	255                             # @TType Encoding = omit
	.byte	1                               # Call site Encoding = uleb128
	.uleb128 .Lcst_end10-.Lcst_begin10
.Lcst_begin10:
	.uleb128 .Lfunc_begin10-.Lfunc_begin10  # >> Call Site 1 <<
	.uleb128 .Ltmp93-.Lfunc_begin10         #   Call between .Lfunc_begin10 and .Ltmp93
	.byte	0                               #     has no landing pad
	.byte	0                               #   On action: cleanup
	.uleb128 .Ltmp93-.Lfunc_begin10         # >> Call Site 2 <<
	.uleb128 .Ltmp94-.Ltmp93                #   Call between .Ltmp93 and .Ltmp94
	.uleb128 .Ltmp95-.Lfunc_begin10         #     jumps to .Ltmp95
	.byte	0                               #   On action: cleanup
	.uleb128 .Ltmp96-.Lfunc_begin10         # >> Call Site 3 <<
	.uleb128 .Ltmp97-.Ltmp96                #   Call between .Ltmp96 and .Ltmp97
	.uleb128 .Ltmp98-.Lfunc_begin10         #     jumps to .Ltmp98
	.byte	0                               #   On action: cleanup
	.uleb128 .Ltmp97-.Lfunc_begin10         # >> Call Site 4 <<
	.uleb128 .Lfunc_end18-.Ltmp97           #   Call between .Ltmp97 and .Lfunc_end18
	.byte	0                               #     has no landing pad
	.byte	0                               #   On action: cleanup
.Lcst_end10:
	.p2align	2
                                        # -- End function
	.section	.text._ZNSt6vectorIdSaIdEEC2ERKS1_,"axG",@progbits,_ZNSt6vectorIdSaIdEEC2ERKS1_,comdat
	.weak	_ZNSt6vectorIdSaIdEEC2ERKS1_    # -- Begin function _ZNSt6vectorIdSaIdEEC2ERKS1_
	.p2align	4, 0x90
	.type	_ZNSt6vectorIdSaIdEEC2ERKS1_,@function
_ZNSt6vectorIdSaIdEEC2ERKS1_:           # @_ZNSt6vectorIdSaIdEEC2ERKS1_
.Lfunc_begin11:
	.cfi_startproc
	.cfi_personality 3, __gxx_personality_v0
	.cfi_lsda 3, .Lexception11
# %bb.0:
	pushq	%rbp
	.cfi_def_cfa_offset 16
	.cfi_offset %rbp, -16
	movq	%rsp, %rbp
	.cfi_def_cfa_register %rbp
	pushq	%r15
	pushq	%r14
	pushq	%rbx
	subq	$56, %rsp
	.cfi_offset %rbx, -40
	.cfi_offset %r14, -32
	.cfi_offset %r15, -24
	movq	%rdi, -80(%rbp)
	movq	%rsi, -40(%rbp)
	movq	-80(%rbp), %r14
	movq	-40(%rbp), %rdi
	callq	_ZNKSt6vectorIdSaIdEE4sizeEv
	movq	%rax, %rbx
	movq	-40(%rbp), %rdi
	callq	_ZNKSt12_Vector_baseIdSaIdEE19_M_get_Tp_allocatorEv
	leaq	-32(%rbp), %r15
	movq	%r15, %rdi
	movq	%rax, %rsi
	callq	_ZN9__gnu_cxx14__alloc_traitsISaIdEdE17_S_select_on_copyERKS1_
.Ltmp99:
	movq	%r14, %rdi
	movq	%rbx, %rsi
	movq	%r15, %rdx
	callq	_ZNSt12_Vector_baseIdSaIdEEC2EmRKS0_
.Ltmp100:
	jmp	.LBB19_1
.LBB19_1:
	leaq	-32(%rbp), %rdi
	callq	_ZNSaIdED2Ev
	movq	-40(%rbp), %rdi
	callq	_ZNKSt6vectorIdSaIdEE5beginEv
	movq	%rax, -72(%rbp)
	movq	-40(%rbp), %rdi
	callq	_ZNKSt6vectorIdSaIdEE3endEv
	movq	%rax, -64(%rbp)
	movq	(%r14), %rbx
	movq	%r14, %rdi
	callq	_ZNSt12_Vector_baseIdSaIdEE19_M_get_Tp_allocatorEv
	movq	-72(%rbp), %rdi
	movq	-64(%rbp), %rsi
.Ltmp102:
	movq	%rbx, %rdx
	movq	%rax, %rcx
	callq	_ZSt22__uninitialized_copy_aIN9__gnu_cxx17__normal_iteratorIPKdSt6vectorIdSaIdEEEEPddET0_T_SA_S9_RSaIT1_E
.Ltmp103:
	jmp	.LBB19_2
.LBB19_2:
	movq	%rax, 8(%r14)
	addq	$56, %rsp
	popq	%rbx
	popq	%r14
	popq	%r15
	popq	%rbp
	.cfi_def_cfa %rsp, 8
	retq
.LBB19_3:
	.cfi_def_cfa %rbp, 16
.Ltmp101:
	movq	%rax, -56(%rbp)
	movl	%edx, -44(%rbp)
	leaq	-32(%rbp), %rdi
	callq	_ZNSaIdED2Ev
	jmp	.LBB19_5
.LBB19_4:
.Ltmp104:
	movq	%rax, -56(%rbp)
	movl	%edx, -44(%rbp)
	movq	%r14, %rdi
	callq	_ZNSt12_Vector_baseIdSaIdEED2Ev
.LBB19_5:
	movq	-56(%rbp), %rdi
	callq	_Unwind_Resume@PLT
.Lfunc_end19:
	.size	_ZNSt6vectorIdSaIdEEC2ERKS1_, .Lfunc_end19-_ZNSt6vectorIdSaIdEEC2ERKS1_
	.cfi_endproc
	.section	.gcc_except_table._ZNSt6vectorIdSaIdEEC2ERKS1_,"aG",@progbits,_ZNSt6vectorIdSaIdEEC2ERKS1_,comdat
	.p2align	2
GCC_except_table19:
.Lexception11:
	.byte	255                             # @LPStart Encoding = omit
	.byte	255                             # @TType Encoding = omit
	.byte	1                               # Call site Encoding = uleb128
	.uleb128 .Lcst_end11-.Lcst_begin11
.Lcst_begin11:
	.uleb128 .Lfunc_begin11-.Lfunc_begin11  # >> Call Site 1 <<
	.uleb128 .Ltmp99-.Lfunc_begin11         #   Call between .Lfunc_begin11 and .Ltmp99
	.byte	0                               #     has no landing pad
	.byte	0                               #   On action: cleanup
	.uleb128 .Ltmp99-.Lfunc_begin11         # >> Call Site 2 <<
	.uleb128 .Ltmp100-.Ltmp99               #   Call between .Ltmp99 and .Ltmp100
	.uleb128 .Ltmp101-.Lfunc_begin11        #     jumps to .Ltmp101
	.byte	0                               #   On action: cleanup
	.uleb128 .Ltmp102-.Lfunc_begin11        # >> Call Site 3 <<
	.uleb128 .Ltmp103-.Ltmp102              #   Call between .Ltmp102 and .Ltmp103
	.uleb128 .Ltmp104-.Lfunc_begin11        #     jumps to .Ltmp104
	.byte	0                               #   On action: cleanup
	.uleb128 .Ltmp103-.Lfunc_begin11        # >> Call Site 4 <<
	.uleb128 .Lfunc_end19-.Ltmp103          #   Call between .Ltmp103 and .Lfunc_end19
	.byte	0                               #     has no landing pad
	.byte	0                               #   On action: cleanup
.Lcst_end11:
	.p2align	2
                                        # -- End function
	.section	.text._ZN3SVMD2Ev,"axG",@progbits,_ZN3SVMD2Ev,comdat
	.weak	_ZN3SVMD2Ev                     # -- Begin function _ZN3SVMD2Ev
	.p2align	4, 0x90
	.type	_ZN3SVMD2Ev,@function
_ZN3SVMD2Ev:                            # @_ZN3SVMD2Ev
	.cfi_startproc
# %bb.0:
	pushq	%rbp
	.cfi_def_cfa_offset 16
	.cfi_offset %rbp, -16
	movq	%rsp, %rbp
	.cfi_def_cfa_register %rbp
	pushq	%rbx
	pushq	%rax
	.cfi_offset %rbx, -24
	movq	%rdi, -16(%rbp)
	movq	-16(%rbp), %rbx
	movq	%rbx, %rdi
	addq	$120, %rdi
	callq	_ZNSt6vectorIiSaIiEED2Ev
	movq	%rbx, %rdi
	addq	$96, %rdi
	callq	_ZNSt6vectorIS_IdSaIdEESaIS1_EED2Ev
	movq	%rbx, %rdi
	addq	$64, %rdi
	callq	_ZNSt6vectorIdSaIdEED2Ev
	addq	$40, %rbx
	movq	%rbx, %rdi
	callq	_ZNSt6vectorIS_IdSaIdEESaIS1_EED2Ev
	addq	$8, %rsp
	popq	%rbx
	popq	%rbp
	.cfi_def_cfa %rsp, 8
	retq
.Lfunc_end20:
	.size	_ZN3SVMD2Ev, .Lfunc_end20-_ZN3SVMD2Ev
	.cfi_endproc
                                        # -- End function
	.section	.text._ZNSt6vectorIS_IdSaIdEESaIS1_EEC2Ev,"axG",@progbits,_ZNSt6vectorIS_IdSaIdEESaIS1_EEC2Ev,comdat
	.weak	_ZNSt6vectorIS_IdSaIdEESaIS1_EEC2Ev # -- Begin function _ZNSt6vectorIS_IdSaIdEESaIS1_EEC2Ev
	.p2align	4, 0x90
	.type	_ZNSt6vectorIS_IdSaIdEESaIS1_EEC2Ev,@function
_ZNSt6vectorIS_IdSaIdEESaIS1_EEC2Ev:    # @_ZNSt6vectorIS_IdSaIdEESaIS1_EEC2Ev
	.cfi_startproc
# %bb.0:
	pushq	%rbp
	.cfi_def_cfa_offset 16
	.cfi_offset %rbp, -16
	movq	%rsp, %rbp
	.cfi_def_cfa_register %rbp
	subq	$16, %rsp
	movq	%rdi, -8(%rbp)
	movq	-8(%rbp), %rdi
	callq	_ZNSt12_Vector_baseISt6vectorIdSaIdEESaIS2_EEC2Ev
	addq	$16, %rsp
	popq	%rbp
	.cfi_def_cfa %rsp, 8
	retq
.Lfunc_end21:
	.size	_ZNSt6vectorIS_IdSaIdEESaIS1_EEC2Ev, .Lfunc_end21-_ZNSt6vectorIS_IdSaIdEESaIS1_EEC2Ev
	.cfi_endproc
                                        # -- End function
	.section	.text._ZNSt6vectorIdSaIdEEC2Ev,"axG",@progbits,_ZNSt6vectorIdSaIdEEC2Ev,comdat
	.weak	_ZNSt6vectorIdSaIdEEC2Ev        # -- Begin function _ZNSt6vectorIdSaIdEEC2Ev
	.p2align	4, 0x90
	.type	_ZNSt6vectorIdSaIdEEC2Ev,@function
_ZNSt6vectorIdSaIdEEC2Ev:               # @_ZNSt6vectorIdSaIdEEC2Ev
	.cfi_startproc
# %bb.0:
	pushq	%rbp
	.cfi_def_cfa_offset 16
	.cfi_offset %rbp, -16
	movq	%rsp, %rbp
	.cfi_def_cfa_register %rbp
	subq	$16, %rsp
	movq	%rdi, -8(%rbp)
	movq	-8(%rbp), %rdi
	callq	_ZNSt12_Vector_baseIdSaIdEEC2Ev
	addq	$16, %rsp
	popq	%rbp
	.cfi_def_cfa %rsp, 8
	retq
.Lfunc_end22:
	.size	_ZNSt6vectorIdSaIdEEC2Ev, .Lfunc_end22-_ZNSt6vectorIdSaIdEEC2Ev
	.cfi_endproc
                                        # -- End function
	.section	.text._ZNSt6vectorIiSaIiEEC2Ev,"axG",@progbits,_ZNSt6vectorIiSaIiEEC2Ev,comdat
	.weak	_ZNSt6vectorIiSaIiEEC2Ev        # -- Begin function _ZNSt6vectorIiSaIiEEC2Ev
	.p2align	4, 0x90
	.type	_ZNSt6vectorIiSaIiEEC2Ev,@function
_ZNSt6vectorIiSaIiEEC2Ev:               # @_ZNSt6vectorIiSaIiEEC2Ev
	.cfi_startproc
# %bb.0:
	pushq	%rbp
	.cfi_def_cfa_offset 16
	.cfi_offset %rbp, -16
	movq	%rsp, %rbp
	.cfi_def_cfa_register %rbp
	subq	$16, %rsp
	movq	%rdi, -8(%rbp)
	movq	-8(%rbp), %rdi
	callq	_ZNSt12_Vector_baseIiSaIiEEC2Ev
	addq	$16, %rsp
	popq	%rbp
	.cfi_def_cfa %rsp, 8
	retq
.Lfunc_end23:
	.size	_ZNSt6vectorIiSaIiEEC2Ev, .Lfunc_end23-_ZNSt6vectorIiSaIiEEC2Ev
	.cfi_endproc
                                        # -- End function
	.section	.text._ZNSt12_Vector_baseISt6vectorIdSaIdEESaIS2_EEC2Ev,"axG",@progbits,_ZNSt12_Vector_baseISt6vectorIdSaIdEESaIS2_EEC2Ev,comdat
	.weak	_ZNSt12_Vector_baseISt6vectorIdSaIdEESaIS2_EEC2Ev # -- Begin function _ZNSt12_Vector_baseISt6vectorIdSaIdEESaIS2_EEC2Ev
	.p2align	4, 0x90
	.type	_ZNSt12_Vector_baseISt6vectorIdSaIdEESaIS2_EEC2Ev,@function
_ZNSt12_Vector_baseISt6vectorIdSaIdEESaIS2_EEC2Ev: # @_ZNSt12_Vector_baseISt6vectorIdSaIdEESaIS2_EEC2Ev
	.cfi_startproc
# %bb.0:
	pushq	%rbp
	.cfi_def_cfa_offset 16
	.cfi_offset %rbp, -16
	movq	%rsp, %rbp
	.cfi_def_cfa_register %rbp
	subq	$16, %rsp
	movq	%rdi, -8(%rbp)
	movq	-8(%rbp), %rdi
	callq	_ZNSt12_Vector_baseISt6vectorIdSaIdEESaIS2_EE12_Vector_implC2Ev
	addq	$16, %rsp
	popq	%rbp
	.cfi_def_cfa %rsp, 8
	retq
.Lfunc_end24:
	.size	_ZNSt12_Vector_baseISt6vectorIdSaIdEESaIS2_EEC2Ev, .Lfunc_end24-_ZNSt12_Vector_baseISt6vectorIdSaIdEESaIS2_EEC2Ev
	.cfi_endproc
                                        # -- End function
	.section	.text._ZNSt12_Vector_baseISt6vectorIdSaIdEESaIS2_EE12_Vector_implC2Ev,"axG",@progbits,_ZNSt12_Vector_baseISt6vectorIdSaIdEESaIS2_EE12_Vector_implC2Ev,comdat
	.weak	_ZNSt12_Vector_baseISt6vectorIdSaIdEESaIS2_EE12_Vector_implC2Ev # -- Begin function _ZNSt12_Vector_baseISt6vectorIdSaIdEESaIS2_EE12_Vector_implC2Ev
	.p2align	4, 0x90
	.type	_ZNSt12_Vector_baseISt6vectorIdSaIdEESaIS2_EE12_Vector_implC2Ev,@function
_ZNSt12_Vector_baseISt6vectorIdSaIdEESaIS2_EE12_Vector_implC2Ev: # @_ZNSt12_Vector_baseISt6vectorIdSaIdEESaIS2_EE12_Vector_implC2Ev
	.cfi_startproc
# %bb.0:
	pushq	%rbp
	.cfi_def_cfa_offset 16
	.cfi_offset %rbp, -16
	movq	%rsp, %rbp
	.cfi_def_cfa_register %rbp
	pushq	%rbx
	pushq	%rax
	.cfi_offset %rbx, -24
	movq	%rdi, -16(%rbp)
	movq	-16(%rbp), %rbx
	movq	%rbx, %rdi
	callq	_ZNSaISt6vectorIdSaIdEEEC2Ev
	movq	%rbx, %rdi
	callq	_ZNSt12_Vector_baseISt6vectorIdSaIdEESaIS2_EE17_Vector_impl_dataC2Ev
	addq	$8, %rsp
	popq	%rbx
	popq	%rbp
	.cfi_def_cfa %rsp, 8
	retq
.Lfunc_end25:
	.size	_ZNSt12_Vector_baseISt6vectorIdSaIdEESaIS2_EE12_Vector_implC2Ev, .Lfunc_end25-_ZNSt12_Vector_baseISt6vectorIdSaIdEESaIS2_EE12_Vector_implC2Ev
	.cfi_endproc
                                        # -- End function
	.section	.text._ZN9__gnu_cxx13new_allocatorISt6vectorIdSaIdEEEC2Ev,"axG",@progbits,_ZN9__gnu_cxx13new_allocatorISt6vectorIdSaIdEEEC2Ev,comdat
	.weak	_ZN9__gnu_cxx13new_allocatorISt6vectorIdSaIdEEEC2Ev # -- Begin function _ZN9__gnu_cxx13new_allocatorISt6vectorIdSaIdEEEC2Ev
	.p2align	4, 0x90
	.type	_ZN9__gnu_cxx13new_allocatorISt6vectorIdSaIdEEEC2Ev,@function
_ZN9__gnu_cxx13new_allocatorISt6vectorIdSaIdEEEC2Ev: # @_ZN9__gnu_cxx13new_allocatorISt6vectorIdSaIdEEEC2Ev
	.cfi_startproc
# %bb.0:
	pushq	%rbp
	.cfi_def_cfa_offset 16
	.cfi_offset %rbp, -16
	movq	%rsp, %rbp
	.cfi_def_cfa_register %rbp
	movq	%rdi, -8(%rbp)
	popq	%rbp
	.cfi_def_cfa %rsp, 8
	retq
.Lfunc_end26:
	.size	_ZN9__gnu_cxx13new_allocatorISt6vectorIdSaIdEEEC2Ev, .Lfunc_end26-_ZN9__gnu_cxx13new_allocatorISt6vectorIdSaIdEEEC2Ev
	.cfi_endproc
                                        # -- End function
	.section	.text._ZNSt12_Vector_baseIdSaIdEEC2Ev,"axG",@progbits,_ZNSt12_Vector_baseIdSaIdEEC2Ev,comdat
	.weak	_ZNSt12_Vector_baseIdSaIdEEC2Ev # -- Begin function _ZNSt12_Vector_baseIdSaIdEEC2Ev
	.p2align	4, 0x90
	.type	_ZNSt12_Vector_baseIdSaIdEEC2Ev,@function
_ZNSt12_Vector_baseIdSaIdEEC2Ev:        # @_ZNSt12_Vector_baseIdSaIdEEC2Ev
	.cfi_startproc
# %bb.0:
	pushq	%rbp
	.cfi_def_cfa_offset 16
	.cfi_offset %rbp, -16
	movq	%rsp, %rbp
	.cfi_def_cfa_register %rbp
	subq	$16, %rsp
	movq	%rdi, -8(%rbp)
	movq	-8(%rbp), %rdi
	callq	_ZNSt12_Vector_baseIdSaIdEE12_Vector_implC2Ev
	addq	$16, %rsp
	popq	%rbp
	.cfi_def_cfa %rsp, 8
	retq
.Lfunc_end27:
	.size	_ZNSt12_Vector_baseIdSaIdEEC2Ev, .Lfunc_end27-_ZNSt12_Vector_baseIdSaIdEEC2Ev
	.cfi_endproc
                                        # -- End function
	.section	.text._ZNSt12_Vector_baseIdSaIdEE12_Vector_implC2Ev,"axG",@progbits,_ZNSt12_Vector_baseIdSaIdEE12_Vector_implC2Ev,comdat
	.weak	_ZNSt12_Vector_baseIdSaIdEE12_Vector_implC2Ev # -- Begin function _ZNSt12_Vector_baseIdSaIdEE12_Vector_implC2Ev
	.p2align	4, 0x90
	.type	_ZNSt12_Vector_baseIdSaIdEE12_Vector_implC2Ev,@function
_ZNSt12_Vector_baseIdSaIdEE12_Vector_implC2Ev: # @_ZNSt12_Vector_baseIdSaIdEE12_Vector_implC2Ev
	.cfi_startproc
# %bb.0:
	pushq	%rbp
	.cfi_def_cfa_offset 16
	.cfi_offset %rbp, -16
	movq	%rsp, %rbp
	.cfi_def_cfa_register %rbp
	pushq	%rbx
	pushq	%rax
	.cfi_offset %rbx, -24
	movq	%rdi, -16(%rbp)
	movq	-16(%rbp), %rbx
	movq	%rbx, %rdi
	callq	_ZNSaIdEC2Ev
	movq	%rbx, %rdi
	callq	_ZNSt12_Vector_baseIdSaIdEE17_Vector_impl_dataC2Ev
	addq	$8, %rsp
	popq	%rbx
	popq	%rbp
	.cfi_def_cfa %rsp, 8
	retq
.Lfunc_end28:
	.size	_ZNSt12_Vector_baseIdSaIdEE12_Vector_implC2Ev, .Lfunc_end28-_ZNSt12_Vector_baseIdSaIdEE12_Vector_implC2Ev
	.cfi_endproc
                                        # -- End function
	.section	.text._ZN9__gnu_cxx13new_allocatorIdEC2Ev,"axG",@progbits,_ZN9__gnu_cxx13new_allocatorIdEC2Ev,comdat
	.weak	_ZN9__gnu_cxx13new_allocatorIdEC2Ev # -- Begin function _ZN9__gnu_cxx13new_allocatorIdEC2Ev
	.p2align	4, 0x90
	.type	_ZN9__gnu_cxx13new_allocatorIdEC2Ev,@function
_ZN9__gnu_cxx13new_allocatorIdEC2Ev:    # @_ZN9__gnu_cxx13new_allocatorIdEC2Ev
	.cfi_startproc
# %bb.0:
	pushq	%rbp
	.cfi_def_cfa_offset 16
	.cfi_offset %rbp, -16
	movq	%rsp, %rbp
	.cfi_def_cfa_register %rbp
	movq	%rdi, -8(%rbp)
	popq	%rbp
	.cfi_def_cfa %rsp, 8
	retq
.Lfunc_end29:
	.size	_ZN9__gnu_cxx13new_allocatorIdEC2Ev, .Lfunc_end29-_ZN9__gnu_cxx13new_allocatorIdEC2Ev
	.cfi_endproc
                                        # -- End function
	.section	.text._ZNSt12_Vector_baseIiSaIiEEC2Ev,"axG",@progbits,_ZNSt12_Vector_baseIiSaIiEEC2Ev,comdat
	.weak	_ZNSt12_Vector_baseIiSaIiEEC2Ev # -- Begin function _ZNSt12_Vector_baseIiSaIiEEC2Ev
	.p2align	4, 0x90
	.type	_ZNSt12_Vector_baseIiSaIiEEC2Ev,@function
_ZNSt12_Vector_baseIiSaIiEEC2Ev:        # @_ZNSt12_Vector_baseIiSaIiEEC2Ev
	.cfi_startproc
# %bb.0:
	pushq	%rbp
	.cfi_def_cfa_offset 16
	.cfi_offset %rbp, -16
	movq	%rsp, %rbp
	.cfi_def_cfa_register %rbp
	subq	$16, %rsp
	movq	%rdi, -8(%rbp)
	movq	-8(%rbp), %rdi
	callq	_ZNSt12_Vector_baseIiSaIiEE12_Vector_implC2Ev
	addq	$16, %rsp
	popq	%rbp
	.cfi_def_cfa %rsp, 8
	retq
.Lfunc_end30:
	.size	_ZNSt12_Vector_baseIiSaIiEEC2Ev, .Lfunc_end30-_ZNSt12_Vector_baseIiSaIiEEC2Ev
	.cfi_endproc
                                        # -- End function
	.section	.text._ZNSt12_Vector_baseIiSaIiEE12_Vector_implC2Ev,"axG",@progbits,_ZNSt12_Vector_baseIiSaIiEE12_Vector_implC2Ev,comdat
	.weak	_ZNSt12_Vector_baseIiSaIiEE12_Vector_implC2Ev # -- Begin function _ZNSt12_Vector_baseIiSaIiEE12_Vector_implC2Ev
	.p2align	4, 0x90
	.type	_ZNSt12_Vector_baseIiSaIiEE12_Vector_implC2Ev,@function
_ZNSt12_Vector_baseIiSaIiEE12_Vector_implC2Ev: # @_ZNSt12_Vector_baseIiSaIiEE12_Vector_implC2Ev
	.cfi_startproc
# %bb.0:
	pushq	%rbp
	.cfi_def_cfa_offset 16
	.cfi_offset %rbp, -16
	movq	%rsp, %rbp
	.cfi_def_cfa_register %rbp
	pushq	%rbx
	pushq	%rax
	.cfi_offset %rbx, -24
	movq	%rdi, -16(%rbp)
	movq	-16(%rbp), %rbx
	movq	%rbx, %rdi
	callq	_ZNSaIiEC2Ev
	movq	%rbx, %rdi
	callq	_ZNSt12_Vector_baseIiSaIiEE17_Vector_impl_dataC2Ev
	addq	$8, %rsp
	popq	%rbx
	popq	%rbp
	.cfi_def_cfa %rsp, 8
	retq
.Lfunc_end31:
	.size	_ZNSt12_Vector_baseIiSaIiEE12_Vector_implC2Ev, .Lfunc_end31-_ZNSt12_Vector_baseIiSaIiEE12_Vector_implC2Ev
	.cfi_endproc
                                        # -- End function
	.section	.text._ZNSt12_Vector_baseIiSaIiEE17_Vector_impl_dataC2Ev,"axG",@progbits,_ZNSt12_Vector_baseIiSaIiEE17_Vector_impl_dataC2Ev,comdat
	.weak	_ZNSt12_Vector_baseIiSaIiEE17_Vector_impl_dataC2Ev # -- Begin function _ZNSt12_Vector_baseIiSaIiEE17_Vector_impl_dataC2Ev
	.p2align	4, 0x90
	.type	_ZNSt12_Vector_baseIiSaIiEE17_Vector_impl_dataC2Ev,@function
_ZNSt12_Vector_baseIiSaIiEE17_Vector_impl_dataC2Ev: # @_ZNSt12_Vector_baseIiSaIiEE17_Vector_impl_dataC2Ev
	.cfi_startproc
# %bb.0:
	pushq	%rbp
	.cfi_def_cfa_offset 16
	.cfi_offset %rbp, -16
	movq	%rsp, %rbp
	.cfi_def_cfa_register %rbp
	movq	%rdi, -8(%rbp)
	movq	-8(%rbp), %rax
	movq	$0, (%rax)
	movq	$0, 8(%rax)
	movq	$0, 16(%rax)
	popq	%rbp
	.cfi_def_cfa %rsp, 8
	retq
.Lfunc_end32:
	.size	_ZNSt12_Vector_baseIiSaIiEE17_Vector_impl_dataC2Ev, .Lfunc_end32-_ZNSt12_Vector_baseIiSaIiEE17_Vector_impl_dataC2Ev
	.cfi_endproc
                                        # -- End function
	.section	.text._ZN9__gnu_cxx13new_allocatorIiEC2Ev,"axG",@progbits,_ZN9__gnu_cxx13new_allocatorIiEC2Ev,comdat
	.weak	_ZN9__gnu_cxx13new_allocatorIiEC2Ev # -- Begin function _ZN9__gnu_cxx13new_allocatorIiEC2Ev
	.p2align	4, 0x90
	.type	_ZN9__gnu_cxx13new_allocatorIiEC2Ev,@function
_ZN9__gnu_cxx13new_allocatorIiEC2Ev:    # @_ZN9__gnu_cxx13new_allocatorIiEC2Ev
	.cfi_startproc
# %bb.0:
	pushq	%rbp
	.cfi_def_cfa_offset 16
	.cfi_offset %rbp, -16
	movq	%rsp, %rbp
	.cfi_def_cfa_register %rbp
	movq	%rdi, -8(%rbp)
	popq	%rbp
	.cfi_def_cfa %rsp, 8
	retq
.Lfunc_end33:
	.size	_ZN9__gnu_cxx13new_allocatorIiEC2Ev, .Lfunc_end33-_ZN9__gnu_cxx13new_allocatorIiEC2Ev
	.cfi_endproc
                                        # -- End function
	.section	.text._ZNKSt6vectorIS_IdSaIdEESaIS1_EE4sizeEv,"axG",@progbits,_ZNKSt6vectorIS_IdSaIdEESaIS1_EE4sizeEv,comdat
	.weak	_ZNKSt6vectorIS_IdSaIdEESaIS1_EE4sizeEv # -- Begin function _ZNKSt6vectorIS_IdSaIdEESaIS1_EE4sizeEv
	.p2align	4, 0x90
	.type	_ZNKSt6vectorIS_IdSaIdEESaIS1_EE4sizeEv,@function
_ZNKSt6vectorIS_IdSaIdEESaIS1_EE4sizeEv: # @_ZNKSt6vectorIS_IdSaIdEESaIS1_EE4sizeEv
	.cfi_startproc
# %bb.0:
	pushq	%rbp
	.cfi_def_cfa_offset 16
	.cfi_offset %rbp, -16
	movq	%rsp, %rbp
	.cfi_def_cfa_register %rbp
	movq	%rdi, -8(%rbp)
	movq	-8(%rbp), %rcx
	movq	8(%rcx), %rax
	movq	(%rcx), %rcx
	subq	%rcx, %rax
	movl	$24, %ecx
	cqto
	idivq	%rcx
	popq	%rbp
	.cfi_def_cfa %rsp, 8
	retq
.Lfunc_end34:
	.size	_ZNKSt6vectorIS_IdSaIdEESaIS1_EE4sizeEv, .Lfunc_end34-_ZNKSt6vectorIS_IdSaIdEESaIS1_EE4sizeEv
	.cfi_endproc
                                        # -- End function
	.section	.text._ZNSt6vectorIS_IdSaIdEESaIS1_EEixEm,"axG",@progbits,_ZNSt6vectorIS_IdSaIdEESaIS1_EEixEm,comdat
	.weak	_ZNSt6vectorIS_IdSaIdEESaIS1_EEixEm # -- Begin function _ZNSt6vectorIS_IdSaIdEESaIS1_EEixEm
	.p2align	4, 0x90
	.type	_ZNSt6vectorIS_IdSaIdEESaIS1_EEixEm,@function
_ZNSt6vectorIS_IdSaIdEESaIS1_EEixEm:    # @_ZNSt6vectorIS_IdSaIdEESaIS1_EEixEm
	.cfi_startproc
# %bb.0:
	pushq	%rbp
	.cfi_def_cfa_offset 16
	.cfi_offset %rbp, -16
	movq	%rsp, %rbp
	.cfi_def_cfa_register %rbp
	movq	%rdi, -16(%rbp)
	movq	%rsi, -8(%rbp)
	movq	-16(%rbp), %rax
	movq	(%rax), %rax
	imulq	$24, -8(%rbp), %rcx
	addq	%rcx, %rax
	popq	%rbp
	.cfi_def_cfa %rsp, 8
	retq
.Lfunc_end35:
	.size	_ZNSt6vectorIS_IdSaIdEESaIS1_EEixEm, .Lfunc_end35-_ZNSt6vectorIS_IdSaIdEESaIS1_EEixEm
	.cfi_endproc
                                        # -- End function
	.section	.text._ZNKSt6vectorIdSaIdEE4sizeEv,"axG",@progbits,_ZNKSt6vectorIdSaIdEE4sizeEv,comdat
	.weak	_ZNKSt6vectorIdSaIdEE4sizeEv    # -- Begin function _ZNKSt6vectorIdSaIdEE4sizeEv
	.p2align	4, 0x90
	.type	_ZNKSt6vectorIdSaIdEE4sizeEv,@function
_ZNKSt6vectorIdSaIdEE4sizeEv:           # @_ZNKSt6vectorIdSaIdEE4sizeEv
	.cfi_startproc
# %bb.0:
	pushq	%rbp
	.cfi_def_cfa_offset 16
	.cfi_offset %rbp, -16
	movq	%rsp, %rbp
	.cfi_def_cfa_register %rbp
	movq	%rdi, -8(%rbp)
	movq	-8(%rbp), %rcx
	movq	8(%rcx), %rax
	movq	(%rcx), %rcx
	subq	%rcx, %rax
	sarq	$3, %rax
	popq	%rbp
	.cfi_def_cfa %rsp, 8
	retq
.Lfunc_end36:
	.size	_ZNKSt6vectorIdSaIdEE4sizeEv, .Lfunc_end36-_ZNKSt6vectorIdSaIdEE4sizeEv
	.cfi_endproc
                                        # -- End function
	.section	.text._ZNSt6vectorIdSaIdEEC2EmRKS0_,"axG",@progbits,_ZNSt6vectorIdSaIdEEC2EmRKS0_,comdat
	.weak	_ZNSt6vectorIdSaIdEEC2EmRKS0_   # -- Begin function _ZNSt6vectorIdSaIdEEC2EmRKS0_
	.p2align	4, 0x90
	.type	_ZNSt6vectorIdSaIdEEC2EmRKS0_,@function
_ZNSt6vectorIdSaIdEEC2EmRKS0_:          # @_ZNSt6vectorIdSaIdEEC2EmRKS0_
.Lfunc_begin12:
	.cfi_startproc
	.cfi_personality 3, __gxx_personality_v0
	.cfi_lsda 3, .Lexception12
# %bb.0:
	pushq	%rbp
	.cfi_def_cfa_offset 16
	.cfi_offset %rbp, -16
	movq	%rsp, %rbp
	.cfi_def_cfa_register %rbp
	pushq	%rbx
	subq	$40, %rsp
	.cfi_offset %rbx, -24
	movq	%rdi, -40(%rbp)
	movq	%rsi, -24(%rbp)
	movq	%rdx, -16(%rbp)
	movq	-40(%rbp), %rbx
	movq	-24(%rbp), %rdi
	movq	-16(%rbp), %rsi
	callq	_ZNSt6vectorIdSaIdEE17_S_check_init_lenEmRKS0_
	movq	-16(%rbp), %rdx
	movq	%rbx, %rdi
	movq	%rax, %rsi
	callq	_ZNSt12_Vector_baseIdSaIdEEC2EmRKS0_
	movq	-24(%rbp), %rsi
.Ltmp105:
	movq	%rbx, %rdi
	callq	_ZNSt6vectorIdSaIdEE21_M_default_initializeEm
.Ltmp106:
	jmp	.LBB37_1
.LBB37_1:
	addq	$40, %rsp
	popq	%rbx
	popq	%rbp
	.cfi_def_cfa %rsp, 8
	retq
.LBB37_2:
	.cfi_def_cfa %rbp, 16
.Ltmp107:
	movq	%rax, -32(%rbp)
	movl	%edx, -44(%rbp)
	movq	%rbx, %rdi
	callq	_ZNSt12_Vector_baseIdSaIdEED2Ev
# %bb.3:
	movq	-32(%rbp), %rdi
	callq	_Unwind_Resume@PLT
.Lfunc_end37:
	.size	_ZNSt6vectorIdSaIdEEC2EmRKS0_, .Lfunc_end37-_ZNSt6vectorIdSaIdEEC2EmRKS0_
	.cfi_endproc
	.section	.gcc_except_table._ZNSt6vectorIdSaIdEEC2EmRKS0_,"aG",@progbits,_ZNSt6vectorIdSaIdEEC2EmRKS0_,comdat
	.p2align	2
GCC_except_table37:
.Lexception12:
	.byte	255                             # @LPStart Encoding = omit
	.byte	255                             # @TType Encoding = omit
	.byte	1                               # Call site Encoding = uleb128
	.uleb128 .Lcst_end12-.Lcst_begin12
.Lcst_begin12:
	.uleb128 .Lfunc_begin12-.Lfunc_begin12  # >> Call Site 1 <<
	.uleb128 .Ltmp105-.Lfunc_begin12        #   Call between .Lfunc_begin12 and .Ltmp105
	.byte	0                               #     has no landing pad
	.byte	0                               #   On action: cleanup
	.uleb128 .Ltmp105-.Lfunc_begin12        # >> Call Site 2 <<
	.uleb128 .Ltmp106-.Ltmp105              #   Call between .Ltmp105 and .Ltmp106
	.uleb128 .Ltmp107-.Lfunc_begin12        #     jumps to .Ltmp107
	.byte	0                               #   On action: cleanup
	.uleb128 .Ltmp106-.Lfunc_begin12        # >> Call Site 3 <<
	.uleb128 .Lfunc_end37-.Ltmp106          #   Call between .Ltmp106 and .Lfunc_end37
	.byte	0                               #     has no landing pad
	.byte	0                               #   On action: cleanup
.Lcst_end12:
	.p2align	2
                                        # -- End function
	.section	.text._ZNSt6vectorIS_IdSaIdEESaIS1_EEC2EmRKS1_RKS2_,"axG",@progbits,_ZNSt6vectorIS_IdSaIdEESaIS1_EEC2EmRKS1_RKS2_,comdat
	.weak	_ZNSt6vectorIS_IdSaIdEESaIS1_EEC2EmRKS1_RKS2_ # -- Begin function _ZNSt6vectorIS_IdSaIdEESaIS1_EEC2EmRKS1_RKS2_
	.p2align	4, 0x90
	.type	_ZNSt6vectorIS_IdSaIdEESaIS1_EEC2EmRKS1_RKS2_,@function
_ZNSt6vectorIS_IdSaIdEESaIS1_EEC2EmRKS1_RKS2_: # @_ZNSt6vectorIS_IdSaIdEESaIS1_EEC2EmRKS1_RKS2_
.Lfunc_begin13:
	.cfi_startproc
	.cfi_personality 3, __gxx_personality_v0
	.cfi_lsda 3, .Lexception13
# %bb.0:
	pushq	%rbp
	.cfi_def_cfa_offset 16
	.cfi_offset %rbp, -16
	movq	%rsp, %rbp
	.cfi_def_cfa_register %rbp
	pushq	%rbx
	subq	$56, %rsp
	.cfi_offset %rbx, -24
	movq	%rdi, -48(%rbp)
	movq	%rsi, -24(%rbp)
	movq	%rdx, -40(%rbp)
	movq	%rcx, -16(%rbp)
	movq	-48(%rbp), %rbx
	movq	-24(%rbp), %rdi
	movq	-16(%rbp), %rsi
	callq	_ZNSt6vectorIS_IdSaIdEESaIS1_EE17_S_check_init_lenEmRKS2_
	movq	-16(%rbp), %rdx
	movq	%rbx, %rdi
	movq	%rax, %rsi
	callq	_ZNSt12_Vector_baseISt6vectorIdSaIdEESaIS2_EEC2EmRKS3_
	movq	-24(%rbp), %rsi
	movq	-40(%rbp), %rdx
.Ltmp108:
	movq	%rbx, %rdi
	callq	_ZNSt6vectorIS_IdSaIdEESaIS1_EE18_M_fill_initializeEmRKS1_
.Ltmp109:
	jmp	.LBB38_1
.LBB38_1:
	addq	$56, %rsp
	popq	%rbx
	popq	%rbp
	.cfi_def_cfa %rsp, 8
	retq
.LBB38_2:
	.cfi_def_cfa %rbp, 16
.Ltmp110:
	movq	%rax, -32(%rbp)
	movl	%edx, -52(%rbp)
	movq	%rbx, %rdi
	callq	_ZNSt12_Vector_baseISt6vectorIdSaIdEESaIS2_EED2Ev
# %bb.3:
	movq	-32(%rbp), %rdi
	callq	_Unwind_Resume@PLT
.Lfunc_end38:
	.size	_ZNSt6vectorIS_IdSaIdEESaIS1_EEC2EmRKS1_RKS2_, .Lfunc_end38-_ZNSt6vectorIS_IdSaIdEESaIS1_EEC2EmRKS1_RKS2_
	.cfi_endproc
	.section	.gcc_except_table._ZNSt6vectorIS_IdSaIdEESaIS1_EEC2EmRKS1_RKS2_,"aG",@progbits,_ZNSt6vectorIS_IdSaIdEESaIS1_EEC2EmRKS1_RKS2_,comdat
	.p2align	2
GCC_except_table38:
.Lexception13:
	.byte	255                             # @LPStart Encoding = omit
	.byte	255                             # @TType Encoding = omit
	.byte	1                               # Call site Encoding = uleb128
	.uleb128 .Lcst_end13-.Lcst_begin13
.Lcst_begin13:
	.uleb128 .Lfunc_begin13-.Lfunc_begin13  # >> Call Site 1 <<
	.uleb128 .Ltmp108-.Lfunc_begin13        #   Call between .Lfunc_begin13 and .Ltmp108
	.byte	0                               #     has no landing pad
	.byte	0                               #   On action: cleanup
	.uleb128 .Ltmp108-.Lfunc_begin13        # >> Call Site 2 <<
	.uleb128 .Ltmp109-.Ltmp108              #   Call between .Ltmp108 and .Ltmp109
	.uleb128 .Ltmp110-.Lfunc_begin13        #     jumps to .Ltmp110
	.byte	0                               #   On action: cleanup
	.uleb128 .Ltmp109-.Lfunc_begin13        # >> Call Site 3 <<
	.uleb128 .Lfunc_end38-.Ltmp109          #   Call between .Ltmp109 and .Lfunc_end38
	.byte	0                               #     has no landing pad
	.byte	0                               #   On action: cleanup
.Lcst_end13:
	.p2align	2
                                        # -- End function
	.section	.text._ZNSt6vectorIS_IdSaIdEESaIS1_EEaSEOS3_,"axG",@progbits,_ZNSt6vectorIS_IdSaIdEESaIS1_EEaSEOS3_,comdat
	.weak	_ZNSt6vectorIS_IdSaIdEESaIS1_EEaSEOS3_ # -- Begin function _ZNSt6vectorIS_IdSaIdEESaIS1_EEaSEOS3_
	.p2align	4, 0x90
	.type	_ZNSt6vectorIS_IdSaIdEESaIS1_EEaSEOS3_,@function
_ZNSt6vectorIS_IdSaIdEESaIS1_EEaSEOS3_: # @_ZNSt6vectorIS_IdSaIdEESaIS1_EEaSEOS3_
	.cfi_startproc
# %bb.0:
	pushq	%rbp
	.cfi_def_cfa_offset 16
	.cfi_offset %rbp, -16
	movq	%rsp, %rbp
	.cfi_def_cfa_register %rbp
	pushq	%rbx
	subq	$40, %rsp
	.cfi_offset %rbx, -24
	movq	%rdi, -32(%rbp)
	movq	%rsi, -24(%rbp)
	movq	-32(%rbp), %rbx
	movb	$1, -9(%rbp)
	movq	-24(%rbp), %rdi
	callq	_ZSt4moveIRSt6vectorIS0_IdSaIdEESaIS2_EEEONSt16remove_referenceIT_E4typeEOS7_
	movq	%rbx, %rdi
	movq	%rax, %rsi
	callq	_ZNSt6vectorIS_IdSaIdEESaIS1_EE14_M_move_assignEOS3_St17integral_constantIbLb1EE
	movq	%rbx, %rax
	addq	$40, %rsp
	popq	%rbx
	popq	%rbp
	.cfi_def_cfa %rsp, 8
	retq
.Lfunc_end39:
	.size	_ZNSt6vectorIS_IdSaIdEESaIS1_EEaSEOS3_, .Lfunc_end39-_ZNSt6vectorIS_IdSaIdEESaIS1_EEaSEOS3_
	.cfi_endproc
                                        # -- End function
	.section	.rodata.cst8,"aM",@progbits,8
	.p2align	3                               # -- Begin function _ZN3SVM6kernelESt6vectorIdSaIdEES2_
.LCPI40_0:
	.quad	0x3ff0000000000000              # double 1
	.section	.rodata.cst16,"aM",@progbits,16
	.p2align	4
.LCPI40_1:
	.quad	0x8000000000000000              # double -0
	.quad	0x8000000000000000              # double -0
	.section	.text._ZN3SVM6kernelESt6vectorIdSaIdEES2_,"axG",@progbits,_ZN3SVM6kernelESt6vectorIdSaIdEES2_,comdat
	.weak	_ZN3SVM6kernelESt6vectorIdSaIdEES2_
	.p2align	4, 0x90
	.type	_ZN3SVM6kernelESt6vectorIdSaIdEES2_,@function
_ZN3SVM6kernelESt6vectorIdSaIdEES2_:    # @_ZN3SVM6kernelESt6vectorIdSaIdEES2_
.Lfunc_begin14:
	.cfi_startproc
	.cfi_personality 3, __gxx_personality_v0
	.cfi_lsda 3, .Lexception14
# %bb.0:
	pushq	%rbp
	.cfi_def_cfa_offset 16
	.cfi_offset %rbp, -16
	movq	%rsp, %rbp
	.cfi_def_cfa_register %rbp
	pushq	%r14
	pushq	%rbx
	subq	$144, %rsp
	.cfi_offset %rbx, -32
	.cfi_offset %r14, -24
	movq	%rdx, %r14
	movq	%rdi, -48(%rbp)
	movq	-48(%rbp), %rbx
	movsd	8(%rbx), %xmm0                  # xmm0 = mem[0],zero
	xorps	%xmm1, %xmm1
	ucomisd	%xmm1, %xmm0
	jne	.LBB40_7
	jp	.LBB40_7
# %bb.1:
	leaq	-144(%rbp), %rdi
	callq	_ZNSt6vectorIdSaIdEEC2ERKS1_
.Ltmp117:
	leaq	-120(%rbp), %rdi
	movq	%r14, %rsi
	callq	_ZNSt6vectorIdSaIdEEC2ERKS1_
.Ltmp118:
	jmp	.LBB40_2
.LBB40_2:
.Ltmp120:
	leaq	-144(%rbp), %rsi
	leaq	-120(%rbp), %rdx
	movq	%rbx, %rdi
	callq	_ZN3SVM3dotESt6vectorIdSaIdEES2_
.Ltmp121:
	jmp	.LBB40_3
.LBB40_3:
	movsd	%xmm0, -40(%rbp)
	leaq	-120(%rbp), %rdi
	callq	_ZNSt6vectorIdSaIdEED2Ev
	leaq	-144(%rbp), %rdi
	callq	_ZNSt6vectorIdSaIdEED2Ev
	jmp	.LBB40_15
.LBB40_4:
.Ltmp119:
	movq	%rax, -32(%rbp)
	movl	%edx, -20(%rbp)
	jmp	.LBB40_6
.LBB40_5:
.Ltmp122:
	movq	%rax, -32(%rbp)
	movl	%edx, -20(%rbp)
	leaq	-120(%rbp), %rdi
	callq	_ZNSt6vectorIdSaIdEED2Ev
.LBB40_6:
	leaq	-144(%rbp), %rdi
	callq	_ZNSt6vectorIdSaIdEED2Ev
	jmp	.LBB40_16
.LBB40_7:
	movsd	8(%rbx), %xmm0                  # xmm0 = mem[0],zero
	movsd	.LCPI40_0(%rip), %xmm1          # xmm1 = mem[0],zero
	ucomisd	%xmm1, %xmm0
	jne	.LBB40_14
	jp	.LBB40_14
# %bb.8:
	movsd	16(%rbx), %xmm1                 # xmm1 = mem[0],zero
	movaps	.LCPI40_1(%rip), %xmm0          # xmm0 = [-0.0E+0,-0.0E+0]
	pxor	%xmm0, %xmm1
	movaps	%xmm1, -160(%rbp)               # 16-byte Spill
	leaq	-96(%rbp), %rdi
	callq	_ZNSt6vectorIdSaIdEEC2ERKS1_
.Ltmp111:
	leaq	-72(%rbp), %rdi
	movq	%r14, %rsi
	callq	_ZNSt6vectorIdSaIdEEC2ERKS1_
.Ltmp112:
	jmp	.LBB40_9
.LBB40_9:
.Ltmp114:
	leaq	-96(%rbp), %rsi
	leaq	-72(%rbp), %rdx
	movq	%rbx, %rdi
	callq	_ZN3SVM4normESt6vectorIdSaIdEES2_
.Ltmp115:
	jmp	.LBB40_10
.LBB40_10:
	movaps	-160(%rbp), %xmm1               # 16-byte Reload
	mulsd	%xmm0, %xmm1
	movaps	%xmm1, %xmm0
	callq	exp@PLT
	movsd	%xmm0, -40(%rbp)
	leaq	-72(%rbp), %rdi
	callq	_ZNSt6vectorIdSaIdEED2Ev
	leaq	-96(%rbp), %rdi
	callq	_ZNSt6vectorIdSaIdEED2Ev
	jmp	.LBB40_15
.LBB40_11:
.Ltmp113:
	movq	%rax, -32(%rbp)
	movl	%edx, -20(%rbp)
	jmp	.LBB40_13
.LBB40_12:
.Ltmp116:
	movq	%rax, -32(%rbp)
	movl	%edx, -20(%rbp)
	leaq	-72(%rbp), %rdi
	callq	_ZNSt6vectorIdSaIdEED2Ev
.LBB40_13:
	leaq	-96(%rbp), %rdi
	callq	_ZNSt6vectorIdSaIdEED2Ev
	jmp	.LBB40_16
.LBB40_14:
	xorps	%xmm0, %xmm0
	movsd	%xmm0, -40(%rbp)
.LBB40_15:
	movsd	-40(%rbp), %xmm0                # xmm0 = mem[0],zero
	addq	$144, %rsp
	popq	%rbx
	popq	%r14
	popq	%rbp
	.cfi_def_cfa %rsp, 8
	retq
.LBB40_16:
	.cfi_def_cfa %rbp, 16
	movq	-32(%rbp), %rdi
	callq	_Unwind_Resume@PLT
.Lfunc_end40:
	.size	_ZN3SVM6kernelESt6vectorIdSaIdEES2_, .Lfunc_end40-_ZN3SVM6kernelESt6vectorIdSaIdEES2_
	.cfi_endproc
	.section	.gcc_except_table._ZN3SVM6kernelESt6vectorIdSaIdEES2_,"aG",@progbits,_ZN3SVM6kernelESt6vectorIdSaIdEES2_,comdat
	.p2align	2
GCC_except_table40:
.Lexception14:
	.byte	255                             # @LPStart Encoding = omit
	.byte	255                             # @TType Encoding = omit
	.byte	1                               # Call site Encoding = uleb128
	.uleb128 .Lcst_end14-.Lcst_begin14
.Lcst_begin14:
	.uleb128 .Lfunc_begin14-.Lfunc_begin14  # >> Call Site 1 <<
	.uleb128 .Ltmp117-.Lfunc_begin14        #   Call between .Lfunc_begin14 and .Ltmp117
	.byte	0                               #     has no landing pad
	.byte	0                               #   On action: cleanup
	.uleb128 .Ltmp117-.Lfunc_begin14        # >> Call Site 2 <<
	.uleb128 .Ltmp118-.Ltmp117              #   Call between .Ltmp117 and .Ltmp118
	.uleb128 .Ltmp119-.Lfunc_begin14        #     jumps to .Ltmp119
	.byte	0                               #   On action: cleanup
	.uleb128 .Ltmp120-.Lfunc_begin14        # >> Call Site 3 <<
	.uleb128 .Ltmp121-.Ltmp120              #   Call between .Ltmp120 and .Ltmp121
	.uleb128 .Ltmp122-.Lfunc_begin14        #     jumps to .Ltmp122
	.byte	0                               #   On action: cleanup
	.uleb128 .Ltmp121-.Lfunc_begin14        # >> Call Site 4 <<
	.uleb128 .Ltmp111-.Ltmp121              #   Call between .Ltmp121 and .Ltmp111
	.byte	0                               #     has no landing pad
	.byte	0                               #   On action: cleanup
	.uleb128 .Ltmp111-.Lfunc_begin14        # >> Call Site 5 <<
	.uleb128 .Ltmp112-.Ltmp111              #   Call between .Ltmp111 and .Ltmp112
	.uleb128 .Ltmp113-.Lfunc_begin14        #     jumps to .Ltmp113
	.byte	0                               #   On action: cleanup
	.uleb128 .Ltmp114-.Lfunc_begin14        # >> Call Site 6 <<
	.uleb128 .Ltmp115-.Ltmp114              #   Call between .Ltmp114 and .Ltmp115
	.uleb128 .Ltmp116-.Lfunc_begin14        #     jumps to .Ltmp116
	.byte	0                               #   On action: cleanup
	.uleb128 .Ltmp115-.Lfunc_begin14        # >> Call Site 7 <<
	.uleb128 .Lfunc_end40-.Ltmp115          #   Call between .Ltmp115 and .Lfunc_end40
	.byte	0                               #     has no landing pad
	.byte	0                               #   On action: cleanup
.Lcst_end14:
	.p2align	2
                                        # -- End function
	.section	.text._ZNSt6vectorIdSaIdEEixEm,"axG",@progbits,_ZNSt6vectorIdSaIdEEixEm,comdat
	.weak	_ZNSt6vectorIdSaIdEEixEm        # -- Begin function _ZNSt6vectorIdSaIdEEixEm
	.p2align	4, 0x90
	.type	_ZNSt6vectorIdSaIdEEixEm,@function
_ZNSt6vectorIdSaIdEEixEm:               # @_ZNSt6vectorIdSaIdEEixEm
	.cfi_startproc
# %bb.0:
	pushq	%rbp
	.cfi_def_cfa_offset 16
	.cfi_offset %rbp, -16
	movq	%rsp, %rbp
	.cfi_def_cfa_register %rbp
	movq	%rdi, -16(%rbp)
	movq	%rsi, -8(%rbp)
	movq	-16(%rbp), %rax
	movq	(%rax), %rax
	movq	-8(%rbp), %rcx
	shlq	$3, %rcx
	addq	%rcx, %rax
	popq	%rbp
	.cfi_def_cfa %rsp, 8
	retq
.Lfunc_end41:
	.size	_ZNSt6vectorIdSaIdEEixEm, .Lfunc_end41-_ZNSt6vectorIdSaIdEEixEm
	.cfi_endproc
                                        # -- End function
	.section	.text._ZNSt6vectorIdSaIdEEC2EmRKdRKS0_,"axG",@progbits,_ZNSt6vectorIdSaIdEEC2EmRKdRKS0_,comdat
	.weak	_ZNSt6vectorIdSaIdEEC2EmRKdRKS0_ # -- Begin function _ZNSt6vectorIdSaIdEEC2EmRKdRKS0_
	.p2align	4, 0x90
	.type	_ZNSt6vectorIdSaIdEEC2EmRKdRKS0_,@function
_ZNSt6vectorIdSaIdEEC2EmRKdRKS0_:       # @_ZNSt6vectorIdSaIdEEC2EmRKdRKS0_
.Lfunc_begin15:
	.cfi_startproc
	.cfi_personality 3, __gxx_personality_v0
	.cfi_lsda 3, .Lexception15
# %bb.0:
	pushq	%rbp
	.cfi_def_cfa_offset 16
	.cfi_offset %rbp, -16
	movq	%rsp, %rbp
	.cfi_def_cfa_register %rbp
	pushq	%rbx
	subq	$56, %rsp
	.cfi_offset %rbx, -24
	movq	%rdi, -48(%rbp)
	movq	%rsi, -24(%rbp)
	movq	%rdx, -40(%rbp)
	movq	%rcx, -16(%rbp)
	movq	-48(%rbp), %rbx
	movq	-24(%rbp), %rdi
	movq	-16(%rbp), %rsi
	callq	_ZNSt6vectorIdSaIdEE17_S_check_init_lenEmRKS0_
	movq	-16(%rbp), %rdx
	movq	%rbx, %rdi
	movq	%rax, %rsi
	callq	_ZNSt12_Vector_baseIdSaIdEEC2EmRKS0_
	movq	-24(%rbp), %rsi
	movq	-40(%rbp), %rdx
.Ltmp123:
	movq	%rbx, %rdi
	callq	_ZNSt6vectorIdSaIdEE18_M_fill_initializeEmRKd
.Ltmp124:
	jmp	.LBB42_1
.LBB42_1:
	addq	$56, %rsp
	popq	%rbx
	popq	%rbp
	.cfi_def_cfa %rsp, 8
	retq
.LBB42_2:
	.cfi_def_cfa %rbp, 16
.Ltmp125:
	movq	%rax, -32(%rbp)
	movl	%edx, -52(%rbp)
	movq	%rbx, %rdi
	callq	_ZNSt12_Vector_baseIdSaIdEED2Ev
# %bb.3:
	movq	-32(%rbp), %rdi
	callq	_Unwind_Resume@PLT
.Lfunc_end42:
	.size	_ZNSt6vectorIdSaIdEEC2EmRKdRKS0_, .Lfunc_end42-_ZNSt6vectorIdSaIdEEC2EmRKdRKS0_
	.cfi_endproc
	.section	.gcc_except_table._ZNSt6vectorIdSaIdEEC2EmRKdRKS0_,"aG",@progbits,_ZNSt6vectorIdSaIdEEC2EmRKdRKS0_,comdat
	.p2align	2
GCC_except_table42:
.Lexception15:
	.byte	255                             # @LPStart Encoding = omit
	.byte	255                             # @TType Encoding = omit
	.byte	1                               # Call site Encoding = uleb128
	.uleb128 .Lcst_end15-.Lcst_begin15
.Lcst_begin15:
	.uleb128 .Lfunc_begin15-.Lfunc_begin15  # >> Call Site 1 <<
	.uleb128 .Ltmp123-.Lfunc_begin15        #   Call between .Lfunc_begin15 and .Ltmp123
	.byte	0                               #     has no landing pad
	.byte	0                               #   On action: cleanup
	.uleb128 .Ltmp123-.Lfunc_begin15        # >> Call Site 2 <<
	.uleb128 .Ltmp124-.Ltmp123              #   Call between .Ltmp123 and .Ltmp124
	.uleb128 .Ltmp125-.Lfunc_begin15        #     jumps to .Ltmp125
	.byte	0                               #   On action: cleanup
	.uleb128 .Ltmp124-.Lfunc_begin15        # >> Call Site 3 <<
	.uleb128 .Lfunc_end42-.Ltmp124          #   Call between .Ltmp124 and .Lfunc_end42
	.byte	0                               #     has no landing pad
	.byte	0                               #   On action: cleanup
.Lcst_end15:
	.p2align	2
                                        # -- End function
	.section	.text._ZNSt6vectorIdSaIdEEaSEOS1_,"axG",@progbits,_ZNSt6vectorIdSaIdEEaSEOS1_,comdat
	.weak	_ZNSt6vectorIdSaIdEEaSEOS1_     # -- Begin function _ZNSt6vectorIdSaIdEEaSEOS1_
	.p2align	4, 0x90
	.type	_ZNSt6vectorIdSaIdEEaSEOS1_,@function
_ZNSt6vectorIdSaIdEEaSEOS1_:            # @_ZNSt6vectorIdSaIdEEaSEOS1_
	.cfi_startproc
# %bb.0:
	pushq	%rbp
	.cfi_def_cfa_offset 16
	.cfi_offset %rbp, -16
	movq	%rsp, %rbp
	.cfi_def_cfa_register %rbp
	pushq	%rbx
	subq	$40, %rsp
	.cfi_offset %rbx, -24
	movq	%rdi, -32(%rbp)
	movq	%rsi, -24(%rbp)
	movq	-32(%rbp), %rbx
	movb	$1, -9(%rbp)
	movq	-24(%rbp), %rdi
	callq	_ZSt4moveIRSt6vectorIdSaIdEEEONSt16remove_referenceIT_E4typeEOS5_
	movq	%rbx, %rdi
	movq	%rax, %rsi
	callq	_ZNSt6vectorIdSaIdEE14_M_move_assignEOS1_St17integral_constantIbLb1EE
	movq	%rbx, %rax
	addq	$40, %rsp
	popq	%rbx
	popq	%rbp
	.cfi_def_cfa %rsp, 8
	retq
.Lfunc_end43:
	.size	_ZNSt6vectorIdSaIdEEaSEOS1_, .Lfunc_end43-_ZNSt6vectorIdSaIdEEaSEOS1_
	.cfi_endproc
                                        # -- End function
	.section	.text._ZNSt6vectorIS_IdSaIdEESaIS1_EEaSERKS3_,"axG",@progbits,_ZNSt6vectorIS_IdSaIdEESaIS1_EEaSERKS3_,comdat
	.weak	_ZNSt6vectorIS_IdSaIdEESaIS1_EEaSERKS3_ # -- Begin function _ZNSt6vectorIS_IdSaIdEESaIS1_EEaSERKS3_
	.p2align	4, 0x90
	.type	_ZNSt6vectorIS_IdSaIdEESaIS1_EEaSERKS3_,@function
_ZNSt6vectorIS_IdSaIdEESaIS1_EEaSERKS3_: # @_ZNSt6vectorIS_IdSaIdEESaIS1_EEaSERKS3_
	.cfi_startproc
# %bb.0:
	pushq	%rbp
	.cfi_def_cfa_offset 16
	.cfi_offset %rbp, -16
	movq	%rsp, %rbp
	.cfi_def_cfa_register %rbp
	pushq	%r15
	pushq	%r14
	pushq	%r12
	pushq	%rbx
	subq	$96, %rsp
	.cfi_offset %rbx, -48
	.cfi_offset %r12, -40
	.cfi_offset %r14, -32
	.cfi_offset %r15, -24
	movq	%rdi, -120(%rbp)
	movq	%rsi, -40(%rbp)
	movq	-120(%rbp), %rbx
	cmpq	%rbx, -40(%rbp)
	je	.LBB44_8
# %bb.1:
	movq	-40(%rbp), %rdi
	callq	_ZNKSt6vectorIS_IdSaIdEESaIS1_EE4sizeEv
	movq	%rax, -48(%rbp)
	movq	-48(%rbp), %r14
	movq	%rbx, %rdi
	callq	_ZNKSt6vectorIS_IdSaIdEESaIS1_EE8capacityEv
	cmpq	%rax, %r14
	jbe	.LBB44_3
# %bb.2:
	movq	-48(%rbp), %r14
	movq	-40(%rbp), %rdi
	callq	_ZNKSt6vectorIS_IdSaIdEESaIS1_EE5beginEv
	movq	%rax, -104(%rbp)
	movq	-40(%rbp), %rdi
	callq	_ZNKSt6vectorIS_IdSaIdEESaIS1_EE3endEv
	movq	%rax, -96(%rbp)
	movq	-104(%rbp), %rdx
	movq	-96(%rbp), %rcx
	movq	%rbx, %rdi
	movq	%r14, %rsi
	callq	_ZNSt6vectorIS_IdSaIdEESaIS1_EE20_M_allocate_and_copyIN9__gnu_cxx17__normal_iteratorIPKS1_S3_EEEEPS1_mT_SB_
	movq	%rax, -112(%rbp)
	movq	(%rbx), %r14
	movq	8(%rbx), %r15
	movq	%rbx, %rdi
	callq	_ZNSt12_Vector_baseISt6vectorIdSaIdEESaIS2_EE19_M_get_Tp_allocatorEv
	movq	%r14, %rdi
	movq	%r15, %rsi
	movq	%rax, %rdx
	callq	_ZSt8_DestroyIPSt6vectorIdSaIdEES2_EvT_S4_RSaIT0_E
	movq	(%rbx), %rsi
	movq	16(%rbx), %rax
	movq	(%rbx), %rcx
	subq	%rcx, %rax
	movl	$24, %ecx
	cqto
	idivq	%rcx
	movq	%rbx, %rdi
	movq	%rax, %rdx
	callq	_ZNSt12_Vector_baseISt6vectorIdSaIdEESaIS2_EE13_M_deallocateEPS2_m
	movq	-112(%rbp), %rax
	movq	%rax, (%rbx)
	movq	(%rbx), %rax
	imulq	$24, -48(%rbp), %rcx
	addq	%rcx, %rax
	movq	%rax, 16(%rbx)
	jmp	.LBB44_7
.LBB44_3:
	movq	%rbx, %rdi
	callq	_ZNKSt6vectorIS_IdSaIdEESaIS1_EE4sizeEv
	cmpq	-48(%rbp), %rax
	jb	.LBB44_5
# %bb.4:
	movq	-40(%rbp), %rdi
	callq	_ZNKSt6vectorIS_IdSaIdEESaIS1_EE5beginEv
	movq	%rax, -80(%rbp)
	movq	-40(%rbp), %rdi
	callq	_ZNKSt6vectorIS_IdSaIdEESaIS1_EE3endEv
	movq	%rax, -72(%rbp)
	movq	%rbx, %rdi
	callq	_ZNSt6vectorIS_IdSaIdEESaIS1_EE5beginEv
	movq	%rax, -64(%rbp)
	movq	-80(%rbp), %rdi
	movq	-72(%rbp), %rsi
	movq	-64(%rbp), %rdx
	callq	_ZSt4copyIN9__gnu_cxx17__normal_iteratorIPKSt6vectorIdSaIdEES2_IS4_SaIS4_EEEENS1_IPS4_S8_EEET0_T_SD_SC_
	movq	%rax, -88(%rbp)
	movq	%rbx, %rdi
	callq	_ZNSt6vectorIS_IdSaIdEESaIS1_EE3endEv
	movq	%rax, -56(%rbp)
	movq	%rbx, %rdi
	callq	_ZNSt12_Vector_baseISt6vectorIdSaIdEESaIS2_EE19_M_get_Tp_allocatorEv
	movq	-88(%rbp), %rdi
	movq	-56(%rbp), %rsi
	movq	%rax, %rdx
	callq	_ZSt8_DestroyIN9__gnu_cxx17__normal_iteratorIPSt6vectorIdSaIdEES2_IS4_SaIS4_EEEES4_EvT_S9_RSaIT0_E
	jmp	.LBB44_6
.LBB44_5:
	movq	-40(%rbp), %rax
	movq	(%rax), %r14
	movq	-40(%rbp), %rax
	movq	(%rax), %r15
	movq	%rbx, %rdi
	callq	_ZNKSt6vectorIS_IdSaIdEESaIS1_EE4sizeEv
	imulq	$24, %rax, %rax
	addq	%rax, %r15
	movq	(%rbx), %rdx
	movq	%r14, %rdi
	movq	%r15, %rsi
	callq	_ZSt4copyIPSt6vectorIdSaIdEES3_ET0_T_S5_S4_
	movq	-40(%rbp), %rax
	movq	(%rax), %r14
	movq	%rbx, %rdi
	callq	_ZNKSt6vectorIS_IdSaIdEESaIS1_EE4sizeEv
	imulq	$24, %rax, %rax
	addq	%rax, %r14
	movq	-40(%rbp), %rax
	movq	8(%rax), %r15
	movq	8(%rbx), %r12
	movq	%rbx, %rdi
	callq	_ZNSt12_Vector_baseISt6vectorIdSaIdEESaIS2_EE19_M_get_Tp_allocatorEv
	movq	%r14, %rdi
	movq	%r15, %rsi
	movq	%r12, %rdx
	movq	%rax, %rcx
	callq	_ZSt22__uninitialized_copy_aIPSt6vectorIdSaIdEES3_S2_ET0_T_S5_S4_RSaIT1_E
.LBB44_6:
	jmp	.LBB44_7
.LBB44_7:
	movq	(%rbx), %rax
	imulq	$24, -48(%rbp), %rcx
	addq	%rcx, %rax
	movq	%rax, 8(%rbx)
.LBB44_8:
	movq	%rbx, %rax
	addq	$96, %rsp
	popq	%rbx
	popq	%r12
	popq	%r14
	popq	%r15
	popq	%rbp
	.cfi_def_cfa %rsp, 8
	retq
.Lfunc_end44:
	.size	_ZNSt6vectorIS_IdSaIdEESaIS1_EEaSERKS3_, .Lfunc_end44-_ZNSt6vectorIS_IdSaIdEESaIS1_EEaSERKS3_
	.cfi_endproc
                                        # -- End function
	.section	.text._ZNSt6vectorIiSaIiEEaSERKS1_,"axG",@progbits,_ZNSt6vectorIiSaIiEEaSERKS1_,comdat
	.weak	_ZNSt6vectorIiSaIiEEaSERKS1_    # -- Begin function _ZNSt6vectorIiSaIiEEaSERKS1_
	.p2align	4, 0x90
	.type	_ZNSt6vectorIiSaIiEEaSERKS1_,@function
_ZNSt6vectorIiSaIiEEaSERKS1_:           # @_ZNSt6vectorIiSaIiEEaSERKS1_
	.cfi_startproc
# %bb.0:
	pushq	%rbp
	.cfi_def_cfa_offset 16
	.cfi_offset %rbp, -16
	movq	%rsp, %rbp
	.cfi_def_cfa_register %rbp
	pushq	%r15
	pushq	%r14
	pushq	%r12
	pushq	%rbx
	subq	$96, %rsp
	.cfi_offset %rbx, -48
	.cfi_offset %r12, -40
	.cfi_offset %r14, -32
	.cfi_offset %r15, -24
	movq	%rdi, -120(%rbp)
	movq	%rsi, -40(%rbp)
	movq	-120(%rbp), %rbx
	cmpq	%rbx, -40(%rbp)
	je	.LBB45_8
# %bb.1:
	movq	-40(%rbp), %rdi
	callq	_ZNKSt6vectorIiSaIiEE4sizeEv
	movq	%rax, -48(%rbp)
	movq	-48(%rbp), %r14
	movq	%rbx, %rdi
	callq	_ZNKSt6vectorIiSaIiEE8capacityEv
	cmpq	%rax, %r14
	jbe	.LBB45_3
# %bb.2:
	movq	-48(%rbp), %r14
	movq	-40(%rbp), %rdi
	callq	_ZNKSt6vectorIiSaIiEE5beginEv
	movq	%rax, -104(%rbp)
	movq	-40(%rbp), %rdi
	callq	_ZNKSt6vectorIiSaIiEE3endEv
	movq	%rax, -96(%rbp)
	movq	-104(%rbp), %rdx
	movq	-96(%rbp), %rcx
	movq	%rbx, %rdi
	movq	%r14, %rsi
	callq	_ZNSt6vectorIiSaIiEE20_M_allocate_and_copyIN9__gnu_cxx17__normal_iteratorIPKiS1_EEEEPimT_S9_
	movq	%rax, -112(%rbp)
	movq	(%rbx), %r14
	movq	8(%rbx), %r15
	movq	%rbx, %rdi
	callq	_ZNSt12_Vector_baseIiSaIiEE19_M_get_Tp_allocatorEv
	movq	%r14, %rdi
	movq	%r15, %rsi
	movq	%rax, %rdx
	callq	_ZSt8_DestroyIPiiEvT_S1_RSaIT0_E
	movq	(%rbx), %rsi
	movq	16(%rbx), %rdx
	movq	(%rbx), %rax
	subq	%rax, %rdx
	sarq	$2, %rdx
	movq	%rbx, %rdi
	callq	_ZNSt12_Vector_baseIiSaIiEE13_M_deallocateEPim
	movq	-112(%rbp), %rax
	movq	%rax, (%rbx)
	movq	(%rbx), %rax
	movq	-48(%rbp), %rcx
	shlq	$2, %rcx
	addq	%rcx, %rax
	movq	%rax, 16(%rbx)
	jmp	.LBB45_7
.LBB45_3:
	movq	%rbx, %rdi
	callq	_ZNKSt6vectorIiSaIiEE4sizeEv
	cmpq	-48(%rbp), %rax
	jb	.LBB45_5
# %bb.4:
	movq	-40(%rbp), %rdi
	callq	_ZNKSt6vectorIiSaIiEE5beginEv
	movq	%rax, -80(%rbp)
	movq	-40(%rbp), %rdi
	callq	_ZNKSt6vectorIiSaIiEE3endEv
	movq	%rax, -72(%rbp)
	movq	%rbx, %rdi
	callq	_ZNSt6vectorIiSaIiEE5beginEv
	movq	%rax, -64(%rbp)
	movq	-80(%rbp), %rdi
	movq	-72(%rbp), %rsi
	movq	-64(%rbp), %rdx
	callq	_ZSt4copyIN9__gnu_cxx17__normal_iteratorIPKiSt6vectorIiSaIiEEEENS1_IPiS6_EEET0_T_SB_SA_
	movq	%rax, -88(%rbp)
	movq	%rbx, %rdi
	callq	_ZNSt6vectorIiSaIiEE3endEv
	movq	%rax, -56(%rbp)
	movq	%rbx, %rdi
	callq	_ZNSt12_Vector_baseIiSaIiEE19_M_get_Tp_allocatorEv
	movq	-88(%rbp), %rdi
	movq	-56(%rbp), %rsi
	movq	%rax, %rdx
	callq	_ZSt8_DestroyIN9__gnu_cxx17__normal_iteratorIPiSt6vectorIiSaIiEEEEiEvT_S7_RSaIT0_E
	jmp	.LBB45_6
.LBB45_5:
	movq	-40(%rbp), %rax
	movq	(%rax), %r14
	movq	-40(%rbp), %rax
	movq	(%rax), %r15
	movq	%rbx, %rdi
	callq	_ZNKSt6vectorIiSaIiEE4sizeEv
	shlq	$2, %rax
	addq	%rax, %r15
	movq	(%rbx), %rdx
	movq	%r14, %rdi
	movq	%r15, %rsi
	callq	_ZSt4copyIPiS0_ET0_T_S2_S1_
	movq	-40(%rbp), %rax
	movq	(%rax), %r14
	movq	%rbx, %rdi
	callq	_ZNKSt6vectorIiSaIiEE4sizeEv
	shlq	$2, %rax
	addq	%rax, %r14
	movq	-40(%rbp), %rax
	movq	8(%rax), %r15
	movq	8(%rbx), %r12
	movq	%rbx, %rdi
	callq	_ZNSt12_Vector_baseIiSaIiEE19_M_get_Tp_allocatorEv
	movq	%r14, %rdi
	movq	%r15, %rsi
	movq	%r12, %rdx
	movq	%rax, %rcx
	callq	_ZSt22__uninitialized_copy_aIPiS0_iET0_T_S2_S1_RSaIT1_E
.LBB45_6:
	jmp	.LBB45_7
.LBB45_7:
	movq	(%rbx), %rax
	movq	-48(%rbp), %rcx
	shlq	$2, %rcx
	addq	%rcx, %rax
	movq	%rax, 8(%rbx)
.LBB45_8:
	movq	%rbx, %rax
	addq	$96, %rsp
	popq	%rbx
	popq	%r12
	popq	%r14
	popq	%r15
	popq	%rbp
	.cfi_def_cfa %rsp, 8
	retq
.Lfunc_end45:
	.size	_ZNSt6vectorIiSaIiEEaSERKS1_, .Lfunc_end45-_ZNSt6vectorIiSaIiEEaSERKS1_
	.cfi_endproc
                                        # -- End function
	.section	.text._ZNSt6vectorIiSaIiEEixEm,"axG",@progbits,_ZNSt6vectorIiSaIiEEixEm,comdat
	.weak	_ZNSt6vectorIiSaIiEEixEm        # -- Begin function _ZNSt6vectorIiSaIiEEixEm
	.p2align	4, 0x90
	.type	_ZNSt6vectorIiSaIiEEixEm,@function
_ZNSt6vectorIiSaIiEEixEm:               # @_ZNSt6vectorIiSaIiEEixEm
	.cfi_startproc
# %bb.0:
	pushq	%rbp
	.cfi_def_cfa_offset 16
	.cfi_offset %rbp, -16
	movq	%rsp, %rbp
	.cfi_def_cfa_register %rbp
	movq	%rdi, -16(%rbp)
	movq	%rsi, -8(%rbp)
	movq	-16(%rbp), %rax
	movq	(%rax), %rax
	movq	-8(%rbp), %rcx
	shlq	$2, %rcx
	addq	%rcx, %rax
	popq	%rbp
	.cfi_def_cfa %rsp, 8
	retq
.Lfunc_end46:
	.size	_ZNSt6vectorIiSaIiEEixEm, .Lfunc_end46-_ZNSt6vectorIiSaIiEEixEm
	.cfi_endproc
                                        # -- End function
	.section	.text._ZN3SVM8select_jEid,"axG",@progbits,_ZN3SVM8select_jEid,comdat
	.weak	_ZN3SVM8select_jEid             # -- Begin function _ZN3SVM8select_jEid
	.p2align	4, 0x90
	.type	_ZN3SVM8select_jEid,@function
_ZN3SVM8select_jEid:                    # @_ZN3SVM8select_jEid
	.cfi_startproc
# %bb.0:
	pushq	%rbp
	.cfi_def_cfa_offset 16
	.cfi_offset %rbp, -16
	movq	%rsp, %rbp
	.cfi_def_cfa_register %rbp
	movq	%rdi, -24(%rbp)
	movl	%esi, -4(%rbp)
	movsd	%xmm0, -16(%rbp)
	xorl	%eax, %eax
	popq	%rbp
	.cfi_def_cfa %rsp, 8
	retq
.Lfunc_end47:
	.size	_ZN3SVM8select_jEid, .Lfunc_end47-_ZN3SVM8select_jEid
	.cfi_endproc
                                        # -- End function
	.section	.text._ZSt3maxIdERKT_S2_S2_,"axG",@progbits,_ZSt3maxIdERKT_S2_S2_,comdat
	.weak	_ZSt3maxIdERKT_S2_S2_           # -- Begin function _ZSt3maxIdERKT_S2_S2_
	.p2align	4, 0x90
	.type	_ZSt3maxIdERKT_S2_S2_,@function
_ZSt3maxIdERKT_S2_S2_:                  # @_ZSt3maxIdERKT_S2_S2_
	.cfi_startproc
# %bb.0:
	pushq	%rbp
	.cfi_def_cfa_offset 16
	.cfi_offset %rbp, -16
	movq	%rsp, %rbp
	.cfi_def_cfa_register %rbp
	movq	%rdi, -16(%rbp)
	movq	%rsi, -8(%rbp)
	movq	-16(%rbp), %rax
	movsd	(%rax), %xmm0                   # xmm0 = mem[0],zero
	movq	-8(%rbp), %rax
	movsd	(%rax), %xmm1                   # xmm1 = mem[0],zero
	ucomisd	%xmm0, %xmm1
	jbe	.LBB48_2
# %bb.1:
	movq	-8(%rbp), %rax
	movq	%rax, -24(%rbp)
	jmp	.LBB48_3
.LBB48_2:
	movq	-16(%rbp), %rax
	movq	%rax, -24(%rbp)
.LBB48_3:
	movq	-24(%rbp), %rax
	popq	%rbp
	.cfi_def_cfa %rsp, 8
	retq
.Lfunc_end48:
	.size	_ZSt3maxIdERKT_S2_S2_, .Lfunc_end48-_ZSt3maxIdERKT_S2_S2_
	.cfi_endproc
                                        # -- End function
	.section	.text._ZSt3minIdERKT_S2_S2_,"axG",@progbits,_ZSt3minIdERKT_S2_S2_,comdat
	.weak	_ZSt3minIdERKT_S2_S2_           # -- Begin function _ZSt3minIdERKT_S2_S2_
	.p2align	4, 0x90
	.type	_ZSt3minIdERKT_S2_S2_,@function
_ZSt3minIdERKT_S2_S2_:                  # @_ZSt3minIdERKT_S2_S2_
	.cfi_startproc
# %bb.0:
	pushq	%rbp
	.cfi_def_cfa_offset 16
	.cfi_offset %rbp, -16
	movq	%rsp, %rbp
	.cfi_def_cfa_register %rbp
	movq	%rdi, -16(%rbp)
	movq	%rsi, -8(%rbp)
	movq	-8(%rbp), %rax
	movsd	(%rax), %xmm0                   # xmm0 = mem[0],zero
	movq	-16(%rbp), %rax
	movsd	(%rax), %xmm1                   # xmm1 = mem[0],zero
	ucomisd	%xmm0, %xmm1
	jbe	.LBB49_2
# %bb.1:
	movq	-8(%rbp), %rax
	movq	%rax, -24(%rbp)
	jmp	.LBB49_3
.LBB49_2:
	movq	-16(%rbp), %rax
	movq	%rax, -24(%rbp)
.LBB49_3:
	movq	-24(%rbp), %rax
	popq	%rbp
	.cfi_def_cfa %rsp, 8
	retq
.Lfunc_end49:
	.size	_ZSt3minIdERKT_S2_S2_, .Lfunc_end49-_ZSt3minIdERKT_S2_S2_
	.cfi_endproc
                                        # -- End function
	.section	.rodata.cst16,"aM",@progbits,16
	.p2align	4                               # -- Begin function _ZSt3absd
.LCPI50_0:
	.quad	0x7fffffffffffffff              # double NaN
	.quad	0x7fffffffffffffff              # double NaN
	.section	.text._ZSt3absd,"axG",@progbits,_ZSt3absd,comdat
	.weak	_ZSt3absd
	.p2align	4, 0x90
	.type	_ZSt3absd,@function
_ZSt3absd:                              # @_ZSt3absd
	.cfi_startproc
# %bb.0:
	pushq	%rbp
	.cfi_def_cfa_offset 16
	.cfi_offset %rbp, -16
	movq	%rsp, %rbp
	.cfi_def_cfa_register %rbp
	movsd	%xmm0, -8(%rbp)
	movsd	-8(%rbp), %xmm0                 # xmm0 = mem[0],zero
	movaps	.LCPI50_0(%rip), %xmm1          # xmm1 = [NaN,NaN]
	pand	%xmm1, %xmm0
	popq	%rbp
	.cfi_def_cfa %rsp, 8
	retq
.Lfunc_end50:
	.size	_ZSt3absd, .Lfunc_end50-_ZSt3absd
	.cfi_endproc
                                        # -- End function
	.section	.text._ZNSt6vectorIdSaIdEE17_S_check_init_lenEmRKS0_,"axG",@progbits,_ZNSt6vectorIdSaIdEE17_S_check_init_lenEmRKS0_,comdat
	.weak	_ZNSt6vectorIdSaIdEE17_S_check_init_lenEmRKS0_ # -- Begin function _ZNSt6vectorIdSaIdEE17_S_check_init_lenEmRKS0_
	.p2align	4, 0x90
	.type	_ZNSt6vectorIdSaIdEE17_S_check_init_lenEmRKS0_,@function
_ZNSt6vectorIdSaIdEE17_S_check_init_lenEmRKS0_: # @_ZNSt6vectorIdSaIdEE17_S_check_init_lenEmRKS0_
	.cfi_startproc
# %bb.0:
	pushq	%rbp
	.cfi_def_cfa_offset 16
	.cfi_offset %rbp, -16
	movq	%rsp, %rbp
	.cfi_def_cfa_register %rbp
	pushq	%r14
	pushq	%rbx
	subq	$32, %rsp
	.cfi_offset %rbx, -32
	.cfi_offset %r14, -24
	movq	%rdi, -32(%rbp)
	movq	%rsi, -40(%rbp)
	movq	-32(%rbp), %r14
	movq	-40(%rbp), %rsi
	leaq	-24(%rbp), %rdi
	callq	_ZNSaIdEC2ERKS_
	leaq	-24(%rbp), %rdi
	callq	_ZNSt6vectorIdSaIdEE11_S_max_sizeERKS0_
	movq	%rax, %rbx
	leaq	-24(%rbp), %rdi
	callq	_ZNSaIdED2Ev
	cmpq	%rbx, %r14
	jbe	.LBB51_2
# %bb.1:
	movabsq	$.L.str.1, %rdi
	callq	_ZSt20__throw_length_errorPKc@PLT
.LBB51_2:
	movq	-32(%rbp), %rax
	addq	$32, %rsp
	popq	%rbx
	popq	%r14
	popq	%rbp
	.cfi_def_cfa %rsp, 8
	retq
.Lfunc_end51:
	.size	_ZNSt6vectorIdSaIdEE17_S_check_init_lenEmRKS0_, .Lfunc_end51-_ZNSt6vectorIdSaIdEE17_S_check_init_lenEmRKS0_
	.cfi_endproc
                                        # -- End function
	.section	.text._ZNSt12_Vector_baseIdSaIdEEC2EmRKS0_,"axG",@progbits,_ZNSt12_Vector_baseIdSaIdEEC2EmRKS0_,comdat
	.weak	_ZNSt12_Vector_baseIdSaIdEEC2EmRKS0_ # -- Begin function _ZNSt12_Vector_baseIdSaIdEEC2EmRKS0_
	.p2align	4, 0x90
	.type	_ZNSt12_Vector_baseIdSaIdEEC2EmRKS0_,@function
_ZNSt12_Vector_baseIdSaIdEEC2EmRKS0_:   # @_ZNSt12_Vector_baseIdSaIdEEC2EmRKS0_
.Lfunc_begin16:
	.cfi_startproc
	.cfi_personality 3, __gxx_personality_v0
	.cfi_lsda 3, .Lexception16
# %bb.0:
	pushq	%rbp
	.cfi_def_cfa_offset 16
	.cfi_offset %rbp, -16
	movq	%rsp, %rbp
	.cfi_def_cfa_register %rbp
	pushq	%rbx
	subq	$40, %rsp
	.cfi_offset %rbx, -24
	movq	%rdi, -40(%rbp)
	movq	%rsi, -32(%rbp)
	movq	%rdx, -24(%rbp)
	movq	-40(%rbp), %rbx
	movq	-24(%rbp), %rsi
	movq	%rbx, %rdi
	callq	_ZNSt12_Vector_baseIdSaIdEE12_Vector_implC2ERKS0_
	movq	-32(%rbp), %rsi
.Ltmp126:
	movq	%rbx, %rdi
	callq	_ZNSt12_Vector_baseIdSaIdEE17_M_create_storageEm
.Ltmp127:
	jmp	.LBB52_1
.LBB52_1:
	addq	$40, %rsp
	popq	%rbx
	popq	%rbp
	.cfi_def_cfa %rsp, 8
	retq
.LBB52_2:
	.cfi_def_cfa %rbp, 16
.Ltmp128:
	movq	%rax, -16(%rbp)
	movl	%edx, -44(%rbp)
	movq	%rbx, %rdi
	callq	_ZNSt12_Vector_baseIdSaIdEE12_Vector_implD2Ev
# %bb.3:
	movq	-16(%rbp), %rdi
	callq	_Unwind_Resume@PLT
.Lfunc_end52:
	.size	_ZNSt12_Vector_baseIdSaIdEEC2EmRKS0_, .Lfunc_end52-_ZNSt12_Vector_baseIdSaIdEEC2EmRKS0_
	.cfi_endproc
	.section	.gcc_except_table._ZNSt12_Vector_baseIdSaIdEEC2EmRKS0_,"aG",@progbits,_ZNSt12_Vector_baseIdSaIdEEC2EmRKS0_,comdat
	.p2align	2
GCC_except_table52:
.Lexception16:
	.byte	255                             # @LPStart Encoding = omit
	.byte	255                             # @TType Encoding = omit
	.byte	1                               # Call site Encoding = uleb128
	.uleb128 .Lcst_end16-.Lcst_begin16
.Lcst_begin16:
	.uleb128 .Ltmp126-.Lfunc_begin16        # >> Call Site 1 <<
	.uleb128 .Ltmp127-.Ltmp126              #   Call between .Ltmp126 and .Ltmp127
	.uleb128 .Ltmp128-.Lfunc_begin16        #     jumps to .Ltmp128
	.byte	0                               #   On action: cleanup
	.uleb128 .Ltmp127-.Lfunc_begin16        # >> Call Site 2 <<
	.uleb128 .Lfunc_end52-.Ltmp127          #   Call between .Ltmp127 and .Lfunc_end52
	.byte	0                               #     has no landing pad
	.byte	0                               #   On action: cleanup
.Lcst_end16:
	.p2align	2
                                        # -- End function
	.section	.text._ZNSt6vectorIdSaIdEE21_M_default_initializeEm,"axG",@progbits,_ZNSt6vectorIdSaIdEE21_M_default_initializeEm,comdat
	.weak	_ZNSt6vectorIdSaIdEE21_M_default_initializeEm # -- Begin function _ZNSt6vectorIdSaIdEE21_M_default_initializeEm
	.p2align	4, 0x90
	.type	_ZNSt6vectorIdSaIdEE21_M_default_initializeEm,@function
_ZNSt6vectorIdSaIdEE21_M_default_initializeEm: # @_ZNSt6vectorIdSaIdEE21_M_default_initializeEm
	.cfi_startproc
# %bb.0:
	pushq	%rbp
	.cfi_def_cfa_offset 16
	.cfi_offset %rbp, -16
	movq	%rsp, %rbp
	.cfi_def_cfa_register %rbp
	pushq	%r15
	pushq	%r14
	pushq	%rbx
	subq	$24, %rsp
	.cfi_offset %rbx, -40
	.cfi_offset %r14, -32
	.cfi_offset %r15, -24
	movq	%rdi, -40(%rbp)
	movq	%rsi, -32(%rbp)
	movq	-40(%rbp), %rbx
	movq	(%rbx), %r14
	movq	-32(%rbp), %r15
	movq	%rbx, %rdi
	callq	_ZNSt12_Vector_baseIdSaIdEE19_M_get_Tp_allocatorEv
	movq	%r14, %rdi
	movq	%r15, %rsi
	movq	%rax, %rdx
	callq	_ZSt27__uninitialized_default_n_aIPdmdET_S1_T0_RSaIT1_E
	movq	%rax, 8(%rbx)
	addq	$24, %rsp
	popq	%rbx
	popq	%r14
	popq	%r15
	popq	%rbp
	.cfi_def_cfa %rsp, 8
	retq
.Lfunc_end53:
	.size	_ZNSt6vectorIdSaIdEE21_M_default_initializeEm, .Lfunc_end53-_ZNSt6vectorIdSaIdEE21_M_default_initializeEm
	.cfi_endproc
                                        # -- End function
	.section	.text._ZNSt12_Vector_baseIdSaIdEED2Ev,"axG",@progbits,_ZNSt12_Vector_baseIdSaIdEED2Ev,comdat
	.weak	_ZNSt12_Vector_baseIdSaIdEED2Ev # -- Begin function _ZNSt12_Vector_baseIdSaIdEED2Ev
	.p2align	4, 0x90
	.type	_ZNSt12_Vector_baseIdSaIdEED2Ev,@function
_ZNSt12_Vector_baseIdSaIdEED2Ev:        # @_ZNSt12_Vector_baseIdSaIdEED2Ev
.Lfunc_begin17:
	.cfi_startproc
	.cfi_personality 3, __gxx_personality_v0
	.cfi_lsda 3, .Lexception17
# %bb.0:
	pushq	%rbp
	.cfi_def_cfa_offset 16
	.cfi_offset %rbp, -16
	movq	%rsp, %rbp
	.cfi_def_cfa_register %rbp
	pushq	%rbx
	subq	$24, %rsp
	.cfi_offset %rbx, -24
	movq	%rdi, -24(%rbp)
	movq	-24(%rbp), %rbx
	movq	(%rbx), %rsi
	movq	16(%rbx), %rdx
	subq	%rsi, %rdx
	sarq	$3, %rdx
.Ltmp129:
	movq	%rbx, %rdi
	callq	_ZNSt12_Vector_baseIdSaIdEE13_M_deallocateEPdm
.Ltmp130:
	jmp	.LBB54_1
.LBB54_1:
	movq	%rbx, %rdi
	callq	_ZNSt12_Vector_baseIdSaIdEE12_Vector_implD2Ev
	addq	$24, %rsp
	popq	%rbx
	popq	%rbp
	.cfi_def_cfa %rsp, 8
	retq
.LBB54_2:
	.cfi_def_cfa %rbp, 16
.Ltmp131:
	movq	%rax, -16(%rbp)
	movl	%edx, -28(%rbp)
	movq	%rbx, %rdi
	callq	_ZNSt12_Vector_baseIdSaIdEE12_Vector_implD2Ev
# %bb.3:
	movq	-16(%rbp), %rdi
	callq	__clang_call_terminate
.Lfunc_end54:
	.size	_ZNSt12_Vector_baseIdSaIdEED2Ev, .Lfunc_end54-_ZNSt12_Vector_baseIdSaIdEED2Ev
	.cfi_endproc
	.section	.gcc_except_table._ZNSt12_Vector_baseIdSaIdEED2Ev,"aG",@progbits,_ZNSt12_Vector_baseIdSaIdEED2Ev,comdat
	.p2align	2
GCC_except_table54:
.Lexception17:
	.byte	255                             # @LPStart Encoding = omit
	.byte	3                               # @TType Encoding = udata4
	.uleb128 .Lttbase3-.Lttbaseref3
.Lttbaseref3:
	.byte	1                               # Call site Encoding = uleb128
	.uleb128 .Lcst_end17-.Lcst_begin17
.Lcst_begin17:
	.uleb128 .Ltmp129-.Lfunc_begin17        # >> Call Site 1 <<
	.uleb128 .Ltmp130-.Ltmp129              #   Call between .Ltmp129 and .Ltmp130
	.uleb128 .Ltmp131-.Lfunc_begin17        #     jumps to .Ltmp131
	.byte	1                               #   On action: 1
.Lcst_end17:
	.byte	1                               # >> Action Record 1 <<
                                        #   Catch TypeInfo 1
	.byte	0                               #   No further actions
	.p2align	2
                                        # >> Catch TypeInfos <<
	.long	0                               # TypeInfo 1
.Lttbase3:
	.p2align	2
                                        # -- End function
	.section	.text._ZNSt6vectorIdSaIdEE11_S_max_sizeERKS0_,"axG",@progbits,_ZNSt6vectorIdSaIdEE11_S_max_sizeERKS0_,comdat
	.weak	_ZNSt6vectorIdSaIdEE11_S_max_sizeERKS0_ # -- Begin function _ZNSt6vectorIdSaIdEE11_S_max_sizeERKS0_
	.p2align	4, 0x90
	.type	_ZNSt6vectorIdSaIdEE11_S_max_sizeERKS0_,@function
_ZNSt6vectorIdSaIdEE11_S_max_sizeERKS0_: # @_ZNSt6vectorIdSaIdEE11_S_max_sizeERKS0_
.Lfunc_begin18:
	.cfi_startproc
	.cfi_personality 3, __gxx_personality_v0
	.cfi_lsda 3, .Lexception18
# %bb.0:
	pushq	%rbp
	.cfi_def_cfa_offset 16
	.cfi_offset %rbp, -16
	movq	%rsp, %rbp
	.cfi_def_cfa_register %rbp
	subq	$32, %rsp
	movq	%rdi, -24(%rbp)
	movabsq	$1152921504606846975, %rax      # imm = 0xFFFFFFFFFFFFFFF
	movq	%rax, -16(%rbp)
	movq	-24(%rbp), %rdi
	callq	_ZNSt16allocator_traitsISaIdEE8max_sizeERKS0_
	movq	%rax, -8(%rbp)
.Ltmp132:
	leaq	-16(%rbp), %rdi
	leaq	-8(%rbp), %rsi
	callq	_ZSt3minImERKT_S2_S2_
.Ltmp133:
	jmp	.LBB55_1
.LBB55_1:
	movq	(%rax), %rax
	addq	$32, %rsp
	popq	%rbp
	.cfi_def_cfa %rsp, 8
	retq
.LBB55_2:
	.cfi_def_cfa %rbp, 16
.Ltmp134:
                                        # kill: killed $rdx
	movq	%rax, %rdi
	callq	__clang_call_terminate
.Lfunc_end55:
	.size	_ZNSt6vectorIdSaIdEE11_S_max_sizeERKS0_, .Lfunc_end55-_ZNSt6vectorIdSaIdEE11_S_max_sizeERKS0_
	.cfi_endproc
	.section	.gcc_except_table._ZNSt6vectorIdSaIdEE11_S_max_sizeERKS0_,"aG",@progbits,_ZNSt6vectorIdSaIdEE11_S_max_sizeERKS0_,comdat
	.p2align	2
GCC_except_table55:
.Lexception18:
	.byte	255                             # @LPStart Encoding = omit
	.byte	3                               # @TType Encoding = udata4
	.uleb128 .Lttbase4-.Lttbaseref4
.Lttbaseref4:
	.byte	1                               # Call site Encoding = uleb128
	.uleb128 .Lcst_end18-.Lcst_begin18
.Lcst_begin18:
	.uleb128 .Ltmp132-.Lfunc_begin18        # >> Call Site 1 <<
	.uleb128 .Ltmp133-.Ltmp132              #   Call between .Ltmp132 and .Ltmp133
	.uleb128 .Ltmp134-.Lfunc_begin18        #     jumps to .Ltmp134
	.byte	1                               #   On action: 1
.Lcst_end18:
	.byte	1                               # >> Action Record 1 <<
                                        #   Catch TypeInfo 1
	.byte	0                               #   No further actions
	.p2align	2
                                        # >> Catch TypeInfos <<
	.long	0                               # TypeInfo 1
.Lttbase4:
	.p2align	2
                                        # -- End function
	.section	.text._ZNSaIdEC2ERKS_,"axG",@progbits,_ZNSaIdEC2ERKS_,comdat
	.weak	_ZNSaIdEC2ERKS_                 # -- Begin function _ZNSaIdEC2ERKS_
	.p2align	4, 0x90
	.type	_ZNSaIdEC2ERKS_,@function
_ZNSaIdEC2ERKS_:                        # @_ZNSaIdEC2ERKS_
	.cfi_startproc
# %bb.0:
	pushq	%rbp
	.cfi_def_cfa_offset 16
	.cfi_offset %rbp, -16
	movq	%rsp, %rbp
	.cfi_def_cfa_register %rbp
	subq	$16, %rsp
	movq	%rdi, -16(%rbp)
	movq	%rsi, -8(%rbp)
	movq	-16(%rbp), %rdi
	movq	-8(%rbp), %rsi
	callq	_ZN9__gnu_cxx13new_allocatorIdEC2ERKS1_
	addq	$16, %rsp
	popq	%rbp
	.cfi_def_cfa %rsp, 8
	retq
.Lfunc_end56:
	.size	_ZNSaIdEC2ERKS_, .Lfunc_end56-_ZNSaIdEC2ERKS_
	.cfi_endproc
                                        # -- End function
	.section	.text._ZNSt16allocator_traitsISaIdEE8max_sizeERKS0_,"axG",@progbits,_ZNSt16allocator_traitsISaIdEE8max_sizeERKS0_,comdat
	.weak	_ZNSt16allocator_traitsISaIdEE8max_sizeERKS0_ # -- Begin function _ZNSt16allocator_traitsISaIdEE8max_sizeERKS0_
	.p2align	4, 0x90
	.type	_ZNSt16allocator_traitsISaIdEE8max_sizeERKS0_,@function
_ZNSt16allocator_traitsISaIdEE8max_sizeERKS0_: # @_ZNSt16allocator_traitsISaIdEE8max_sizeERKS0_
	.cfi_startproc
# %bb.0:
	pushq	%rbp
	.cfi_def_cfa_offset 16
	.cfi_offset %rbp, -16
	movq	%rsp, %rbp
	.cfi_def_cfa_register %rbp
	subq	$16, %rsp
	movq	%rdi, -8(%rbp)
	movq	-8(%rbp), %rdi
	callq	_ZNK9__gnu_cxx13new_allocatorIdE8max_sizeEv
	addq	$16, %rsp
	popq	%rbp
	.cfi_def_cfa %rsp, 8
	retq
.Lfunc_end57:
	.size	_ZNSt16allocator_traitsISaIdEE8max_sizeERKS0_, .Lfunc_end57-_ZNSt16allocator_traitsISaIdEE8max_sizeERKS0_
	.cfi_endproc
                                        # -- End function
	.section	.text._ZSt3minImERKT_S2_S2_,"axG",@progbits,_ZSt3minImERKT_S2_S2_,comdat
	.weak	_ZSt3minImERKT_S2_S2_           # -- Begin function _ZSt3minImERKT_S2_S2_
	.p2align	4, 0x90
	.type	_ZSt3minImERKT_S2_S2_,@function
_ZSt3minImERKT_S2_S2_:                  # @_ZSt3minImERKT_S2_S2_
	.cfi_startproc
# %bb.0:
	pushq	%rbp
	.cfi_def_cfa_offset 16
	.cfi_offset %rbp, -16
	movq	%rsp, %rbp
	.cfi_def_cfa_register %rbp
	movq	%rdi, -16(%rbp)
	movq	%rsi, -8(%rbp)
	movq	-8(%rbp), %rax
	movq	(%rax), %rax
	movq	-16(%rbp), %rcx
	cmpq	(%rcx), %rax
	jae	.LBB58_2
# %bb.1:
	movq	-8(%rbp), %rax
	movq	%rax, -24(%rbp)
	jmp	.LBB58_3
.LBB58_2:
	movq	-16(%rbp), %rax
	movq	%rax, -24(%rbp)
.LBB58_3:
	movq	-24(%rbp), %rax
	popq	%rbp
	.cfi_def_cfa %rsp, 8
	retq
.Lfunc_end58:
	.size	_ZSt3minImERKT_S2_S2_, .Lfunc_end58-_ZSt3minImERKT_S2_S2_
	.cfi_endproc
                                        # -- End function
	.section	.text.__clang_call_terminate,"axG",@progbits,__clang_call_terminate,comdat
	.hidden	__clang_call_terminate          # -- Begin function __clang_call_terminate
	.weak	__clang_call_terminate
	.p2align	4, 0x90
	.type	__clang_call_terminate,@function
__clang_call_terminate:                 # @__clang_call_terminate
# %bb.0:
	pushq	%rax
	callq	__cxa_begin_catch@PLT
	callq	_ZSt9terminatev@PLT
.Lfunc_end59:
	.size	__clang_call_terminate, .Lfunc_end59-__clang_call_terminate
                                        # -- End function
	.section	.text._ZNK9__gnu_cxx13new_allocatorIdE8max_sizeEv,"axG",@progbits,_ZNK9__gnu_cxx13new_allocatorIdE8max_sizeEv,comdat
	.weak	_ZNK9__gnu_cxx13new_allocatorIdE8max_sizeEv # -- Begin function _ZNK9__gnu_cxx13new_allocatorIdE8max_sizeEv
	.p2align	4, 0x90
	.type	_ZNK9__gnu_cxx13new_allocatorIdE8max_sizeEv,@function
_ZNK9__gnu_cxx13new_allocatorIdE8max_sizeEv: # @_ZNK9__gnu_cxx13new_allocatorIdE8max_sizeEv
	.cfi_startproc
# %bb.0:
	pushq	%rbp
	.cfi_def_cfa_offset 16
	.cfi_offset %rbp, -16
	movq	%rsp, %rbp
	.cfi_def_cfa_register %rbp
	subq	$16, %rsp
	movq	%rdi, -8(%rbp)
	movq	-8(%rbp), %rdi
	callq	_ZNK9__gnu_cxx13new_allocatorIdE11_M_max_sizeEv
	addq	$16, %rsp
	popq	%rbp
	.cfi_def_cfa %rsp, 8
	retq
.Lfunc_end60:
	.size	_ZNK9__gnu_cxx13new_allocatorIdE8max_sizeEv, .Lfunc_end60-_ZNK9__gnu_cxx13new_allocatorIdE8max_sizeEv
	.cfi_endproc
                                        # -- End function
	.section	.text._ZNK9__gnu_cxx13new_allocatorIdE11_M_max_sizeEv,"axG",@progbits,_ZNK9__gnu_cxx13new_allocatorIdE11_M_max_sizeEv,comdat
	.weak	_ZNK9__gnu_cxx13new_allocatorIdE11_M_max_sizeEv # -- Begin function _ZNK9__gnu_cxx13new_allocatorIdE11_M_max_sizeEv
	.p2align	4, 0x90
	.type	_ZNK9__gnu_cxx13new_allocatorIdE11_M_max_sizeEv,@function
_ZNK9__gnu_cxx13new_allocatorIdE11_M_max_sizeEv: # @_ZNK9__gnu_cxx13new_allocatorIdE11_M_max_sizeEv
	.cfi_startproc
# %bb.0:
	pushq	%rbp
	.cfi_def_cfa_offset 16
	.cfi_offset %rbp, -16
	movq	%rsp, %rbp
	.cfi_def_cfa_register %rbp
	movq	%rdi, -8(%rbp)
	movabsq	$1152921504606846975, %rax      # imm = 0xFFFFFFFFFFFFFFF
	popq	%rbp
	.cfi_def_cfa %rsp, 8
	retq
.Lfunc_end61:
	.size	_ZNK9__gnu_cxx13new_allocatorIdE11_M_max_sizeEv, .Lfunc_end61-_ZNK9__gnu_cxx13new_allocatorIdE11_M_max_sizeEv
	.cfi_endproc
                                        # -- End function
	.section	.text._ZN9__gnu_cxx13new_allocatorIdEC2ERKS1_,"axG",@progbits,_ZN9__gnu_cxx13new_allocatorIdEC2ERKS1_,comdat
	.weak	_ZN9__gnu_cxx13new_allocatorIdEC2ERKS1_ # -- Begin function _ZN9__gnu_cxx13new_allocatorIdEC2ERKS1_
	.p2align	4, 0x90
	.type	_ZN9__gnu_cxx13new_allocatorIdEC2ERKS1_,@function
_ZN9__gnu_cxx13new_allocatorIdEC2ERKS1_: # @_ZN9__gnu_cxx13new_allocatorIdEC2ERKS1_
	.cfi_startproc
# %bb.0:
	pushq	%rbp
	.cfi_def_cfa_offset 16
	.cfi_offset %rbp, -16
	movq	%rsp, %rbp
	.cfi_def_cfa_register %rbp
	movq	%rdi, -16(%rbp)
	movq	%rsi, -8(%rbp)
	popq	%rbp
	.cfi_def_cfa %rsp, 8
	retq
.Lfunc_end62:
	.size	_ZN9__gnu_cxx13new_allocatorIdEC2ERKS1_, .Lfunc_end62-_ZN9__gnu_cxx13new_allocatorIdEC2ERKS1_
	.cfi_endproc
                                        # -- End function
	.section	.text._ZNSt12_Vector_baseIdSaIdEE12_Vector_implC2ERKS0_,"axG",@progbits,_ZNSt12_Vector_baseIdSaIdEE12_Vector_implC2ERKS0_,comdat
	.weak	_ZNSt12_Vector_baseIdSaIdEE12_Vector_implC2ERKS0_ # -- Begin function _ZNSt12_Vector_baseIdSaIdEE12_Vector_implC2ERKS0_
	.p2align	4, 0x90
	.type	_ZNSt12_Vector_baseIdSaIdEE12_Vector_implC2ERKS0_,@function
_ZNSt12_Vector_baseIdSaIdEE12_Vector_implC2ERKS0_: # @_ZNSt12_Vector_baseIdSaIdEE12_Vector_implC2ERKS0_
	.cfi_startproc
# %bb.0:
	pushq	%rbp
	.cfi_def_cfa_offset 16
	.cfi_offset %rbp, -16
	movq	%rsp, %rbp
	.cfi_def_cfa_register %rbp
	pushq	%rbx
	subq	$24, %rsp
	.cfi_offset %rbx, -24
	movq	%rdi, -24(%rbp)
	movq	%rsi, -16(%rbp)
	movq	-24(%rbp), %rbx
	movq	-16(%rbp), %rsi
	movq	%rbx, %rdi
	callq	_ZNSaIdEC2ERKS_
	movq	%rbx, %rdi
	callq	_ZNSt12_Vector_baseIdSaIdEE17_Vector_impl_dataC2Ev
	addq	$24, %rsp
	popq	%rbx
	popq	%rbp
	.cfi_def_cfa %rsp, 8
	retq
.Lfunc_end63:
	.size	_ZNSt12_Vector_baseIdSaIdEE12_Vector_implC2ERKS0_, .Lfunc_end63-_ZNSt12_Vector_baseIdSaIdEE12_Vector_implC2ERKS0_
	.cfi_endproc
                                        # -- End function
	.section	.text._ZNSt12_Vector_baseIdSaIdEE17_M_create_storageEm,"axG",@progbits,_ZNSt12_Vector_baseIdSaIdEE17_M_create_storageEm,comdat
	.weak	_ZNSt12_Vector_baseIdSaIdEE17_M_create_storageEm # -- Begin function _ZNSt12_Vector_baseIdSaIdEE17_M_create_storageEm
	.p2align	4, 0x90
	.type	_ZNSt12_Vector_baseIdSaIdEE17_M_create_storageEm,@function
_ZNSt12_Vector_baseIdSaIdEE17_M_create_storageEm: # @_ZNSt12_Vector_baseIdSaIdEE17_M_create_storageEm
	.cfi_startproc
# %bb.0:
	pushq	%rbp
	.cfi_def_cfa_offset 16
	.cfi_offset %rbp, -16
	movq	%rsp, %rbp
	.cfi_def_cfa_register %rbp
	pushq	%rbx
	subq	$24, %rsp
	.cfi_offset %rbx, -24
	movq	%rdi, -24(%rbp)
	movq	%rsi, -16(%rbp)
	movq	-24(%rbp), %rbx
	movq	-16(%rbp), %rsi
	movq	%rbx, %rdi
	callq	_ZNSt12_Vector_baseIdSaIdEE11_M_allocateEm
	movq	%rax, (%rbx)
	movq	(%rbx), %rax
	movq	%rax, 8(%rbx)
	movq	(%rbx), %rax
	movq	-16(%rbp), %rcx
	shlq	$3, %rcx
	addq	%rcx, %rax
	movq	%rax, 16(%rbx)
	addq	$24, %rsp
	popq	%rbx
	popq	%rbp
	.cfi_def_cfa %rsp, 8
	retq
.Lfunc_end64:
	.size	_ZNSt12_Vector_baseIdSaIdEE17_M_create_storageEm, .Lfunc_end64-_ZNSt12_Vector_baseIdSaIdEE17_M_create_storageEm
	.cfi_endproc
                                        # -- End function
	.section	.text._ZNSt12_Vector_baseIdSaIdEE12_Vector_implD2Ev,"axG",@progbits,_ZNSt12_Vector_baseIdSaIdEE12_Vector_implD2Ev,comdat
	.weak	_ZNSt12_Vector_baseIdSaIdEE12_Vector_implD2Ev # -- Begin function _ZNSt12_Vector_baseIdSaIdEE12_Vector_implD2Ev
	.p2align	4, 0x90
	.type	_ZNSt12_Vector_baseIdSaIdEE12_Vector_implD2Ev,@function
_ZNSt12_Vector_baseIdSaIdEE12_Vector_implD2Ev: # @_ZNSt12_Vector_baseIdSaIdEE12_Vector_implD2Ev
	.cfi_startproc
# %bb.0:
	pushq	%rbp
	.cfi_def_cfa_offset 16
	.cfi_offset %rbp, -16
	movq	%rsp, %rbp
	.cfi_def_cfa_register %rbp
	subq	$16, %rsp
	movq	%rdi, -8(%rbp)
	movq	-8(%rbp), %rdi
	callq	_ZNSaIdED2Ev
	addq	$16, %rsp
	popq	%rbp
	.cfi_def_cfa %rsp, 8
	retq
.Lfunc_end65:
	.size	_ZNSt12_Vector_baseIdSaIdEE12_Vector_implD2Ev, .Lfunc_end65-_ZNSt12_Vector_baseIdSaIdEE12_Vector_implD2Ev
	.cfi_endproc
                                        # -- End function
	.section	.text._ZNSt12_Vector_baseIdSaIdEE11_M_allocateEm,"axG",@progbits,_ZNSt12_Vector_baseIdSaIdEE11_M_allocateEm,comdat
	.weak	_ZNSt12_Vector_baseIdSaIdEE11_M_allocateEm # -- Begin function _ZNSt12_Vector_baseIdSaIdEE11_M_allocateEm
	.p2align	4, 0x90
	.type	_ZNSt12_Vector_baseIdSaIdEE11_M_allocateEm,@function
_ZNSt12_Vector_baseIdSaIdEE11_M_allocateEm: # @_ZNSt12_Vector_baseIdSaIdEE11_M_allocateEm
	.cfi_startproc
# %bb.0:
	pushq	%rbp
	.cfi_def_cfa_offset 16
	.cfi_offset %rbp, -16
	movq	%rsp, %rbp
	.cfi_def_cfa_register %rbp
	subq	$16, %rsp
	movq	%rdi, -16(%rbp)
	movq	%rsi, -8(%rbp)
	movq	-16(%rbp), %rdi
	cmpq	$0, -8(%rbp)
	je	.LBB66_2
# %bb.1:
	movq	-8(%rbp), %rsi
	callq	_ZNSt16allocator_traitsISaIdEE8allocateERS0_m
	jmp	.LBB66_3
.LBB66_2:
	xorl	%eax, %eax
	jmp	.LBB66_3
.LBB66_3:
	addq	$16, %rsp
	popq	%rbp
	.cfi_def_cfa %rsp, 8
	retq
.Lfunc_end66:
	.size	_ZNSt12_Vector_baseIdSaIdEE11_M_allocateEm, .Lfunc_end66-_ZNSt12_Vector_baseIdSaIdEE11_M_allocateEm
	.cfi_endproc
                                        # -- End function
	.section	.text._ZNSt16allocator_traitsISaIdEE8allocateERS0_m,"axG",@progbits,_ZNSt16allocator_traitsISaIdEE8allocateERS0_m,comdat
	.weak	_ZNSt16allocator_traitsISaIdEE8allocateERS0_m # -- Begin function _ZNSt16allocator_traitsISaIdEE8allocateERS0_m
	.p2align	4, 0x90
	.type	_ZNSt16allocator_traitsISaIdEE8allocateERS0_m,@function
_ZNSt16allocator_traitsISaIdEE8allocateERS0_m: # @_ZNSt16allocator_traitsISaIdEE8allocateERS0_m
	.cfi_startproc
# %bb.0:
	pushq	%rbp
	.cfi_def_cfa_offset 16
	.cfi_offset %rbp, -16
	movq	%rsp, %rbp
	.cfi_def_cfa_register %rbp
	subq	$16, %rsp
	movq	%rdi, -16(%rbp)
	movq	%rsi, -8(%rbp)
	movq	-16(%rbp), %rdi
	movq	-8(%rbp), %rsi
	xorl	%edx, %edx
	callq	_ZN9__gnu_cxx13new_allocatorIdE8allocateEmPKv
	addq	$16, %rsp
	popq	%rbp
	.cfi_def_cfa %rsp, 8
	retq
.Lfunc_end67:
	.size	_ZNSt16allocator_traitsISaIdEE8allocateERS0_m, .Lfunc_end67-_ZNSt16allocator_traitsISaIdEE8allocateERS0_m
	.cfi_endproc
                                        # -- End function
	.section	.text._ZN9__gnu_cxx13new_allocatorIdE8allocateEmPKv,"axG",@progbits,_ZN9__gnu_cxx13new_allocatorIdE8allocateEmPKv,comdat
	.weak	_ZN9__gnu_cxx13new_allocatorIdE8allocateEmPKv # -- Begin function _ZN9__gnu_cxx13new_allocatorIdE8allocateEmPKv
	.p2align	4, 0x90
	.type	_ZN9__gnu_cxx13new_allocatorIdE8allocateEmPKv,@function
_ZN9__gnu_cxx13new_allocatorIdE8allocateEmPKv: # @_ZN9__gnu_cxx13new_allocatorIdE8allocateEmPKv
	.cfi_startproc
# %bb.0:
	pushq	%rbp
	.cfi_def_cfa_offset 16
	.cfi_offset %rbp, -16
	movq	%rsp, %rbp
	.cfi_def_cfa_register %rbp
	pushq	%rbx
	subq	$24, %rsp
	.cfi_offset %rbx, -24
	movq	%rdi, -24(%rbp)
	movq	%rsi, -16(%rbp)
	movq	%rdx, -32(%rbp)
	movq	-24(%rbp), %rdi
	movq	-16(%rbp), %rbx
	callq	_ZNK9__gnu_cxx13new_allocatorIdE11_M_max_sizeEv
	cmpq	%rax, %rbx
	jbe	.LBB68_4
# %bb.1:
	movabsq	$2305843009213693951, %rax      # imm = 0x1FFFFFFFFFFFFFFF
	cmpq	%rax, -16(%rbp)
	jbe	.LBB68_3
# %bb.2:
	callq	_ZSt28__throw_bad_array_new_lengthv@PLT
.LBB68_3:
	callq	_ZSt17__throw_bad_allocv@PLT
.LBB68_4:
	movq	-16(%rbp), %rdi
	shlq	$3, %rdi
	callq	_Znwm@PLT
	addq	$24, %rsp
	popq	%rbx
	popq	%rbp
	.cfi_def_cfa %rsp, 8
	retq
.Lfunc_end68:
	.size	_ZN9__gnu_cxx13new_allocatorIdE8allocateEmPKv, .Lfunc_end68-_ZN9__gnu_cxx13new_allocatorIdE8allocateEmPKv
	.cfi_endproc
                                        # -- End function
	.section	.text._ZN9__gnu_cxx13new_allocatorIdED2Ev,"axG",@progbits,_ZN9__gnu_cxx13new_allocatorIdED2Ev,comdat
	.weak	_ZN9__gnu_cxx13new_allocatorIdED2Ev # -- Begin function _ZN9__gnu_cxx13new_allocatorIdED2Ev
	.p2align	4, 0x90
	.type	_ZN9__gnu_cxx13new_allocatorIdED2Ev,@function
_ZN9__gnu_cxx13new_allocatorIdED2Ev:    # @_ZN9__gnu_cxx13new_allocatorIdED2Ev
	.cfi_startproc
# %bb.0:
	pushq	%rbp
	.cfi_def_cfa_offset 16
	.cfi_offset %rbp, -16
	movq	%rsp, %rbp
	.cfi_def_cfa_register %rbp
	movq	%rdi, -8(%rbp)
	popq	%rbp
	.cfi_def_cfa %rsp, 8
	retq
.Lfunc_end69:
	.size	_ZN9__gnu_cxx13new_allocatorIdED2Ev, .Lfunc_end69-_ZN9__gnu_cxx13new_allocatorIdED2Ev
	.cfi_endproc
                                        # -- End function
	.section	.text._ZSt27__uninitialized_default_n_aIPdmdET_S1_T0_RSaIT1_E,"axG",@progbits,_ZSt27__uninitialized_default_n_aIPdmdET_S1_T0_RSaIT1_E,comdat
	.weak	_ZSt27__uninitialized_default_n_aIPdmdET_S1_T0_RSaIT1_E # -- Begin function _ZSt27__uninitialized_default_n_aIPdmdET_S1_T0_RSaIT1_E
	.p2align	4, 0x90
	.type	_ZSt27__uninitialized_default_n_aIPdmdET_S1_T0_RSaIT1_E,@function
_ZSt27__uninitialized_default_n_aIPdmdET_S1_T0_RSaIT1_E: # @_ZSt27__uninitialized_default_n_aIPdmdET_S1_T0_RSaIT1_E
	.cfi_startproc
# %bb.0:
	pushq	%rbp
	.cfi_def_cfa_offset 16
	.cfi_offset %rbp, -16
	movq	%rsp, %rbp
	.cfi_def_cfa_register %rbp
	subq	$32, %rsp
	movq	%rdi, -16(%rbp)
	movq	%rsi, -8(%rbp)
	movq	%rdx, -24(%rbp)
	movq	-16(%rbp), %rdi
	movq	-8(%rbp), %rsi
	callq	_ZSt25__uninitialized_default_nIPdmET_S1_T0_
	addq	$32, %rsp
	popq	%rbp
	.cfi_def_cfa %rsp, 8
	retq
.Lfunc_end70:
	.size	_ZSt27__uninitialized_default_n_aIPdmdET_S1_T0_RSaIT1_E, .Lfunc_end70-_ZSt27__uninitialized_default_n_aIPdmdET_S1_T0_RSaIT1_E
	.cfi_endproc
                                        # -- End function
	.section	.text._ZNSt12_Vector_baseIdSaIdEE19_M_get_Tp_allocatorEv,"axG",@progbits,_ZNSt12_Vector_baseIdSaIdEE19_M_get_Tp_allocatorEv,comdat
	.weak	_ZNSt12_Vector_baseIdSaIdEE19_M_get_Tp_allocatorEv # -- Begin function _ZNSt12_Vector_baseIdSaIdEE19_M_get_Tp_allocatorEv
	.p2align	4, 0x90
	.type	_ZNSt12_Vector_baseIdSaIdEE19_M_get_Tp_allocatorEv,@function
_ZNSt12_Vector_baseIdSaIdEE19_M_get_Tp_allocatorEv: # @_ZNSt12_Vector_baseIdSaIdEE19_M_get_Tp_allocatorEv
	.cfi_startproc
# %bb.0:
	pushq	%rbp
	.cfi_def_cfa_offset 16
	.cfi_offset %rbp, -16
	movq	%rsp, %rbp
	.cfi_def_cfa_register %rbp
	movq	%rdi, -8(%rbp)
	movq	-8(%rbp), %rax
	popq	%rbp
	.cfi_def_cfa %rsp, 8
	retq
.Lfunc_end71:
	.size	_ZNSt12_Vector_baseIdSaIdEE19_M_get_Tp_allocatorEv, .Lfunc_end71-_ZNSt12_Vector_baseIdSaIdEE19_M_get_Tp_allocatorEv
	.cfi_endproc
                                        # -- End function
	.section	.text._ZSt25__uninitialized_default_nIPdmET_S1_T0_,"axG",@progbits,_ZSt25__uninitialized_default_nIPdmET_S1_T0_,comdat
	.weak	_ZSt25__uninitialized_default_nIPdmET_S1_T0_ # -- Begin function _ZSt25__uninitialized_default_nIPdmET_S1_T0_
	.p2align	4, 0x90
	.type	_ZSt25__uninitialized_default_nIPdmET_S1_T0_,@function
_ZSt25__uninitialized_default_nIPdmET_S1_T0_: # @_ZSt25__uninitialized_default_nIPdmET_S1_T0_
	.cfi_startproc
# %bb.0:
	pushq	%rbp
	.cfi_def_cfa_offset 16
	.cfi_offset %rbp, -16
	movq	%rsp, %rbp
	.cfi_def_cfa_register %rbp
	subq	$32, %rsp
	movq	%rdi, -24(%rbp)
	movq	%rsi, -16(%rbp)
	movb	$1, -1(%rbp)
	movq	-24(%rbp), %rdi
	movq	-16(%rbp), %rsi
	callq	_ZNSt27__uninitialized_default_n_1ILb1EE18__uninit_default_nIPdmEET_S3_T0_
	addq	$32, %rsp
	popq	%rbp
	.cfi_def_cfa %rsp, 8
	retq
.Lfunc_end72:
	.size	_ZSt25__uninitialized_default_nIPdmET_S1_T0_, .Lfunc_end72-_ZSt25__uninitialized_default_nIPdmET_S1_T0_
	.cfi_endproc
                                        # -- End function
	.section	.text._ZNSt27__uninitialized_default_n_1ILb1EE18__uninit_default_nIPdmEET_S3_T0_,"axG",@progbits,_ZNSt27__uninitialized_default_n_1ILb1EE18__uninit_default_nIPdmEET_S3_T0_,comdat
	.weak	_ZNSt27__uninitialized_default_n_1ILb1EE18__uninit_default_nIPdmEET_S3_T0_ # -- Begin function _ZNSt27__uninitialized_default_n_1ILb1EE18__uninit_default_nIPdmEET_S3_T0_
	.p2align	4, 0x90
	.type	_ZNSt27__uninitialized_default_n_1ILb1EE18__uninit_default_nIPdmEET_S3_T0_,@function
_ZNSt27__uninitialized_default_n_1ILb1EE18__uninit_default_nIPdmEET_S3_T0_: # @_ZNSt27__uninitialized_default_n_1ILb1EE18__uninit_default_nIPdmEET_S3_T0_
	.cfi_startproc
# %bb.0:
	pushq	%rbp
	.cfi_def_cfa_offset 16
	.cfi_offset %rbp, -16
	movq	%rsp, %rbp
	.cfi_def_cfa_register %rbp
	subq	$32, %rsp
	movq	%rdi, -8(%rbp)
	movq	%rsi, -24(%rbp)
	cmpq	$0, -24(%rbp)
	jbe	.LBB73_2
# %bb.1:
	movq	-8(%rbp), %rdi
	callq	_ZSt11__addressofIdEPT_RS0_
	movq	%rax, -16(%rbp)
	movq	-16(%rbp), %rdi
	callq	_ZSt10_ConstructIdJEEvPT_DpOT0_
	movq	-8(%rbp), %rax
	addq	$8, %rax
	movq	%rax, -8(%rbp)
	movq	-8(%rbp), %rdi
	movq	-24(%rbp), %rsi
	subq	$1, %rsi
	movq	-16(%rbp), %rdx
	callq	_ZSt6fill_nIPdmdET_S1_T0_RKT1_
	movq	%rax, -8(%rbp)
.LBB73_2:
	movq	-8(%rbp), %rax
	addq	$32, %rsp
	popq	%rbp
	.cfi_def_cfa %rsp, 8
	retq
.Lfunc_end73:
	.size	_ZNSt27__uninitialized_default_n_1ILb1EE18__uninit_default_nIPdmEET_S3_T0_, .Lfunc_end73-_ZNSt27__uninitialized_default_n_1ILb1EE18__uninit_default_nIPdmEET_S3_T0_
	.cfi_endproc
                                        # -- End function
	.section	.text._ZSt11__addressofIdEPT_RS0_,"axG",@progbits,_ZSt11__addressofIdEPT_RS0_,comdat
	.weak	_ZSt11__addressofIdEPT_RS0_     # -- Begin function _ZSt11__addressofIdEPT_RS0_
	.p2align	4, 0x90
	.type	_ZSt11__addressofIdEPT_RS0_,@function
_ZSt11__addressofIdEPT_RS0_:            # @_ZSt11__addressofIdEPT_RS0_
	.cfi_startproc
# %bb.0:
	pushq	%rbp
	.cfi_def_cfa_offset 16
	.cfi_offset %rbp, -16
	movq	%rsp, %rbp
	.cfi_def_cfa_register %rbp
	movq	%rdi, -8(%rbp)
	movq	-8(%rbp), %rax
	popq	%rbp
	.cfi_def_cfa %rsp, 8
	retq
.Lfunc_end74:
	.size	_ZSt11__addressofIdEPT_RS0_, .Lfunc_end74-_ZSt11__addressofIdEPT_RS0_
	.cfi_endproc
                                        # -- End function
	.section	.text._ZSt10_ConstructIdJEEvPT_DpOT0_,"axG",@progbits,_ZSt10_ConstructIdJEEvPT_DpOT0_,comdat
	.weak	_ZSt10_ConstructIdJEEvPT_DpOT0_ # -- Begin function _ZSt10_ConstructIdJEEvPT_DpOT0_
	.p2align	4, 0x90
	.type	_ZSt10_ConstructIdJEEvPT_DpOT0_,@function
_ZSt10_ConstructIdJEEvPT_DpOT0_:        # @_ZSt10_ConstructIdJEEvPT_DpOT0_
	.cfi_startproc
# %bb.0:
	pushq	%rbp
	.cfi_def_cfa_offset 16
	.cfi_offset %rbp, -16
	movq	%rsp, %rbp
	.cfi_def_cfa_register %rbp
	movq	%rdi, -8(%rbp)
	movq	-8(%rbp), %rax
	xorps	%xmm0, %xmm0
	movsd	%xmm0, (%rax)
	popq	%rbp
	.cfi_def_cfa %rsp, 8
	retq
.Lfunc_end75:
	.size	_ZSt10_ConstructIdJEEvPT_DpOT0_, .Lfunc_end75-_ZSt10_ConstructIdJEEvPT_DpOT0_
	.cfi_endproc
                                        # -- End function
	.section	.text._ZSt6fill_nIPdmdET_S1_T0_RKT1_,"axG",@progbits,_ZSt6fill_nIPdmdET_S1_T0_RKT1_,comdat
	.weak	_ZSt6fill_nIPdmdET_S1_T0_RKT1_  # -- Begin function _ZSt6fill_nIPdmdET_S1_T0_RKT1_
	.p2align	4, 0x90
	.type	_ZSt6fill_nIPdmdET_S1_T0_RKT1_,@function
_ZSt6fill_nIPdmdET_S1_T0_RKT1_:         # @_ZSt6fill_nIPdmdET_S1_T0_RKT1_
	.cfi_startproc
# %bb.0:
	pushq	%rbp
	.cfi_def_cfa_offset 16
	.cfi_offset %rbp, -16
	movq	%rsp, %rbp
	.cfi_def_cfa_register %rbp
	pushq	%r15
	pushq	%r14
	pushq	%rbx
	subq	$40, %rsp
	.cfi_offset %rbx, -40
	.cfi_offset %r14, -32
	.cfi_offset %r15, -24
	movq	%rdi, -32(%rbp)
	movq	%rsi, -48(%rbp)
	movq	%rdx, -40(%rbp)
	movq	-32(%rbp), %r14
	movq	-48(%rbp), %rdi
	callq	_ZSt17__size_to_integerm
	movq	%rax, %rbx
	movq	-40(%rbp), %r15
	leaq	-32(%rbp), %rdi
	callq	_ZSt19__iterator_categoryIPdENSt15iterator_traitsIT_E17iterator_categoryERKS2_
	movq	%r14, %rdi
	movq	%rbx, %rsi
	movq	%r15, %rdx
	callq	_ZSt10__fill_n_aIPdmdET_S1_T0_RKT1_St26random_access_iterator_tag
	addq	$40, %rsp
	popq	%rbx
	popq	%r14
	popq	%r15
	popq	%rbp
	.cfi_def_cfa %rsp, 8
	retq
.Lfunc_end76:
	.size	_ZSt6fill_nIPdmdET_S1_T0_RKT1_, .Lfunc_end76-_ZSt6fill_nIPdmdET_S1_T0_RKT1_
	.cfi_endproc
                                        # -- End function
	.section	.text._ZSt10__fill_n_aIPdmdET_S1_T0_RKT1_St26random_access_iterator_tag,"axG",@progbits,_ZSt10__fill_n_aIPdmdET_S1_T0_RKT1_St26random_access_iterator_tag,comdat
	.weak	_ZSt10__fill_n_aIPdmdET_S1_T0_RKT1_St26random_access_iterator_tag # -- Begin function _ZSt10__fill_n_aIPdmdET_S1_T0_RKT1_St26random_access_iterator_tag
	.p2align	4, 0x90
	.type	_ZSt10__fill_n_aIPdmdET_S1_T0_RKT1_St26random_access_iterator_tag,@function
_ZSt10__fill_n_aIPdmdET_S1_T0_RKT1_St26random_access_iterator_tag: # @_ZSt10__fill_n_aIPdmdET_S1_T0_RKT1_St26random_access_iterator_tag
	.cfi_startproc
# %bb.0:
	pushq	%rbp
	.cfi_def_cfa_offset 16
	.cfi_offset %rbp, -16
	movq	%rsp, %rbp
	.cfi_def_cfa_register %rbp
	subq	$48, %rsp
	movq	%rdi, -8(%rbp)
	movq	%rsi, -16(%rbp)
	movq	%rdx, -32(%rbp)
	cmpq	$0, -16(%rbp)
	ja	.LBB77_2
# %bb.1:
	movq	-8(%rbp), %rax
	movq	%rax, -24(%rbp)
	jmp	.LBB77_3
.LBB77_2:
	movq	-8(%rbp), %rdi
	movq	-8(%rbp), %rsi
	movq	-16(%rbp), %rax
	shlq	$3, %rax
	addq	%rax, %rsi
	movq	-32(%rbp), %rdx
	callq	_ZSt8__fill_aIPddEvT_S1_RKT0_
	movq	-8(%rbp), %rax
	movq	-16(%rbp), %rcx
	shlq	$3, %rcx
	addq	%rcx, %rax
	movq	%rax, -24(%rbp)
.LBB77_3:
	movq	-24(%rbp), %rax
	addq	$48, %rsp
	popq	%rbp
	.cfi_def_cfa %rsp, 8
	retq
.Lfunc_end77:
	.size	_ZSt10__fill_n_aIPdmdET_S1_T0_RKT1_St26random_access_iterator_tag, .Lfunc_end77-_ZSt10__fill_n_aIPdmdET_S1_T0_RKT1_St26random_access_iterator_tag
	.cfi_endproc
                                        # -- End function
	.section	.text._ZSt17__size_to_integerm,"axG",@progbits,_ZSt17__size_to_integerm,comdat
	.weak	_ZSt17__size_to_integerm        # -- Begin function _ZSt17__size_to_integerm
	.p2align	4, 0x90
	.type	_ZSt17__size_to_integerm,@function
_ZSt17__size_to_integerm:               # @_ZSt17__size_to_integerm
	.cfi_startproc
# %bb.0:
	pushq	%rbp
	.cfi_def_cfa_offset 16
	.cfi_offset %rbp, -16
	movq	%rsp, %rbp
	.cfi_def_cfa_register %rbp
	movq	%rdi, -8(%rbp)
	movq	-8(%rbp), %rax
	popq	%rbp
	.cfi_def_cfa %rsp, 8
	retq
.Lfunc_end78:
	.size	_ZSt17__size_to_integerm, .Lfunc_end78-_ZSt17__size_to_integerm
	.cfi_endproc
                                        # -- End function
	.section	.text._ZSt19__iterator_categoryIPdENSt15iterator_traitsIT_E17iterator_categoryERKS2_,"axG",@progbits,_ZSt19__iterator_categoryIPdENSt15iterator_traitsIT_E17iterator_categoryERKS2_,comdat
	.weak	_ZSt19__iterator_categoryIPdENSt15iterator_traitsIT_E17iterator_categoryERKS2_ # -- Begin function _ZSt19__iterator_categoryIPdENSt15iterator_traitsIT_E17iterator_categoryERKS2_
	.p2align	4, 0x90
	.type	_ZSt19__iterator_categoryIPdENSt15iterator_traitsIT_E17iterator_categoryERKS2_,@function
_ZSt19__iterator_categoryIPdENSt15iterator_traitsIT_E17iterator_categoryERKS2_: # @_ZSt19__iterator_categoryIPdENSt15iterator_traitsIT_E17iterator_categoryERKS2_
	.cfi_startproc
# %bb.0:
	pushq	%rbp
	.cfi_def_cfa_offset 16
	.cfi_offset %rbp, -16
	movq	%rsp, %rbp
	.cfi_def_cfa_register %rbp
	movq	%rdi, -8(%rbp)
	popq	%rbp
	.cfi_def_cfa %rsp, 8
	retq
.Lfunc_end79:
	.size	_ZSt19__iterator_categoryIPdENSt15iterator_traitsIT_E17iterator_categoryERKS2_, .Lfunc_end79-_ZSt19__iterator_categoryIPdENSt15iterator_traitsIT_E17iterator_categoryERKS2_
	.cfi_endproc
                                        # -- End function
	.section	.text._ZSt8__fill_aIPddEvT_S1_RKT0_,"axG",@progbits,_ZSt8__fill_aIPddEvT_S1_RKT0_,comdat
	.weak	_ZSt8__fill_aIPddEvT_S1_RKT0_   # -- Begin function _ZSt8__fill_aIPddEvT_S1_RKT0_
	.p2align	4, 0x90
	.type	_ZSt8__fill_aIPddEvT_S1_RKT0_,@function
_ZSt8__fill_aIPddEvT_S1_RKT0_:          # @_ZSt8__fill_aIPddEvT_S1_RKT0_
	.cfi_startproc
# %bb.0:
	pushq	%rbp
	.cfi_def_cfa_offset 16
	.cfi_offset %rbp, -16
	movq	%rsp, %rbp
	.cfi_def_cfa_register %rbp
	subq	$32, %rsp
	movq	%rdi, -24(%rbp)
	movq	%rsi, -16(%rbp)
	movq	%rdx, -8(%rbp)
	movq	-24(%rbp), %rdi
	movq	-16(%rbp), %rsi
	movq	-8(%rbp), %rdx
	callq	_ZSt9__fill_a1IPddEN9__gnu_cxx11__enable_ifIXsr11__is_scalarIT0_EE7__valueEvE6__typeET_S6_RKS3_
	addq	$32, %rsp
	popq	%rbp
	.cfi_def_cfa %rsp, 8
	retq
.Lfunc_end80:
	.size	_ZSt8__fill_aIPddEvT_S1_RKT0_, .Lfunc_end80-_ZSt8__fill_aIPddEvT_S1_RKT0_
	.cfi_endproc
                                        # -- End function
	.section	.text._ZSt9__fill_a1IPddEN9__gnu_cxx11__enable_ifIXsr11__is_scalarIT0_EE7__valueEvE6__typeET_S6_RKS3_,"axG",@progbits,_ZSt9__fill_a1IPddEN9__gnu_cxx11__enable_ifIXsr11__is_scalarIT0_EE7__valueEvE6__typeET_S6_RKS3_,comdat
	.weak	_ZSt9__fill_a1IPddEN9__gnu_cxx11__enable_ifIXsr11__is_scalarIT0_EE7__valueEvE6__typeET_S6_RKS3_ # -- Begin function _ZSt9__fill_a1IPddEN9__gnu_cxx11__enable_ifIXsr11__is_scalarIT0_EE7__valueEvE6__typeET_S6_RKS3_
	.p2align	4, 0x90
	.type	_ZSt9__fill_a1IPddEN9__gnu_cxx11__enable_ifIXsr11__is_scalarIT0_EE7__valueEvE6__typeET_S6_RKS3_,@function
_ZSt9__fill_a1IPddEN9__gnu_cxx11__enable_ifIXsr11__is_scalarIT0_EE7__valueEvE6__typeET_S6_RKS3_: # @_ZSt9__fill_a1IPddEN9__gnu_cxx11__enable_ifIXsr11__is_scalarIT0_EE7__valueEvE6__typeET_S6_RKS3_
	.cfi_startproc
# %bb.0:
	pushq	%rbp
	.cfi_def_cfa_offset 16
	.cfi_offset %rbp, -16
	movq	%rsp, %rbp
	.cfi_def_cfa_register %rbp
	movq	%rdi, -8(%rbp)
	movq	%rsi, -32(%rbp)
	movq	%rdx, -24(%rbp)
	movq	-24(%rbp), %rax
	movsd	(%rax), %xmm0                   # xmm0 = mem[0],zero
	movsd	%xmm0, -16(%rbp)
.LBB81_1:                               # =>This Inner Loop Header: Depth=1
	movq	-8(%rbp), %rax
	cmpq	-32(%rbp), %rax
	je	.LBB81_4
# %bb.2:                                #   in Loop: Header=BB81_1 Depth=1
	movsd	-16(%rbp), %xmm0                # xmm0 = mem[0],zero
	movq	-8(%rbp), %rax
	movsd	%xmm0, (%rax)
# %bb.3:                                #   in Loop: Header=BB81_1 Depth=1
	movq	-8(%rbp), %rax
	addq	$8, %rax
	movq	%rax, -8(%rbp)
	jmp	.LBB81_1
.LBB81_4:
	popq	%rbp
	.cfi_def_cfa %rsp, 8
	retq
.Lfunc_end81:
	.size	_ZSt9__fill_a1IPddEN9__gnu_cxx11__enable_ifIXsr11__is_scalarIT0_EE7__valueEvE6__typeET_S6_RKS3_, .Lfunc_end81-_ZSt9__fill_a1IPddEN9__gnu_cxx11__enable_ifIXsr11__is_scalarIT0_EE7__valueEvE6__typeET_S6_RKS3_
	.cfi_endproc
                                        # -- End function
	.section	.text._ZNSt12_Vector_baseIdSaIdEE13_M_deallocateEPdm,"axG",@progbits,_ZNSt12_Vector_baseIdSaIdEE13_M_deallocateEPdm,comdat
	.weak	_ZNSt12_Vector_baseIdSaIdEE13_M_deallocateEPdm # -- Begin function _ZNSt12_Vector_baseIdSaIdEE13_M_deallocateEPdm
	.p2align	4, 0x90
	.type	_ZNSt12_Vector_baseIdSaIdEE13_M_deallocateEPdm,@function
_ZNSt12_Vector_baseIdSaIdEE13_M_deallocateEPdm: # @_ZNSt12_Vector_baseIdSaIdEE13_M_deallocateEPdm
	.cfi_startproc
# %bb.0:
	pushq	%rbp
	.cfi_def_cfa_offset 16
	.cfi_offset %rbp, -16
	movq	%rsp, %rbp
	.cfi_def_cfa_register %rbp
	subq	$32, %rsp
	movq	%rdi, -24(%rbp)
	movq	%rsi, -8(%rbp)
	movq	%rdx, -16(%rbp)
	movq	-24(%rbp), %rdi
	cmpq	$0, -8(%rbp)
	je	.LBB82_2
# %bb.1:
	movq	-8(%rbp), %rsi
	movq	-16(%rbp), %rdx
	callq	_ZNSt16allocator_traitsISaIdEE10deallocateERS0_Pdm
.LBB82_2:
	addq	$32, %rsp
	popq	%rbp
	.cfi_def_cfa %rsp, 8
	retq
.Lfunc_end82:
	.size	_ZNSt12_Vector_baseIdSaIdEE13_M_deallocateEPdm, .Lfunc_end82-_ZNSt12_Vector_baseIdSaIdEE13_M_deallocateEPdm
	.cfi_endproc
                                        # -- End function
	.section	.text._ZNSt16allocator_traitsISaIdEE10deallocateERS0_Pdm,"axG",@progbits,_ZNSt16allocator_traitsISaIdEE10deallocateERS0_Pdm,comdat
	.weak	_ZNSt16allocator_traitsISaIdEE10deallocateERS0_Pdm # -- Begin function _ZNSt16allocator_traitsISaIdEE10deallocateERS0_Pdm
	.p2align	4, 0x90
	.type	_ZNSt16allocator_traitsISaIdEE10deallocateERS0_Pdm,@function
_ZNSt16allocator_traitsISaIdEE10deallocateERS0_Pdm: # @_ZNSt16allocator_traitsISaIdEE10deallocateERS0_Pdm
	.cfi_startproc
# %bb.0:
	pushq	%rbp
	.cfi_def_cfa_offset 16
	.cfi_offset %rbp, -16
	movq	%rsp, %rbp
	.cfi_def_cfa_register %rbp
	subq	$32, %rsp
	movq	%rdi, -24(%rbp)
	movq	%rsi, -16(%rbp)
	movq	%rdx, -8(%rbp)
	movq	-24(%rbp), %rdi
	movq	-16(%rbp), %rsi
	movq	-8(%rbp), %rdx
	callq	_ZN9__gnu_cxx13new_allocatorIdE10deallocateEPdm
	addq	$32, %rsp
	popq	%rbp
	.cfi_def_cfa %rsp, 8
	retq
.Lfunc_end83:
	.size	_ZNSt16allocator_traitsISaIdEE10deallocateERS0_Pdm, .Lfunc_end83-_ZNSt16allocator_traitsISaIdEE10deallocateERS0_Pdm
	.cfi_endproc
                                        # -- End function
	.section	.text._ZN9__gnu_cxx13new_allocatorIdE10deallocateEPdm,"axG",@progbits,_ZN9__gnu_cxx13new_allocatorIdE10deallocateEPdm,comdat
	.weak	_ZN9__gnu_cxx13new_allocatorIdE10deallocateEPdm # -- Begin function _ZN9__gnu_cxx13new_allocatorIdE10deallocateEPdm
	.p2align	4, 0x90
	.type	_ZN9__gnu_cxx13new_allocatorIdE10deallocateEPdm,@function
_ZN9__gnu_cxx13new_allocatorIdE10deallocateEPdm: # @_ZN9__gnu_cxx13new_allocatorIdE10deallocateEPdm
	.cfi_startproc
# %bb.0:
	pushq	%rbp
	.cfi_def_cfa_offset 16
	.cfi_offset %rbp, -16
	movq	%rsp, %rbp
	.cfi_def_cfa_register %rbp
	subq	$32, %rsp
	movq	%rdi, -24(%rbp)
	movq	%rsi, -8(%rbp)
	movq	%rdx, -16(%rbp)
	movq	-8(%rbp), %rdi
	callq	_ZdlPv@PLT
	addq	$32, %rsp
	popq	%rbp
	.cfi_def_cfa %rsp, 8
	retq
.Lfunc_end84:
	.size	_ZN9__gnu_cxx13new_allocatorIdE10deallocateEPdm, .Lfunc_end84-_ZN9__gnu_cxx13new_allocatorIdE10deallocateEPdm
	.cfi_endproc
                                        # -- End function
	.section	.text._ZNSt6vectorIS_IdSaIdEESaIS1_EE17_S_check_init_lenEmRKS2_,"axG",@progbits,_ZNSt6vectorIS_IdSaIdEESaIS1_EE17_S_check_init_lenEmRKS2_,comdat
	.weak	_ZNSt6vectorIS_IdSaIdEESaIS1_EE17_S_check_init_lenEmRKS2_ # -- Begin function _ZNSt6vectorIS_IdSaIdEESaIS1_EE17_S_check_init_lenEmRKS2_
	.p2align	4, 0x90
	.type	_ZNSt6vectorIS_IdSaIdEESaIS1_EE17_S_check_init_lenEmRKS2_,@function
_ZNSt6vectorIS_IdSaIdEESaIS1_EE17_S_check_init_lenEmRKS2_: # @_ZNSt6vectorIS_IdSaIdEESaIS1_EE17_S_check_init_lenEmRKS2_
	.cfi_startproc
# %bb.0:
	pushq	%rbp
	.cfi_def_cfa_offset 16
	.cfi_offset %rbp, -16
	movq	%rsp, %rbp
	.cfi_def_cfa_register %rbp
	pushq	%r14
	pushq	%rbx
	subq	$32, %rsp
	.cfi_offset %rbx, -32
	.cfi_offset %r14, -24
	movq	%rdi, -32(%rbp)
	movq	%rsi, -40(%rbp)
	movq	-32(%rbp), %r14
	movq	-40(%rbp), %rsi
	leaq	-24(%rbp), %rdi
	callq	_ZNSaISt6vectorIdSaIdEEEC2ERKS2_
	leaq	-24(%rbp), %rdi
	callq	_ZNSt6vectorIS_IdSaIdEESaIS1_EE11_S_max_sizeERKS2_
	movq	%rax, %rbx
	leaq	-24(%rbp), %rdi
	callq	_ZNSaISt6vectorIdSaIdEEED2Ev
	cmpq	%rbx, %r14
	jbe	.LBB85_2
# %bb.1:
	movabsq	$.L.str.1, %rdi
	callq	_ZSt20__throw_length_errorPKc@PLT
.LBB85_2:
	movq	-32(%rbp), %rax
	addq	$32, %rsp
	popq	%rbx
	popq	%r14
	popq	%rbp
	.cfi_def_cfa %rsp, 8
	retq
.Lfunc_end85:
	.size	_ZNSt6vectorIS_IdSaIdEESaIS1_EE17_S_check_init_lenEmRKS2_, .Lfunc_end85-_ZNSt6vectorIS_IdSaIdEESaIS1_EE17_S_check_init_lenEmRKS2_
	.cfi_endproc
                                        # -- End function
	.section	.text._ZNSt12_Vector_baseISt6vectorIdSaIdEESaIS2_EEC2EmRKS3_,"axG",@progbits,_ZNSt12_Vector_baseISt6vectorIdSaIdEESaIS2_EEC2EmRKS3_,comdat
	.weak	_ZNSt12_Vector_baseISt6vectorIdSaIdEESaIS2_EEC2EmRKS3_ # -- Begin function _ZNSt12_Vector_baseISt6vectorIdSaIdEESaIS2_EEC2EmRKS3_
	.p2align	4, 0x90
	.type	_ZNSt12_Vector_baseISt6vectorIdSaIdEESaIS2_EEC2EmRKS3_,@function
_ZNSt12_Vector_baseISt6vectorIdSaIdEESaIS2_EEC2EmRKS3_: # @_ZNSt12_Vector_baseISt6vectorIdSaIdEESaIS2_EEC2EmRKS3_
.Lfunc_begin19:
	.cfi_startproc
	.cfi_personality 3, __gxx_personality_v0
	.cfi_lsda 3, .Lexception19
# %bb.0:
	pushq	%rbp
	.cfi_def_cfa_offset 16
	.cfi_offset %rbp, -16
	movq	%rsp, %rbp
	.cfi_def_cfa_register %rbp
	pushq	%rbx
	subq	$40, %rsp
	.cfi_offset %rbx, -24
	movq	%rdi, -40(%rbp)
	movq	%rsi, -32(%rbp)
	movq	%rdx, -24(%rbp)
	movq	-40(%rbp), %rbx
	movq	-24(%rbp), %rsi
	movq	%rbx, %rdi
	callq	_ZNSt12_Vector_baseISt6vectorIdSaIdEESaIS2_EE12_Vector_implC2ERKS3_
	movq	-32(%rbp), %rsi
.Ltmp135:
	movq	%rbx, %rdi
	callq	_ZNSt12_Vector_baseISt6vectorIdSaIdEESaIS2_EE17_M_create_storageEm
.Ltmp136:
	jmp	.LBB86_1
.LBB86_1:
	addq	$40, %rsp
	popq	%rbx
	popq	%rbp
	.cfi_def_cfa %rsp, 8
	retq
.LBB86_2:
	.cfi_def_cfa %rbp, 16
.Ltmp137:
	movq	%rax, -16(%rbp)
	movl	%edx, -44(%rbp)
	movq	%rbx, %rdi
	callq	_ZNSt12_Vector_baseISt6vectorIdSaIdEESaIS2_EE12_Vector_implD2Ev
# %bb.3:
	movq	-16(%rbp), %rdi
	callq	_Unwind_Resume@PLT
.Lfunc_end86:
	.size	_ZNSt12_Vector_baseISt6vectorIdSaIdEESaIS2_EEC2EmRKS3_, .Lfunc_end86-_ZNSt12_Vector_baseISt6vectorIdSaIdEESaIS2_EEC2EmRKS3_
	.cfi_endproc
	.section	.gcc_except_table._ZNSt12_Vector_baseISt6vectorIdSaIdEESaIS2_EEC2EmRKS3_,"aG",@progbits,_ZNSt12_Vector_baseISt6vectorIdSaIdEESaIS2_EEC2EmRKS3_,comdat
	.p2align	2
GCC_except_table86:
.Lexception19:
	.byte	255                             # @LPStart Encoding = omit
	.byte	255                             # @TType Encoding = omit
	.byte	1                               # Call site Encoding = uleb128
	.uleb128 .Lcst_end19-.Lcst_begin19
.Lcst_begin19:
	.uleb128 .Ltmp135-.Lfunc_begin19        # >> Call Site 1 <<
	.uleb128 .Ltmp136-.Ltmp135              #   Call between .Ltmp135 and .Ltmp136
	.uleb128 .Ltmp137-.Lfunc_begin19        #     jumps to .Ltmp137
	.byte	0                               #   On action: cleanup
	.uleb128 .Ltmp136-.Lfunc_begin19        # >> Call Site 2 <<
	.uleb128 .Lfunc_end86-.Ltmp136          #   Call between .Ltmp136 and .Lfunc_end86
	.byte	0                               #     has no landing pad
	.byte	0                               #   On action: cleanup
.Lcst_end19:
	.p2align	2
                                        # -- End function
	.section	.text._ZNSt6vectorIS_IdSaIdEESaIS1_EE18_M_fill_initializeEmRKS1_,"axG",@progbits,_ZNSt6vectorIS_IdSaIdEESaIS1_EE18_M_fill_initializeEmRKS1_,comdat
	.weak	_ZNSt6vectorIS_IdSaIdEESaIS1_EE18_M_fill_initializeEmRKS1_ # -- Begin function _ZNSt6vectorIS_IdSaIdEESaIS1_EE18_M_fill_initializeEmRKS1_
	.p2align	4, 0x90
	.type	_ZNSt6vectorIS_IdSaIdEESaIS1_EE18_M_fill_initializeEmRKS1_,@function
_ZNSt6vectorIS_IdSaIdEESaIS1_EE18_M_fill_initializeEmRKS1_: # @_ZNSt6vectorIS_IdSaIdEESaIS1_EE18_M_fill_initializeEmRKS1_
	.cfi_startproc
# %bb.0:
	pushq	%rbp
	.cfi_def_cfa_offset 16
	.cfi_offset %rbp, -16
	movq	%rsp, %rbp
	.cfi_def_cfa_register %rbp
	pushq	%r15
	pushq	%r14
	pushq	%r12
	pushq	%rbx
	subq	$32, %rsp
	.cfi_offset %rbx, -48
	.cfi_offset %r12, -40
	.cfi_offset %r14, -32
	.cfi_offset %r15, -24
	movq	%rdi, -56(%rbp)
	movq	%rsi, -48(%rbp)
	movq	%rdx, -40(%rbp)
	movq	-56(%rbp), %rbx
	movq	(%rbx), %r14
	movq	-48(%rbp), %r15
	movq	-40(%rbp), %r12
	movq	%rbx, %rdi
	callq	_ZNSt12_Vector_baseISt6vectorIdSaIdEESaIS2_EE19_M_get_Tp_allocatorEv
	movq	%r14, %rdi
	movq	%r15, %rsi
	movq	%r12, %rdx
	movq	%rax, %rcx
	callq	_ZSt24__uninitialized_fill_n_aIPSt6vectorIdSaIdEEmS2_S2_ET_S4_T0_RKT1_RSaIT2_E
	movq	%rax, 8(%rbx)
	addq	$32, %rsp
	popq	%rbx
	popq	%r12
	popq	%r14
	popq	%r15
	popq	%rbp
	.cfi_def_cfa %rsp, 8
	retq
.Lfunc_end87:
	.size	_ZNSt6vectorIS_IdSaIdEESaIS1_EE18_M_fill_initializeEmRKS1_, .Lfunc_end87-_ZNSt6vectorIS_IdSaIdEESaIS1_EE18_M_fill_initializeEmRKS1_
	.cfi_endproc
                                        # -- End function
	.section	.text._ZNSt12_Vector_baseISt6vectorIdSaIdEESaIS2_EED2Ev,"axG",@progbits,_ZNSt12_Vector_baseISt6vectorIdSaIdEESaIS2_EED2Ev,comdat
	.weak	_ZNSt12_Vector_baseISt6vectorIdSaIdEESaIS2_EED2Ev # -- Begin function _ZNSt12_Vector_baseISt6vectorIdSaIdEESaIS2_EED2Ev
	.p2align	4, 0x90
	.type	_ZNSt12_Vector_baseISt6vectorIdSaIdEESaIS2_EED2Ev,@function
_ZNSt12_Vector_baseISt6vectorIdSaIdEESaIS2_EED2Ev: # @_ZNSt12_Vector_baseISt6vectorIdSaIdEESaIS2_EED2Ev
.Lfunc_begin20:
	.cfi_startproc
	.cfi_personality 3, __gxx_personality_v0
	.cfi_lsda 3, .Lexception20
# %bb.0:
	pushq	%rbp
	.cfi_def_cfa_offset 16
	.cfi_offset %rbp, -16
	movq	%rsp, %rbp
	.cfi_def_cfa_register %rbp
	pushq	%rbx
	subq	$24, %rsp
	.cfi_offset %rbx, -24
	movq	%rdi, -24(%rbp)
	movq	-24(%rbp), %rbx
	movq	(%rbx), %rsi
	movq	16(%rbx), %rdx
	subq	%rsi, %rdx
	sarq	$3, %rdx
	movabsq	$-6148914691236517205, %rax     # imm = 0xAAAAAAAAAAAAAAAB
	imulq	%rax, %rdx
.Ltmp138:
	movq	%rbx, %rdi
	callq	_ZNSt12_Vector_baseISt6vectorIdSaIdEESaIS2_EE13_M_deallocateEPS2_m
.Ltmp139:
	jmp	.LBB88_1
.LBB88_1:
	movq	%rbx, %rdi
	callq	_ZNSt12_Vector_baseISt6vectorIdSaIdEESaIS2_EE12_Vector_implD2Ev
	addq	$24, %rsp
	popq	%rbx
	popq	%rbp
	.cfi_def_cfa %rsp, 8
	retq
.LBB88_2:
	.cfi_def_cfa %rbp, 16
.Ltmp140:
	movq	%rax, -16(%rbp)
	movl	%edx, -28(%rbp)
	movq	%rbx, %rdi
	callq	_ZNSt12_Vector_baseISt6vectorIdSaIdEESaIS2_EE12_Vector_implD2Ev
# %bb.3:
	movq	-16(%rbp), %rdi
	callq	__clang_call_terminate
.Lfunc_end88:
	.size	_ZNSt12_Vector_baseISt6vectorIdSaIdEESaIS2_EED2Ev, .Lfunc_end88-_ZNSt12_Vector_baseISt6vectorIdSaIdEESaIS2_EED2Ev
	.cfi_endproc
	.section	.gcc_except_table._ZNSt12_Vector_baseISt6vectorIdSaIdEESaIS2_EED2Ev,"aG",@progbits,_ZNSt12_Vector_baseISt6vectorIdSaIdEESaIS2_EED2Ev,comdat
	.p2align	2
GCC_except_table88:
.Lexception20:
	.byte	255                             # @LPStart Encoding = omit
	.byte	3                               # @TType Encoding = udata4
	.uleb128 .Lttbase5-.Lttbaseref5
.Lttbaseref5:
	.byte	1                               # Call site Encoding = uleb128
	.uleb128 .Lcst_end20-.Lcst_begin20
.Lcst_begin20:
	.uleb128 .Ltmp138-.Lfunc_begin20        # >> Call Site 1 <<
	.uleb128 .Ltmp139-.Ltmp138              #   Call between .Ltmp138 and .Ltmp139
	.uleb128 .Ltmp140-.Lfunc_begin20        #     jumps to .Ltmp140
	.byte	1                               #   On action: 1
.Lcst_end20:
	.byte	1                               # >> Action Record 1 <<
                                        #   Catch TypeInfo 1
	.byte	0                               #   No further actions
	.p2align	2
                                        # >> Catch TypeInfos <<
	.long	0                               # TypeInfo 1
.Lttbase5:
	.p2align	2
                                        # -- End function
	.section	.text._ZNSt6vectorIS_IdSaIdEESaIS1_EE11_S_max_sizeERKS2_,"axG",@progbits,_ZNSt6vectorIS_IdSaIdEESaIS1_EE11_S_max_sizeERKS2_,comdat
	.weak	_ZNSt6vectorIS_IdSaIdEESaIS1_EE11_S_max_sizeERKS2_ # -- Begin function _ZNSt6vectorIS_IdSaIdEESaIS1_EE11_S_max_sizeERKS2_
	.p2align	4, 0x90
	.type	_ZNSt6vectorIS_IdSaIdEESaIS1_EE11_S_max_sizeERKS2_,@function
_ZNSt6vectorIS_IdSaIdEESaIS1_EE11_S_max_sizeERKS2_: # @_ZNSt6vectorIS_IdSaIdEESaIS1_EE11_S_max_sizeERKS2_
	.cfi_startproc
# %bb.0:
	pushq	%rbp
	.cfi_def_cfa_offset 16
	.cfi_offset %rbp, -16
	movq	%rsp, %rbp
	.cfi_def_cfa_register %rbp
	subq	$32, %rsp
	movq	%rdi, -24(%rbp)
	movabsq	$384307168202282325, %rax       # imm = 0x555555555555555
	movq	%rax, -16(%rbp)
	movq	-24(%rbp), %rdi
	callq	_ZNSt16allocator_traitsISaISt6vectorIdSaIdEEEE8max_sizeERKS3_
	movq	%rax, -8(%rbp)
	leaq	-16(%rbp), %rdi
	leaq	-8(%rbp), %rsi
	callq	_ZSt3minImERKT_S2_S2_
	movq	(%rax), %rax
	addq	$32, %rsp
	popq	%rbp
	.cfi_def_cfa %rsp, 8
	retq
.Lfunc_end89:
	.size	_ZNSt6vectorIS_IdSaIdEESaIS1_EE11_S_max_sizeERKS2_, .Lfunc_end89-_ZNSt6vectorIS_IdSaIdEESaIS1_EE11_S_max_sizeERKS2_
	.cfi_endproc
                                        # -- End function
	.section	.text._ZNSaISt6vectorIdSaIdEEEC2ERKS2_,"axG",@progbits,_ZNSaISt6vectorIdSaIdEEEC2ERKS2_,comdat
	.weak	_ZNSaISt6vectorIdSaIdEEEC2ERKS2_ # -- Begin function _ZNSaISt6vectorIdSaIdEEEC2ERKS2_
	.p2align	4, 0x90
	.type	_ZNSaISt6vectorIdSaIdEEEC2ERKS2_,@function
_ZNSaISt6vectorIdSaIdEEEC2ERKS2_:       # @_ZNSaISt6vectorIdSaIdEEEC2ERKS2_
	.cfi_startproc
# %bb.0:
	pushq	%rbp
	.cfi_def_cfa_offset 16
	.cfi_offset %rbp, -16
	movq	%rsp, %rbp
	.cfi_def_cfa_register %rbp
	subq	$16, %rsp
	movq	%rdi, -16(%rbp)
	movq	%rsi, -8(%rbp)
	movq	-16(%rbp), %rdi
	movq	-8(%rbp), %rsi
	callq	_ZN9__gnu_cxx13new_allocatorISt6vectorIdSaIdEEEC2ERKS4_
	addq	$16, %rsp
	popq	%rbp
	.cfi_def_cfa %rsp, 8
	retq
.Lfunc_end90:
	.size	_ZNSaISt6vectorIdSaIdEEEC2ERKS2_, .Lfunc_end90-_ZNSaISt6vectorIdSaIdEEEC2ERKS2_
	.cfi_endproc
                                        # -- End function
	.section	.text._ZNSt16allocator_traitsISaISt6vectorIdSaIdEEEE8max_sizeERKS3_,"axG",@progbits,_ZNSt16allocator_traitsISaISt6vectorIdSaIdEEEE8max_sizeERKS3_,comdat
	.weak	_ZNSt16allocator_traitsISaISt6vectorIdSaIdEEEE8max_sizeERKS3_ # -- Begin function _ZNSt16allocator_traitsISaISt6vectorIdSaIdEEEE8max_sizeERKS3_
	.p2align	4, 0x90
	.type	_ZNSt16allocator_traitsISaISt6vectorIdSaIdEEEE8max_sizeERKS3_,@function
_ZNSt16allocator_traitsISaISt6vectorIdSaIdEEEE8max_sizeERKS3_: # @_ZNSt16allocator_traitsISaISt6vectorIdSaIdEEEE8max_sizeERKS3_
	.cfi_startproc
# %bb.0:
	pushq	%rbp
	.cfi_def_cfa_offset 16
	.cfi_offset %rbp, -16
	movq	%rsp, %rbp
	.cfi_def_cfa_register %rbp
	subq	$16, %rsp
	movq	%rdi, -8(%rbp)
	movq	-8(%rbp), %rdi
	callq	_ZNK9__gnu_cxx13new_allocatorISt6vectorIdSaIdEEE8max_sizeEv
	addq	$16, %rsp
	popq	%rbp
	.cfi_def_cfa %rsp, 8
	retq
.Lfunc_end91:
	.size	_ZNSt16allocator_traitsISaISt6vectorIdSaIdEEEE8max_sizeERKS3_, .Lfunc_end91-_ZNSt16allocator_traitsISaISt6vectorIdSaIdEEEE8max_sizeERKS3_
	.cfi_endproc
                                        # -- End function
	.section	.text._ZNK9__gnu_cxx13new_allocatorISt6vectorIdSaIdEEE8max_sizeEv,"axG",@progbits,_ZNK9__gnu_cxx13new_allocatorISt6vectorIdSaIdEEE8max_sizeEv,comdat
	.weak	_ZNK9__gnu_cxx13new_allocatorISt6vectorIdSaIdEEE8max_sizeEv # -- Begin function _ZNK9__gnu_cxx13new_allocatorISt6vectorIdSaIdEEE8max_sizeEv
	.p2align	4, 0x90
	.type	_ZNK9__gnu_cxx13new_allocatorISt6vectorIdSaIdEEE8max_sizeEv,@function
_ZNK9__gnu_cxx13new_allocatorISt6vectorIdSaIdEEE8max_sizeEv: # @_ZNK9__gnu_cxx13new_allocatorISt6vectorIdSaIdEEE8max_sizeEv
	.cfi_startproc
# %bb.0:
	pushq	%rbp
	.cfi_def_cfa_offset 16
	.cfi_offset %rbp, -16
	movq	%rsp, %rbp
	.cfi_def_cfa_register %rbp
	subq	$16, %rsp
	movq	%rdi, -8(%rbp)
	movq	-8(%rbp), %rdi
	callq	_ZNK9__gnu_cxx13new_allocatorISt6vectorIdSaIdEEE11_M_max_sizeEv
	addq	$16, %rsp
	popq	%rbp
	.cfi_def_cfa %rsp, 8
	retq
.Lfunc_end92:
	.size	_ZNK9__gnu_cxx13new_allocatorISt6vectorIdSaIdEEE8max_sizeEv, .Lfunc_end92-_ZNK9__gnu_cxx13new_allocatorISt6vectorIdSaIdEEE8max_sizeEv
	.cfi_endproc
                                        # -- End function
	.section	.text._ZNK9__gnu_cxx13new_allocatorISt6vectorIdSaIdEEE11_M_max_sizeEv,"axG",@progbits,_ZNK9__gnu_cxx13new_allocatorISt6vectorIdSaIdEEE11_M_max_sizeEv,comdat
	.weak	_ZNK9__gnu_cxx13new_allocatorISt6vectorIdSaIdEEE11_M_max_sizeEv # -- Begin function _ZNK9__gnu_cxx13new_allocatorISt6vectorIdSaIdEEE11_M_max_sizeEv
	.p2align	4, 0x90
	.type	_ZNK9__gnu_cxx13new_allocatorISt6vectorIdSaIdEEE11_M_max_sizeEv,@function
_ZNK9__gnu_cxx13new_allocatorISt6vectorIdSaIdEEE11_M_max_sizeEv: # @_ZNK9__gnu_cxx13new_allocatorISt6vectorIdSaIdEEE11_M_max_sizeEv
	.cfi_startproc
# %bb.0:
	pushq	%rbp
	.cfi_def_cfa_offset 16
	.cfi_offset %rbp, -16
	movq	%rsp, %rbp
	.cfi_def_cfa_register %rbp
	movq	%rdi, -8(%rbp)
	movabsq	$384307168202282325, %rax       # imm = 0x555555555555555
	popq	%rbp
	.cfi_def_cfa %rsp, 8
	retq
.Lfunc_end93:
	.size	_ZNK9__gnu_cxx13new_allocatorISt6vectorIdSaIdEEE11_M_max_sizeEv, .Lfunc_end93-_ZNK9__gnu_cxx13new_allocatorISt6vectorIdSaIdEEE11_M_max_sizeEv
	.cfi_endproc
                                        # -- End function
	.section	.text._ZN9__gnu_cxx13new_allocatorISt6vectorIdSaIdEEEC2ERKS4_,"axG",@progbits,_ZN9__gnu_cxx13new_allocatorISt6vectorIdSaIdEEEC2ERKS4_,comdat
	.weak	_ZN9__gnu_cxx13new_allocatorISt6vectorIdSaIdEEEC2ERKS4_ # -- Begin function _ZN9__gnu_cxx13new_allocatorISt6vectorIdSaIdEEEC2ERKS4_
	.p2align	4, 0x90
	.type	_ZN9__gnu_cxx13new_allocatorISt6vectorIdSaIdEEEC2ERKS4_,@function
_ZN9__gnu_cxx13new_allocatorISt6vectorIdSaIdEEEC2ERKS4_: # @_ZN9__gnu_cxx13new_allocatorISt6vectorIdSaIdEEEC2ERKS4_
	.cfi_startproc
# %bb.0:
	pushq	%rbp
	.cfi_def_cfa_offset 16
	.cfi_offset %rbp, -16
	movq	%rsp, %rbp
	.cfi_def_cfa_register %rbp
	movq	%rdi, -16(%rbp)
	movq	%rsi, -8(%rbp)
	popq	%rbp
	.cfi_def_cfa %rsp, 8
	retq
.Lfunc_end94:
	.size	_ZN9__gnu_cxx13new_allocatorISt6vectorIdSaIdEEEC2ERKS4_, .Lfunc_end94-_ZN9__gnu_cxx13new_allocatorISt6vectorIdSaIdEEEC2ERKS4_
	.cfi_endproc
                                        # -- End function
	.section	.text._ZNSt12_Vector_baseISt6vectorIdSaIdEESaIS2_EE12_Vector_implC2ERKS3_,"axG",@progbits,_ZNSt12_Vector_baseISt6vectorIdSaIdEESaIS2_EE12_Vector_implC2ERKS3_,comdat
	.weak	_ZNSt12_Vector_baseISt6vectorIdSaIdEESaIS2_EE12_Vector_implC2ERKS3_ # -- Begin function _ZNSt12_Vector_baseISt6vectorIdSaIdEESaIS2_EE12_Vector_implC2ERKS3_
	.p2align	4, 0x90
	.type	_ZNSt12_Vector_baseISt6vectorIdSaIdEESaIS2_EE12_Vector_implC2ERKS3_,@function
_ZNSt12_Vector_baseISt6vectorIdSaIdEESaIS2_EE12_Vector_implC2ERKS3_: # @_ZNSt12_Vector_baseISt6vectorIdSaIdEESaIS2_EE12_Vector_implC2ERKS3_
	.cfi_startproc
# %bb.0:
	pushq	%rbp
	.cfi_def_cfa_offset 16
	.cfi_offset %rbp, -16
	movq	%rsp, %rbp
	.cfi_def_cfa_register %rbp
	pushq	%rbx
	subq	$24, %rsp
	.cfi_offset %rbx, -24
	movq	%rdi, -24(%rbp)
	movq	%rsi, -16(%rbp)
	movq	-24(%rbp), %rbx
	movq	-16(%rbp), %rsi
	movq	%rbx, %rdi
	callq	_ZNSaISt6vectorIdSaIdEEEC2ERKS2_
	movq	%rbx, %rdi
	callq	_ZNSt12_Vector_baseISt6vectorIdSaIdEESaIS2_EE17_Vector_impl_dataC2Ev
	addq	$24, %rsp
	popq	%rbx
	popq	%rbp
	.cfi_def_cfa %rsp, 8
	retq
.Lfunc_end95:
	.size	_ZNSt12_Vector_baseISt6vectorIdSaIdEESaIS2_EE12_Vector_implC2ERKS3_, .Lfunc_end95-_ZNSt12_Vector_baseISt6vectorIdSaIdEESaIS2_EE12_Vector_implC2ERKS3_
	.cfi_endproc
                                        # -- End function
	.section	.text._ZNSt12_Vector_baseISt6vectorIdSaIdEESaIS2_EE17_M_create_storageEm,"axG",@progbits,_ZNSt12_Vector_baseISt6vectorIdSaIdEESaIS2_EE17_M_create_storageEm,comdat
	.weak	_ZNSt12_Vector_baseISt6vectorIdSaIdEESaIS2_EE17_M_create_storageEm # -- Begin function _ZNSt12_Vector_baseISt6vectorIdSaIdEESaIS2_EE17_M_create_storageEm
	.p2align	4, 0x90
	.type	_ZNSt12_Vector_baseISt6vectorIdSaIdEESaIS2_EE17_M_create_storageEm,@function
_ZNSt12_Vector_baseISt6vectorIdSaIdEESaIS2_EE17_M_create_storageEm: # @_ZNSt12_Vector_baseISt6vectorIdSaIdEESaIS2_EE17_M_create_storageEm
	.cfi_startproc
# %bb.0:
	pushq	%rbp
	.cfi_def_cfa_offset 16
	.cfi_offset %rbp, -16
	movq	%rsp, %rbp
	.cfi_def_cfa_register %rbp
	pushq	%rbx
	subq	$24, %rsp
	.cfi_offset %rbx, -24
	movq	%rdi, -24(%rbp)
	movq	%rsi, -16(%rbp)
	movq	-24(%rbp), %rbx
	movq	-16(%rbp), %rsi
	movq	%rbx, %rdi
	callq	_ZNSt12_Vector_baseISt6vectorIdSaIdEESaIS2_EE11_M_allocateEm
	movq	%rax, (%rbx)
	movq	(%rbx), %rax
	movq	%rax, 8(%rbx)
	movq	(%rbx), %rax
	imulq	$24, -16(%rbp), %rcx
	addq	%rcx, %rax
	movq	%rax, 16(%rbx)
	addq	$24, %rsp
	popq	%rbx
	popq	%rbp
	.cfi_def_cfa %rsp, 8
	retq
.Lfunc_end96:
	.size	_ZNSt12_Vector_baseISt6vectorIdSaIdEESaIS2_EE17_M_create_storageEm, .Lfunc_end96-_ZNSt12_Vector_baseISt6vectorIdSaIdEESaIS2_EE17_M_create_storageEm
	.cfi_endproc
                                        # -- End function
	.section	.text._ZNSt12_Vector_baseISt6vectorIdSaIdEESaIS2_EE12_Vector_implD2Ev,"axG",@progbits,_ZNSt12_Vector_baseISt6vectorIdSaIdEESaIS2_EE12_Vector_implD2Ev,comdat
	.weak	_ZNSt12_Vector_baseISt6vectorIdSaIdEESaIS2_EE12_Vector_implD2Ev # -- Begin function _ZNSt12_Vector_baseISt6vectorIdSaIdEESaIS2_EE12_Vector_implD2Ev
	.p2align	4, 0x90
	.type	_ZNSt12_Vector_baseISt6vectorIdSaIdEESaIS2_EE12_Vector_implD2Ev,@function
_ZNSt12_Vector_baseISt6vectorIdSaIdEESaIS2_EE12_Vector_implD2Ev: # @_ZNSt12_Vector_baseISt6vectorIdSaIdEESaIS2_EE12_Vector_implD2Ev
	.cfi_startproc
# %bb.0:
	pushq	%rbp
	.cfi_def_cfa_offset 16
	.cfi_offset %rbp, -16
	movq	%rsp, %rbp
	.cfi_def_cfa_register %rbp
	subq	$16, %rsp
	movq	%rdi, -8(%rbp)
	movq	-8(%rbp), %rdi
	callq	_ZNSaISt6vectorIdSaIdEEED2Ev
	addq	$16, %rsp
	popq	%rbp
	.cfi_def_cfa %rsp, 8
	retq
.Lfunc_end97:
	.size	_ZNSt12_Vector_baseISt6vectorIdSaIdEESaIS2_EE12_Vector_implD2Ev, .Lfunc_end97-_ZNSt12_Vector_baseISt6vectorIdSaIdEESaIS2_EE12_Vector_implD2Ev
	.cfi_endproc
                                        # -- End function
	.section	.text._ZNSt12_Vector_baseISt6vectorIdSaIdEESaIS2_EE11_M_allocateEm,"axG",@progbits,_ZNSt12_Vector_baseISt6vectorIdSaIdEESaIS2_EE11_M_allocateEm,comdat
	.weak	_ZNSt12_Vector_baseISt6vectorIdSaIdEESaIS2_EE11_M_allocateEm # -- Begin function _ZNSt12_Vector_baseISt6vectorIdSaIdEESaIS2_EE11_M_allocateEm
	.p2align	4, 0x90
	.type	_ZNSt12_Vector_baseISt6vectorIdSaIdEESaIS2_EE11_M_allocateEm,@function
_ZNSt12_Vector_baseISt6vectorIdSaIdEESaIS2_EE11_M_allocateEm: # @_ZNSt12_Vector_baseISt6vectorIdSaIdEESaIS2_EE11_M_allocateEm
	.cfi_startproc
# %bb.0:
	pushq	%rbp
	.cfi_def_cfa_offset 16
	.cfi_offset %rbp, -16
	movq	%rsp, %rbp
	.cfi_def_cfa_register %rbp
	subq	$16, %rsp
	movq	%rdi, -16(%rbp)
	movq	%rsi, -8(%rbp)
	movq	-16(%rbp), %rdi
	cmpq	$0, -8(%rbp)
	je	.LBB98_2
# %bb.1:
	movq	-8(%rbp), %rsi
	callq	_ZNSt16allocator_traitsISaISt6vectorIdSaIdEEEE8allocateERS3_m
	jmp	.LBB98_3
.LBB98_2:
	xorl	%eax, %eax
	jmp	.LBB98_3
.LBB98_3:
	addq	$16, %rsp
	popq	%rbp
	.cfi_def_cfa %rsp, 8
	retq
.Lfunc_end98:
	.size	_ZNSt12_Vector_baseISt6vectorIdSaIdEESaIS2_EE11_M_allocateEm, .Lfunc_end98-_ZNSt12_Vector_baseISt6vectorIdSaIdEESaIS2_EE11_M_allocateEm
	.cfi_endproc
                                        # -- End function
	.section	.text._ZNSt16allocator_traitsISaISt6vectorIdSaIdEEEE8allocateERS3_m,"axG",@progbits,_ZNSt16allocator_traitsISaISt6vectorIdSaIdEEEE8allocateERS3_m,comdat
	.weak	_ZNSt16allocator_traitsISaISt6vectorIdSaIdEEEE8allocateERS3_m # -- Begin function _ZNSt16allocator_traitsISaISt6vectorIdSaIdEEEE8allocateERS3_m
	.p2align	4, 0x90
	.type	_ZNSt16allocator_traitsISaISt6vectorIdSaIdEEEE8allocateERS3_m,@function
_ZNSt16allocator_traitsISaISt6vectorIdSaIdEEEE8allocateERS3_m: # @_ZNSt16allocator_traitsISaISt6vectorIdSaIdEEEE8allocateERS3_m
	.cfi_startproc
# %bb.0:
	pushq	%rbp
	.cfi_def_cfa_offset 16
	.cfi_offset %rbp, -16
	movq	%rsp, %rbp
	.cfi_def_cfa_register %rbp
	subq	$16, %rsp
	movq	%rdi, -16(%rbp)
	movq	%rsi, -8(%rbp)
	movq	-16(%rbp), %rdi
	movq	-8(%rbp), %rsi
	xorl	%edx, %edx
	callq	_ZN9__gnu_cxx13new_allocatorISt6vectorIdSaIdEEE8allocateEmPKv
	addq	$16, %rsp
	popq	%rbp
	.cfi_def_cfa %rsp, 8
	retq
.Lfunc_end99:
	.size	_ZNSt16allocator_traitsISaISt6vectorIdSaIdEEEE8allocateERS3_m, .Lfunc_end99-_ZNSt16allocator_traitsISaISt6vectorIdSaIdEEEE8allocateERS3_m
	.cfi_endproc
                                        # -- End function
	.section	.text._ZN9__gnu_cxx13new_allocatorISt6vectorIdSaIdEEE8allocateEmPKv,"axG",@progbits,_ZN9__gnu_cxx13new_allocatorISt6vectorIdSaIdEEE8allocateEmPKv,comdat
	.weak	_ZN9__gnu_cxx13new_allocatorISt6vectorIdSaIdEEE8allocateEmPKv # -- Begin function _ZN9__gnu_cxx13new_allocatorISt6vectorIdSaIdEEE8allocateEmPKv
	.p2align	4, 0x90
	.type	_ZN9__gnu_cxx13new_allocatorISt6vectorIdSaIdEEE8allocateEmPKv,@function
_ZN9__gnu_cxx13new_allocatorISt6vectorIdSaIdEEE8allocateEmPKv: # @_ZN9__gnu_cxx13new_allocatorISt6vectorIdSaIdEEE8allocateEmPKv
	.cfi_startproc
# %bb.0:
	pushq	%rbp
	.cfi_def_cfa_offset 16
	.cfi_offset %rbp, -16
	movq	%rsp, %rbp
	.cfi_def_cfa_register %rbp
	pushq	%rbx
	subq	$24, %rsp
	.cfi_offset %rbx, -24
	movq	%rdi, -24(%rbp)
	movq	%rsi, -16(%rbp)
	movq	%rdx, -32(%rbp)
	movq	-24(%rbp), %rdi
	movq	-16(%rbp), %rbx
	callq	_ZNK9__gnu_cxx13new_allocatorISt6vectorIdSaIdEEE11_M_max_sizeEv
	cmpq	%rax, %rbx
	jbe	.LBB100_4
# %bb.1:
	movabsq	$768614336404564650, %rax       # imm = 0xAAAAAAAAAAAAAAA
	cmpq	%rax, -16(%rbp)
	jbe	.LBB100_3
# %bb.2:
	callq	_ZSt28__throw_bad_array_new_lengthv@PLT
.LBB100_3:
	callq	_ZSt17__throw_bad_allocv@PLT
.LBB100_4:
	imulq	$24, -16(%rbp), %rdi
	callq	_Znwm@PLT
	addq	$24, %rsp
	popq	%rbx
	popq	%rbp
	.cfi_def_cfa %rsp, 8
	retq
.Lfunc_end100:
	.size	_ZN9__gnu_cxx13new_allocatorISt6vectorIdSaIdEEE8allocateEmPKv, .Lfunc_end100-_ZN9__gnu_cxx13new_allocatorISt6vectorIdSaIdEEE8allocateEmPKv
	.cfi_endproc
                                        # -- End function
	.section	.text._ZN9__gnu_cxx13new_allocatorISt6vectorIdSaIdEEED2Ev,"axG",@progbits,_ZN9__gnu_cxx13new_allocatorISt6vectorIdSaIdEEED2Ev,comdat
	.weak	_ZN9__gnu_cxx13new_allocatorISt6vectorIdSaIdEEED2Ev # -- Begin function _ZN9__gnu_cxx13new_allocatorISt6vectorIdSaIdEEED2Ev
	.p2align	4, 0x90
	.type	_ZN9__gnu_cxx13new_allocatorISt6vectorIdSaIdEEED2Ev,@function
_ZN9__gnu_cxx13new_allocatorISt6vectorIdSaIdEEED2Ev: # @_ZN9__gnu_cxx13new_allocatorISt6vectorIdSaIdEEED2Ev
	.cfi_startproc
# %bb.0:
	pushq	%rbp
	.cfi_def_cfa_offset 16
	.cfi_offset %rbp, -16
	movq	%rsp, %rbp
	.cfi_def_cfa_register %rbp
	movq	%rdi, -8(%rbp)
	popq	%rbp
	.cfi_def_cfa %rsp, 8
	retq
.Lfunc_end101:
	.size	_ZN9__gnu_cxx13new_allocatorISt6vectorIdSaIdEEED2Ev, .Lfunc_end101-_ZN9__gnu_cxx13new_allocatorISt6vectorIdSaIdEEED2Ev
	.cfi_endproc
                                        # -- End function
	.section	.text._ZSt24__uninitialized_fill_n_aIPSt6vectorIdSaIdEEmS2_S2_ET_S4_T0_RKT1_RSaIT2_E,"axG",@progbits,_ZSt24__uninitialized_fill_n_aIPSt6vectorIdSaIdEEmS2_S2_ET_S4_T0_RKT1_RSaIT2_E,comdat
	.weak	_ZSt24__uninitialized_fill_n_aIPSt6vectorIdSaIdEEmS2_S2_ET_S4_T0_RKT1_RSaIT2_E # -- Begin function _ZSt24__uninitialized_fill_n_aIPSt6vectorIdSaIdEEmS2_S2_ET_S4_T0_RKT1_RSaIT2_E
	.p2align	4, 0x90
	.type	_ZSt24__uninitialized_fill_n_aIPSt6vectorIdSaIdEEmS2_S2_ET_S4_T0_RKT1_RSaIT2_E,@function
_ZSt24__uninitialized_fill_n_aIPSt6vectorIdSaIdEEmS2_S2_ET_S4_T0_RKT1_RSaIT2_E: # @_ZSt24__uninitialized_fill_n_aIPSt6vectorIdSaIdEEmS2_S2_ET_S4_T0_RKT1_RSaIT2_E
	.cfi_startproc
# %bb.0:
	pushq	%rbp
	.cfi_def_cfa_offset 16
	.cfi_offset %rbp, -16
	movq	%rsp, %rbp
	.cfi_def_cfa_register %rbp
	subq	$32, %rsp
	movq	%rdi, -24(%rbp)
	movq	%rsi, -16(%rbp)
	movq	%rdx, -8(%rbp)
	movq	%rcx, -32(%rbp)
	movq	-24(%rbp), %rdi
	movq	-16(%rbp), %rsi
	movq	-8(%rbp), %rdx
	callq	_ZSt20uninitialized_fill_nIPSt6vectorIdSaIdEEmS2_ET_S4_T0_RKT1_
	addq	$32, %rsp
	popq	%rbp
	.cfi_def_cfa %rsp, 8
	retq
.Lfunc_end102:
	.size	_ZSt24__uninitialized_fill_n_aIPSt6vectorIdSaIdEEmS2_S2_ET_S4_T0_RKT1_RSaIT2_E, .Lfunc_end102-_ZSt24__uninitialized_fill_n_aIPSt6vectorIdSaIdEEmS2_S2_ET_S4_T0_RKT1_RSaIT2_E
	.cfi_endproc
                                        # -- End function
	.section	.text._ZNSt12_Vector_baseISt6vectorIdSaIdEESaIS2_EE19_M_get_Tp_allocatorEv,"axG",@progbits,_ZNSt12_Vector_baseISt6vectorIdSaIdEESaIS2_EE19_M_get_Tp_allocatorEv,comdat
	.weak	_ZNSt12_Vector_baseISt6vectorIdSaIdEESaIS2_EE19_M_get_Tp_allocatorEv # -- Begin function _ZNSt12_Vector_baseISt6vectorIdSaIdEESaIS2_EE19_M_get_Tp_allocatorEv
	.p2align	4, 0x90
	.type	_ZNSt12_Vector_baseISt6vectorIdSaIdEESaIS2_EE19_M_get_Tp_allocatorEv,@function
_ZNSt12_Vector_baseISt6vectorIdSaIdEESaIS2_EE19_M_get_Tp_allocatorEv: # @_ZNSt12_Vector_baseISt6vectorIdSaIdEESaIS2_EE19_M_get_Tp_allocatorEv
	.cfi_startproc
# %bb.0:
	pushq	%rbp
	.cfi_def_cfa_offset 16
	.cfi_offset %rbp, -16
	movq	%rsp, %rbp
	.cfi_def_cfa_register %rbp
	movq	%rdi, -8(%rbp)
	movq	-8(%rbp), %rax
	popq	%rbp
	.cfi_def_cfa %rsp, 8
	retq
.Lfunc_end103:
	.size	_ZNSt12_Vector_baseISt6vectorIdSaIdEESaIS2_EE19_M_get_Tp_allocatorEv, .Lfunc_end103-_ZNSt12_Vector_baseISt6vectorIdSaIdEESaIS2_EE19_M_get_Tp_allocatorEv
	.cfi_endproc
                                        # -- End function
	.section	.text._ZSt20uninitialized_fill_nIPSt6vectorIdSaIdEEmS2_ET_S4_T0_RKT1_,"axG",@progbits,_ZSt20uninitialized_fill_nIPSt6vectorIdSaIdEEmS2_ET_S4_T0_RKT1_,comdat
	.weak	_ZSt20uninitialized_fill_nIPSt6vectorIdSaIdEEmS2_ET_S4_T0_RKT1_ # -- Begin function _ZSt20uninitialized_fill_nIPSt6vectorIdSaIdEEmS2_ET_S4_T0_RKT1_
	.p2align	4, 0x90
	.type	_ZSt20uninitialized_fill_nIPSt6vectorIdSaIdEEmS2_ET_S4_T0_RKT1_,@function
_ZSt20uninitialized_fill_nIPSt6vectorIdSaIdEEmS2_ET_S4_T0_RKT1_: # @_ZSt20uninitialized_fill_nIPSt6vectorIdSaIdEEmS2_ET_S4_T0_RKT1_
	.cfi_startproc
# %bb.0:
	pushq	%rbp
	.cfi_def_cfa_offset 16
	.cfi_offset %rbp, -16
	movq	%rsp, %rbp
	.cfi_def_cfa_register %rbp
	subq	$32, %rsp
	movq	%rdi, -32(%rbp)
	movq	%rsi, -24(%rbp)
	movq	%rdx, -16(%rbp)
	movb	$1, -1(%rbp)
	movq	-32(%rbp), %rdi
	movq	-24(%rbp), %rsi
	movq	-16(%rbp), %rdx
	callq	_ZNSt22__uninitialized_fill_nILb0EE15__uninit_fill_nIPSt6vectorIdSaIdEEmS4_EET_S6_T0_RKT1_
	addq	$32, %rsp
	popq	%rbp
	.cfi_def_cfa %rsp, 8
	retq
.Lfunc_end104:
	.size	_ZSt20uninitialized_fill_nIPSt6vectorIdSaIdEEmS2_ET_S4_T0_RKT1_, .Lfunc_end104-_ZSt20uninitialized_fill_nIPSt6vectorIdSaIdEEmS2_ET_S4_T0_RKT1_
	.cfi_endproc
                                        # -- End function
	.section	.text._ZNSt22__uninitialized_fill_nILb0EE15__uninit_fill_nIPSt6vectorIdSaIdEEmS4_EET_S6_T0_RKT1_,"axG",@progbits,_ZNSt22__uninitialized_fill_nILb0EE15__uninit_fill_nIPSt6vectorIdSaIdEEmS4_EET_S6_T0_RKT1_,comdat
	.weak	_ZNSt22__uninitialized_fill_nILb0EE15__uninit_fill_nIPSt6vectorIdSaIdEEmS4_EET_S6_T0_RKT1_ # -- Begin function _ZNSt22__uninitialized_fill_nILb0EE15__uninit_fill_nIPSt6vectorIdSaIdEEmS4_EET_S6_T0_RKT1_
	.p2align	4, 0x90
	.type	_ZNSt22__uninitialized_fill_nILb0EE15__uninit_fill_nIPSt6vectorIdSaIdEEmS4_EET_S6_T0_RKT1_,@function
_ZNSt22__uninitialized_fill_nILb0EE15__uninit_fill_nIPSt6vectorIdSaIdEEmS4_EET_S6_T0_RKT1_: # @_ZNSt22__uninitialized_fill_nILb0EE15__uninit_fill_nIPSt6vectorIdSaIdEEmS4_EET_S6_T0_RKT1_
.Lfunc_begin21:
	.cfi_startproc
	.cfi_personality 3, __gxx_personality_v0
	.cfi_lsda 3, .Lexception21
# %bb.0:
	pushq	%rbp
	.cfi_def_cfa_offset 16
	.cfi_offset %rbp, -16
	movq	%rsp, %rbp
	.cfi_def_cfa_register %rbp
	subq	$48, %rsp
	movq	%rdi, -40(%rbp)
	movq	%rsi, -24(%rbp)
	movq	%rdx, -48(%rbp)
	movq	-40(%rbp), %rax
	movq	%rax, -8(%rbp)
.LBB105_1:                              # =>This Inner Loop Header: Depth=1
	cmpq	$0, -24(%rbp)
	jbe	.LBB105_8
# %bb.2:                                #   in Loop: Header=BB105_1 Depth=1
	movq	-8(%rbp), %rdi
	callq	_ZSt11__addressofISt6vectorIdSaIdEEEPT_RS3_
	movq	-48(%rbp), %rsi
.Ltmp141:
	movq	%rax, %rdi
	callq	_ZSt10_ConstructISt6vectorIdSaIdEEJRKS2_EEvPT_DpOT0_
.Ltmp142:
	jmp	.LBB105_3
.LBB105_3:                              #   in Loop: Header=BB105_1 Depth=1
	jmp	.LBB105_4
.LBB105_4:                              #   in Loop: Header=BB105_1 Depth=1
	movq	-24(%rbp), %rax
	addq	$-1, %rax
	movq	%rax, -24(%rbp)
	movq	-8(%rbp), %rax
	addq	$24, %rax
	movq	%rax, -8(%rbp)
	jmp	.LBB105_1
.LBB105_5:
.Ltmp143:
	movq	%rax, -16(%rbp)
	movl	%edx, -28(%rbp)
# %bb.6:
	movq	-16(%rbp), %rdi
	callq	__cxa_begin_catch@PLT
	movq	-40(%rbp), %rdi
	movq	-8(%rbp), %rsi
.Ltmp144:
	callq	_ZSt8_DestroyIPSt6vectorIdSaIdEEEvT_S4_
.Ltmp145:
	jmp	.LBB105_7
.LBB105_7:
.Ltmp146:
	callq	__cxa_rethrow@PLT
.Ltmp147:
	jmp	.LBB105_13
.LBB105_8:
	movq	-8(%rbp), %rax
	addq	$48, %rsp
	popq	%rbp
	.cfi_def_cfa %rsp, 8
	retq
.LBB105_9:
	.cfi_def_cfa %rbp, 16
.Ltmp148:
	movq	%rax, -16(%rbp)
	movl	%edx, -28(%rbp)
.Ltmp149:
	callq	__cxa_end_catch@PLT
.Ltmp150:
	jmp	.LBB105_10
.LBB105_10:
	jmp	.LBB105_11
.LBB105_11:
	movq	-16(%rbp), %rdi
	callq	_Unwind_Resume@PLT
.LBB105_12:
.Ltmp151:
                                        # kill: killed $rdx
	movq	%rax, %rdi
	callq	__clang_call_terminate
.LBB105_13:
.Lfunc_end105:
	.size	_ZNSt22__uninitialized_fill_nILb0EE15__uninit_fill_nIPSt6vectorIdSaIdEEmS4_EET_S6_T0_RKT1_, .Lfunc_end105-_ZNSt22__uninitialized_fill_nILb0EE15__uninit_fill_nIPSt6vectorIdSaIdEEmS4_EET_S6_T0_RKT1_
	.cfi_endproc
	.section	.gcc_except_table._ZNSt22__uninitialized_fill_nILb0EE15__uninit_fill_nIPSt6vectorIdSaIdEEmS4_EET_S6_T0_RKT1_,"aG",@progbits,_ZNSt22__uninitialized_fill_nILb0EE15__uninit_fill_nIPSt6vectorIdSaIdEEmS4_EET_S6_T0_RKT1_,comdat
	.p2align	2
GCC_except_table105:
.Lexception21:
	.byte	255                             # @LPStart Encoding = omit
	.byte	3                               # @TType Encoding = udata4
	.uleb128 .Lttbase6-.Lttbaseref6
.Lttbaseref6:
	.byte	1                               # Call site Encoding = uleb128
	.uleb128 .Lcst_end21-.Lcst_begin21
.Lcst_begin21:
	.uleb128 .Ltmp141-.Lfunc_begin21        # >> Call Site 1 <<
	.uleb128 .Ltmp142-.Ltmp141              #   Call between .Ltmp141 and .Ltmp142
	.uleb128 .Ltmp143-.Lfunc_begin21        #     jumps to .Ltmp143
	.byte	1                               #   On action: 1
	.uleb128 .Ltmp142-.Lfunc_begin21        # >> Call Site 2 <<
	.uleb128 .Ltmp144-.Ltmp142              #   Call between .Ltmp142 and .Ltmp144
	.byte	0                               #     has no landing pad
	.byte	0                               #   On action: cleanup
	.uleb128 .Ltmp144-.Lfunc_begin21        # >> Call Site 3 <<
	.uleb128 .Ltmp147-.Ltmp144              #   Call between .Ltmp144 and .Ltmp147
	.uleb128 .Ltmp148-.Lfunc_begin21        #     jumps to .Ltmp148
	.byte	0                               #   On action: cleanup
	.uleb128 .Ltmp149-.Lfunc_begin21        # >> Call Site 4 <<
	.uleb128 .Ltmp150-.Ltmp149              #   Call between .Ltmp149 and .Ltmp150
	.uleb128 .Ltmp151-.Lfunc_begin21        #     jumps to .Ltmp151
	.byte	1                               #   On action: 1
	.uleb128 .Ltmp150-.Lfunc_begin21        # >> Call Site 5 <<
	.uleb128 .Lfunc_end105-.Ltmp150         #   Call between .Ltmp150 and .Lfunc_end105
	.byte	0                               #     has no landing pad
	.byte	0                               #   On action: cleanup
.Lcst_end21:
	.byte	1                               # >> Action Record 1 <<
                                        #   Catch TypeInfo 1
	.byte	0                               #   No further actions
	.p2align	2
                                        # >> Catch TypeInfos <<
	.long	0                               # TypeInfo 1
.Lttbase6:
	.p2align	2
                                        # -- End function
	.section	.text._ZSt10_ConstructISt6vectorIdSaIdEEJRKS2_EEvPT_DpOT0_,"axG",@progbits,_ZSt10_ConstructISt6vectorIdSaIdEEJRKS2_EEvPT_DpOT0_,comdat
	.weak	_ZSt10_ConstructISt6vectorIdSaIdEEJRKS2_EEvPT_DpOT0_ # -- Begin function _ZSt10_ConstructISt6vectorIdSaIdEEJRKS2_EEvPT_DpOT0_
	.p2align	4, 0x90
	.type	_ZSt10_ConstructISt6vectorIdSaIdEEJRKS2_EEvPT_DpOT0_,@function
_ZSt10_ConstructISt6vectorIdSaIdEEJRKS2_EEvPT_DpOT0_: # @_ZSt10_ConstructISt6vectorIdSaIdEEJRKS2_EEvPT_DpOT0_
	.cfi_startproc
# %bb.0:
	pushq	%rbp
	.cfi_def_cfa_offset 16
	.cfi_offset %rbp, -16
	movq	%rsp, %rbp
	.cfi_def_cfa_register %rbp
	pushq	%rbx
	subq	$24, %rsp
	.cfi_offset %rbx, -24
	movq	%rdi, -24(%rbp)
	movq	%rsi, -16(%rbp)
	movq	-24(%rbp), %rbx
	movq	-16(%rbp), %rdi
	callq	_ZSt7forwardIRKSt6vectorIdSaIdEEEOT_RNSt16remove_referenceIS5_E4typeE
	movq	%rbx, %rdi
	movq	%rax, %rsi
	callq	_ZNSt6vectorIdSaIdEEC2ERKS1_
	addq	$24, %rsp
	popq	%rbx
	popq	%rbp
	.cfi_def_cfa %rsp, 8
	retq
.Lfunc_end106:
	.size	_ZSt10_ConstructISt6vectorIdSaIdEEJRKS2_EEvPT_DpOT0_, .Lfunc_end106-_ZSt10_ConstructISt6vectorIdSaIdEEJRKS2_EEvPT_DpOT0_
	.cfi_endproc
                                        # -- End function
	.section	.text._ZSt11__addressofISt6vectorIdSaIdEEEPT_RS3_,"axG",@progbits,_ZSt11__addressofISt6vectorIdSaIdEEEPT_RS3_,comdat
	.weak	_ZSt11__addressofISt6vectorIdSaIdEEEPT_RS3_ # -- Begin function _ZSt11__addressofISt6vectorIdSaIdEEEPT_RS3_
	.p2align	4, 0x90
	.type	_ZSt11__addressofISt6vectorIdSaIdEEEPT_RS3_,@function
_ZSt11__addressofISt6vectorIdSaIdEEEPT_RS3_: # @_ZSt11__addressofISt6vectorIdSaIdEEEPT_RS3_
	.cfi_startproc
# %bb.0:
	pushq	%rbp
	.cfi_def_cfa_offset 16
	.cfi_offset %rbp, -16
	movq	%rsp, %rbp
	.cfi_def_cfa_register %rbp
	movq	%rdi, -8(%rbp)
	movq	-8(%rbp), %rax
	popq	%rbp
	.cfi_def_cfa %rsp, 8
	retq
.Lfunc_end107:
	.size	_ZSt11__addressofISt6vectorIdSaIdEEEPT_RS3_, .Lfunc_end107-_ZSt11__addressofISt6vectorIdSaIdEEEPT_RS3_
	.cfi_endproc
                                        # -- End function
	.section	.text._ZSt8_DestroyIPSt6vectorIdSaIdEEEvT_S4_,"axG",@progbits,_ZSt8_DestroyIPSt6vectorIdSaIdEEEvT_S4_,comdat
	.weak	_ZSt8_DestroyIPSt6vectorIdSaIdEEEvT_S4_ # -- Begin function _ZSt8_DestroyIPSt6vectorIdSaIdEEEvT_S4_
	.p2align	4, 0x90
	.type	_ZSt8_DestroyIPSt6vectorIdSaIdEEEvT_S4_,@function
_ZSt8_DestroyIPSt6vectorIdSaIdEEEvT_S4_: # @_ZSt8_DestroyIPSt6vectorIdSaIdEEEvT_S4_
	.cfi_startproc
# %bb.0:
	pushq	%rbp
	.cfi_def_cfa_offset 16
	.cfi_offset %rbp, -16
	movq	%rsp, %rbp
	.cfi_def_cfa_register %rbp
	subq	$16, %rsp
	movq	%rdi, -16(%rbp)
	movq	%rsi, -8(%rbp)
	movq	-16(%rbp), %rdi
	movq	-8(%rbp), %rsi
	callq	_ZNSt12_Destroy_auxILb0EE9__destroyIPSt6vectorIdSaIdEEEEvT_S6_
	addq	$16, %rsp
	popq	%rbp
	.cfi_def_cfa %rsp, 8
	retq
.Lfunc_end108:
	.size	_ZSt8_DestroyIPSt6vectorIdSaIdEEEvT_S4_, .Lfunc_end108-_ZSt8_DestroyIPSt6vectorIdSaIdEEEvT_S4_
	.cfi_endproc
                                        # -- End function
	.section	.text._ZSt7forwardIRKSt6vectorIdSaIdEEEOT_RNSt16remove_referenceIS5_E4typeE,"axG",@progbits,_ZSt7forwardIRKSt6vectorIdSaIdEEEOT_RNSt16remove_referenceIS5_E4typeE,comdat
	.weak	_ZSt7forwardIRKSt6vectorIdSaIdEEEOT_RNSt16remove_referenceIS5_E4typeE # -- Begin function _ZSt7forwardIRKSt6vectorIdSaIdEEEOT_RNSt16remove_referenceIS5_E4typeE
	.p2align	4, 0x90
	.type	_ZSt7forwardIRKSt6vectorIdSaIdEEEOT_RNSt16remove_referenceIS5_E4typeE,@function
_ZSt7forwardIRKSt6vectorIdSaIdEEEOT_RNSt16remove_referenceIS5_E4typeE: # @_ZSt7forwardIRKSt6vectorIdSaIdEEEOT_RNSt16remove_referenceIS5_E4typeE
	.cfi_startproc
# %bb.0:
	pushq	%rbp
	.cfi_def_cfa_offset 16
	.cfi_offset %rbp, -16
	movq	%rsp, %rbp
	.cfi_def_cfa_register %rbp
	movq	%rdi, -8(%rbp)
	movq	-8(%rbp), %rax
	popq	%rbp
	.cfi_def_cfa %rsp, 8
	retq
.Lfunc_end109:
	.size	_ZSt7forwardIRKSt6vectorIdSaIdEEEOT_RNSt16remove_referenceIS5_E4typeE, .Lfunc_end109-_ZSt7forwardIRKSt6vectorIdSaIdEEEOT_RNSt16remove_referenceIS5_E4typeE
	.cfi_endproc
                                        # -- End function
	.section	.text._ZNSt12_Destroy_auxILb0EE9__destroyIPSt6vectorIdSaIdEEEEvT_S6_,"axG",@progbits,_ZNSt12_Destroy_auxILb0EE9__destroyIPSt6vectorIdSaIdEEEEvT_S6_,comdat
	.weak	_ZNSt12_Destroy_auxILb0EE9__destroyIPSt6vectorIdSaIdEEEEvT_S6_ # -- Begin function _ZNSt12_Destroy_auxILb0EE9__destroyIPSt6vectorIdSaIdEEEEvT_S6_
	.p2align	4, 0x90
	.type	_ZNSt12_Destroy_auxILb0EE9__destroyIPSt6vectorIdSaIdEEEEvT_S6_,@function
_ZNSt12_Destroy_auxILb0EE9__destroyIPSt6vectorIdSaIdEEEEvT_S6_: # @_ZNSt12_Destroy_auxILb0EE9__destroyIPSt6vectorIdSaIdEEEEvT_S6_
	.cfi_startproc
# %bb.0:
	pushq	%rbp
	.cfi_def_cfa_offset 16
	.cfi_offset %rbp, -16
	movq	%rsp, %rbp
	.cfi_def_cfa_register %rbp
	subq	$16, %rsp
	movq	%rdi, -8(%rbp)
	movq	%rsi, -16(%rbp)
.LBB110_1:                              # =>This Inner Loop Header: Depth=1
	movq	-8(%rbp), %rax
	cmpq	-16(%rbp), %rax
	je	.LBB110_4
# %bb.2:                                #   in Loop: Header=BB110_1 Depth=1
	movq	-8(%rbp), %rdi
	callq	_ZSt11__addressofISt6vectorIdSaIdEEEPT_RS3_
	movq	%rax, %rdi
	callq	_ZSt8_DestroyISt6vectorIdSaIdEEEvPT_
# %bb.3:                                #   in Loop: Header=BB110_1 Depth=1
	movq	-8(%rbp), %rax
	addq	$24, %rax
	movq	%rax, -8(%rbp)
	jmp	.LBB110_1
.LBB110_4:
	addq	$16, %rsp
	popq	%rbp
	.cfi_def_cfa %rsp, 8
	retq
.Lfunc_end110:
	.size	_ZNSt12_Destroy_auxILb0EE9__destroyIPSt6vectorIdSaIdEEEEvT_S6_, .Lfunc_end110-_ZNSt12_Destroy_auxILb0EE9__destroyIPSt6vectorIdSaIdEEEEvT_S6_
	.cfi_endproc
                                        # -- End function
	.section	.text._ZSt8_DestroyISt6vectorIdSaIdEEEvPT_,"axG",@progbits,_ZSt8_DestroyISt6vectorIdSaIdEEEvPT_,comdat
	.weak	_ZSt8_DestroyISt6vectorIdSaIdEEEvPT_ # -- Begin function _ZSt8_DestroyISt6vectorIdSaIdEEEvPT_
	.p2align	4, 0x90
	.type	_ZSt8_DestroyISt6vectorIdSaIdEEEvPT_,@function
_ZSt8_DestroyISt6vectorIdSaIdEEEvPT_:   # @_ZSt8_DestroyISt6vectorIdSaIdEEEvPT_
	.cfi_startproc
# %bb.0:
	pushq	%rbp
	.cfi_def_cfa_offset 16
	.cfi_offset %rbp, -16
	movq	%rsp, %rbp
	.cfi_def_cfa_register %rbp
	subq	$16, %rsp
	movq	%rdi, -8(%rbp)
	movq	-8(%rbp), %rdi
	callq	_ZNSt6vectorIdSaIdEED2Ev
	addq	$16, %rsp
	popq	%rbp
	.cfi_def_cfa %rsp, 8
	retq
.Lfunc_end111:
	.size	_ZSt8_DestroyISt6vectorIdSaIdEEEvPT_, .Lfunc_end111-_ZSt8_DestroyISt6vectorIdSaIdEEEvPT_
	.cfi_endproc
                                        # -- End function
	.section	.text._ZNSt12_Vector_baseISt6vectorIdSaIdEESaIS2_EE13_M_deallocateEPS2_m,"axG",@progbits,_ZNSt12_Vector_baseISt6vectorIdSaIdEESaIS2_EE13_M_deallocateEPS2_m,comdat
	.weak	_ZNSt12_Vector_baseISt6vectorIdSaIdEESaIS2_EE13_M_deallocateEPS2_m # -- Begin function _ZNSt12_Vector_baseISt6vectorIdSaIdEESaIS2_EE13_M_deallocateEPS2_m
	.p2align	4, 0x90
	.type	_ZNSt12_Vector_baseISt6vectorIdSaIdEESaIS2_EE13_M_deallocateEPS2_m,@function
_ZNSt12_Vector_baseISt6vectorIdSaIdEESaIS2_EE13_M_deallocateEPS2_m: # @_ZNSt12_Vector_baseISt6vectorIdSaIdEESaIS2_EE13_M_deallocateEPS2_m
	.cfi_startproc
# %bb.0:
	pushq	%rbp
	.cfi_def_cfa_offset 16
	.cfi_offset %rbp, -16
	movq	%rsp, %rbp
	.cfi_def_cfa_register %rbp
	subq	$32, %rsp
	movq	%rdi, -24(%rbp)
	movq	%rsi, -8(%rbp)
	movq	%rdx, -16(%rbp)
	movq	-24(%rbp), %rdi
	cmpq	$0, -8(%rbp)
	je	.LBB112_2
# %bb.1:
	movq	-8(%rbp), %rsi
	movq	-16(%rbp), %rdx
	callq	_ZNSt16allocator_traitsISaISt6vectorIdSaIdEEEE10deallocateERS3_PS2_m
.LBB112_2:
	addq	$32, %rsp
	popq	%rbp
	.cfi_def_cfa %rsp, 8
	retq
.Lfunc_end112:
	.size	_ZNSt12_Vector_baseISt6vectorIdSaIdEESaIS2_EE13_M_deallocateEPS2_m, .Lfunc_end112-_ZNSt12_Vector_baseISt6vectorIdSaIdEESaIS2_EE13_M_deallocateEPS2_m
	.cfi_endproc
                                        # -- End function
	.section	.text._ZNSt16allocator_traitsISaISt6vectorIdSaIdEEEE10deallocateERS3_PS2_m,"axG",@progbits,_ZNSt16allocator_traitsISaISt6vectorIdSaIdEEEE10deallocateERS3_PS2_m,comdat
	.weak	_ZNSt16allocator_traitsISaISt6vectorIdSaIdEEEE10deallocateERS3_PS2_m # -- Begin function _ZNSt16allocator_traitsISaISt6vectorIdSaIdEEEE10deallocateERS3_PS2_m
	.p2align	4, 0x90
	.type	_ZNSt16allocator_traitsISaISt6vectorIdSaIdEEEE10deallocateERS3_PS2_m,@function
_ZNSt16allocator_traitsISaISt6vectorIdSaIdEEEE10deallocateERS3_PS2_m: # @_ZNSt16allocator_traitsISaISt6vectorIdSaIdEEEE10deallocateERS3_PS2_m
	.cfi_startproc
# %bb.0:
	pushq	%rbp
	.cfi_def_cfa_offset 16
	.cfi_offset %rbp, -16
	movq	%rsp, %rbp
	.cfi_def_cfa_register %rbp
	subq	$32, %rsp
	movq	%rdi, -24(%rbp)
	movq	%rsi, -16(%rbp)
	movq	%rdx, -8(%rbp)
	movq	-24(%rbp), %rdi
	movq	-16(%rbp), %rsi
	movq	-8(%rbp), %rdx
	callq	_ZN9__gnu_cxx13new_allocatorISt6vectorIdSaIdEEE10deallocateEPS3_m
	addq	$32, %rsp
	popq	%rbp
	.cfi_def_cfa %rsp, 8
	retq
.Lfunc_end113:
	.size	_ZNSt16allocator_traitsISaISt6vectorIdSaIdEEEE10deallocateERS3_PS2_m, .Lfunc_end113-_ZNSt16allocator_traitsISaISt6vectorIdSaIdEEEE10deallocateERS3_PS2_m
	.cfi_endproc
                                        # -- End function
	.section	.text._ZN9__gnu_cxx13new_allocatorISt6vectorIdSaIdEEE10deallocateEPS3_m,"axG",@progbits,_ZN9__gnu_cxx13new_allocatorISt6vectorIdSaIdEEE10deallocateEPS3_m,comdat
	.weak	_ZN9__gnu_cxx13new_allocatorISt6vectorIdSaIdEEE10deallocateEPS3_m # -- Begin function _ZN9__gnu_cxx13new_allocatorISt6vectorIdSaIdEEE10deallocateEPS3_m
	.p2align	4, 0x90
	.type	_ZN9__gnu_cxx13new_allocatorISt6vectorIdSaIdEEE10deallocateEPS3_m,@function
_ZN9__gnu_cxx13new_allocatorISt6vectorIdSaIdEEE10deallocateEPS3_m: # @_ZN9__gnu_cxx13new_allocatorISt6vectorIdSaIdEEE10deallocateEPS3_m
	.cfi_startproc
# %bb.0:
	pushq	%rbp
	.cfi_def_cfa_offset 16
	.cfi_offset %rbp, -16
	movq	%rsp, %rbp
	.cfi_def_cfa_register %rbp
	subq	$32, %rsp
	movq	%rdi, -24(%rbp)
	movq	%rsi, -8(%rbp)
	movq	%rdx, -16(%rbp)
	movq	-8(%rbp), %rdi
	callq	_ZdlPv@PLT
	addq	$32, %rsp
	popq	%rbp
	.cfi_def_cfa %rsp, 8
	retq
.Lfunc_end114:
	.size	_ZN9__gnu_cxx13new_allocatorISt6vectorIdSaIdEEE10deallocateEPS3_m, .Lfunc_end114-_ZN9__gnu_cxx13new_allocatorISt6vectorIdSaIdEEE10deallocateEPS3_m
	.cfi_endproc
                                        # -- End function
	.section	.text._ZNSt6vectorIS_IdSaIdEESaIS1_EE14_M_move_assignEOS3_St17integral_constantIbLb1EE,"axG",@progbits,_ZNSt6vectorIS_IdSaIdEESaIS1_EE14_M_move_assignEOS3_St17integral_constantIbLb1EE,comdat
	.weak	_ZNSt6vectorIS_IdSaIdEESaIS1_EE14_M_move_assignEOS3_St17integral_constantIbLb1EE # -- Begin function _ZNSt6vectorIS_IdSaIdEESaIS1_EE14_M_move_assignEOS3_St17integral_constantIbLb1EE
	.p2align	4, 0x90
	.type	_ZNSt6vectorIS_IdSaIdEESaIS1_EE14_M_move_assignEOS3_St17integral_constantIbLb1EE,@function
_ZNSt6vectorIS_IdSaIdEESaIS1_EE14_M_move_assignEOS3_St17integral_constantIbLb1EE: # @_ZNSt6vectorIS_IdSaIdEESaIS1_EE14_M_move_assignEOS3_St17integral_constantIbLb1EE
.Lfunc_begin22:
	.cfi_startproc
	.cfi_personality 3, __gxx_personality_v0
	.cfi_lsda 3, .Lexception22
# %bb.0:
	pushq	%rbp
	.cfi_def_cfa_offset 16
	.cfi_offset %rbp, -16
	movq	%rsp, %rbp
	.cfi_def_cfa_register %rbp
	pushq	%r15
	pushq	%r14
	pushq	%rbx
	subq	$72, %rsp
	.cfi_offset %rbx, -40
	.cfi_offset %r14, -32
	.cfi_offset %r15, -24
	movq	%rdi, -56(%rbp)
	movq	%rsi, -40(%rbp)
	movq	-56(%rbp), %rbx
	leaq	-32(%rbp), %r14
	movq	%r14, %rdi
	movq	%rbx, %rsi
	callq	_ZNKSt12_Vector_baseISt6vectorIdSaIdEESaIS2_EE13get_allocatorEv
	leaq	-88(%rbp), %r15
	movq	%r15, %rdi
	movq	%r14, %rsi
	callq	_ZNSt6vectorIS_IdSaIdEESaIS1_EEC2ERKS2_
	movq	%r14, %rdi
	callq	_ZNSaISt6vectorIdSaIdEEED2Ev
	movq	-40(%rbp), %rsi
	movq	%rbx, %rdi
	callq	_ZNSt12_Vector_baseISt6vectorIdSaIdEESaIS2_EE17_Vector_impl_data12_M_swap_dataERS5_
	movq	-40(%rbp), %rsi
	movq	%r15, %rdi
	callq	_ZNSt12_Vector_baseISt6vectorIdSaIdEESaIS2_EE17_Vector_impl_data12_M_swap_dataERS5_
	movq	%rbx, %rdi
	callq	_ZNSt12_Vector_baseISt6vectorIdSaIdEESaIS2_EE19_M_get_Tp_allocatorEv
	movq	%rax, %rbx
	movq	-40(%rbp), %rdi
	callq	_ZNSt12_Vector_baseISt6vectorIdSaIdEESaIS2_EE19_M_get_Tp_allocatorEv
.Ltmp152:
	movq	%rbx, %rdi
	movq	%rax, %rsi
	callq	_ZSt15__alloc_on_moveISaISt6vectorIdSaIdEEEEvRT_S5_
.Ltmp153:
	jmp	.LBB115_1
.LBB115_1:
	leaq	-88(%rbp), %rdi
	callq	_ZNSt6vectorIS_IdSaIdEESaIS1_EED2Ev
	addq	$72, %rsp
	popq	%rbx
	popq	%r14
	popq	%r15
	popq	%rbp
	.cfi_def_cfa %rsp, 8
	retq
.LBB115_2:
	.cfi_def_cfa %rbp, 16
.Ltmp154:
	movq	%rax, -48(%rbp)
	movl	%edx, -60(%rbp)
	leaq	-88(%rbp), %rdi
	callq	_ZNSt6vectorIS_IdSaIdEESaIS1_EED2Ev
# %bb.3:
	movq	-48(%rbp), %rdi
	callq	__clang_call_terminate
.Lfunc_end115:
	.size	_ZNSt6vectorIS_IdSaIdEESaIS1_EE14_M_move_assignEOS3_St17integral_constantIbLb1EE, .Lfunc_end115-_ZNSt6vectorIS_IdSaIdEESaIS1_EE14_M_move_assignEOS3_St17integral_constantIbLb1EE
	.cfi_endproc
	.section	.gcc_except_table._ZNSt6vectorIS_IdSaIdEESaIS1_EE14_M_move_assignEOS3_St17integral_constantIbLb1EE,"aG",@progbits,_ZNSt6vectorIS_IdSaIdEESaIS1_EE14_M_move_assignEOS3_St17integral_constantIbLb1EE,comdat
	.p2align	2
GCC_except_table115:
.Lexception22:
	.byte	255                             # @LPStart Encoding = omit
	.byte	3                               # @TType Encoding = udata4
	.uleb128 .Lttbase7-.Lttbaseref7
.Lttbaseref7:
	.byte	1                               # Call site Encoding = uleb128
	.uleb128 .Lcst_end22-.Lcst_begin22
.Lcst_begin22:
	.uleb128 .Ltmp152-.Lfunc_begin22        # >> Call Site 1 <<
	.uleb128 .Ltmp153-.Ltmp152              #   Call between .Ltmp152 and .Ltmp153
	.uleb128 .Ltmp154-.Lfunc_begin22        #     jumps to .Ltmp154
	.byte	1                               #   On action: 1
.Lcst_end22:
	.byte	1                               # >> Action Record 1 <<
                                        #   Catch TypeInfo 1
	.byte	0                               #   No further actions
	.p2align	2
                                        # >> Catch TypeInfos <<
	.long	0                               # TypeInfo 1
.Lttbase7:
	.p2align	2
                                        # -- End function
	.section	.text._ZSt4moveIRSt6vectorIS0_IdSaIdEESaIS2_EEEONSt16remove_referenceIT_E4typeEOS7_,"axG",@progbits,_ZSt4moveIRSt6vectorIS0_IdSaIdEESaIS2_EEEONSt16remove_referenceIT_E4typeEOS7_,comdat
	.weak	_ZSt4moveIRSt6vectorIS0_IdSaIdEESaIS2_EEEONSt16remove_referenceIT_E4typeEOS7_ # -- Begin function _ZSt4moveIRSt6vectorIS0_IdSaIdEESaIS2_EEEONSt16remove_referenceIT_E4typeEOS7_
	.p2align	4, 0x90
	.type	_ZSt4moveIRSt6vectorIS0_IdSaIdEESaIS2_EEEONSt16remove_referenceIT_E4typeEOS7_,@function
_ZSt4moveIRSt6vectorIS0_IdSaIdEESaIS2_EEEONSt16remove_referenceIT_E4typeEOS7_: # @_ZSt4moveIRSt6vectorIS0_IdSaIdEESaIS2_EEEONSt16remove_referenceIT_E4typeEOS7_
	.cfi_startproc
# %bb.0:
	pushq	%rbp
	.cfi_def_cfa_offset 16
	.cfi_offset %rbp, -16
	movq	%rsp, %rbp
	.cfi_def_cfa_register %rbp
	movq	%rdi, -8(%rbp)
	movq	-8(%rbp), %rax
	popq	%rbp
	.cfi_def_cfa %rsp, 8
	retq
.Lfunc_end116:
	.size	_ZSt4moveIRSt6vectorIS0_IdSaIdEESaIS2_EEEONSt16remove_referenceIT_E4typeEOS7_, .Lfunc_end116-_ZSt4moveIRSt6vectorIS0_IdSaIdEESaIS2_EEEONSt16remove_referenceIT_E4typeEOS7_
	.cfi_endproc
                                        # -- End function
	.section	.text._ZNKSt12_Vector_baseISt6vectorIdSaIdEESaIS2_EE13get_allocatorEv,"axG",@progbits,_ZNKSt12_Vector_baseISt6vectorIdSaIdEESaIS2_EE13get_allocatorEv,comdat
	.weak	_ZNKSt12_Vector_baseISt6vectorIdSaIdEESaIS2_EE13get_allocatorEv # -- Begin function _ZNKSt12_Vector_baseISt6vectorIdSaIdEESaIS2_EE13get_allocatorEv
	.p2align	4, 0x90
	.type	_ZNKSt12_Vector_baseISt6vectorIdSaIdEESaIS2_EE13get_allocatorEv,@function
_ZNKSt12_Vector_baseISt6vectorIdSaIdEESaIS2_EE13get_allocatorEv: # @_ZNKSt12_Vector_baseISt6vectorIdSaIdEESaIS2_EE13get_allocatorEv
	.cfi_startproc
# %bb.0:
	pushq	%rbp
	.cfi_def_cfa_offset 16
	.cfi_offset %rbp, -16
	movq	%rsp, %rbp
	.cfi_def_cfa_register %rbp
	pushq	%rbx
	subq	$24, %rsp
	.cfi_offset %rbx, -24
	movq	%rdi, %rbx
	movq	%rbx, -24(%rbp)
	movq	%rsi, -16(%rbp)
	movq	-16(%rbp), %rdi
	callq	_ZNKSt12_Vector_baseISt6vectorIdSaIdEESaIS2_EE19_M_get_Tp_allocatorEv
	movq	%rbx, %rdi
	movq	%rax, %rsi
	callq	_ZNSaISt6vectorIdSaIdEEEC2ERKS2_
	movq	%rbx, %rax
	addq	$24, %rsp
	popq	%rbx
	popq	%rbp
	.cfi_def_cfa %rsp, 8
	retq
.Lfunc_end117:
	.size	_ZNKSt12_Vector_baseISt6vectorIdSaIdEESaIS2_EE13get_allocatorEv, .Lfunc_end117-_ZNKSt12_Vector_baseISt6vectorIdSaIdEESaIS2_EE13get_allocatorEv
	.cfi_endproc
                                        # -- End function
	.section	.text._ZNSt6vectorIS_IdSaIdEESaIS1_EEC2ERKS2_,"axG",@progbits,_ZNSt6vectorIS_IdSaIdEESaIS1_EEC2ERKS2_,comdat
	.weak	_ZNSt6vectorIS_IdSaIdEESaIS1_EEC2ERKS2_ # -- Begin function _ZNSt6vectorIS_IdSaIdEESaIS1_EEC2ERKS2_
	.p2align	4, 0x90
	.type	_ZNSt6vectorIS_IdSaIdEESaIS1_EEC2ERKS2_,@function
_ZNSt6vectorIS_IdSaIdEESaIS1_EEC2ERKS2_: # @_ZNSt6vectorIS_IdSaIdEESaIS1_EEC2ERKS2_
	.cfi_startproc
# %bb.0:
	pushq	%rbp
	.cfi_def_cfa_offset 16
	.cfi_offset %rbp, -16
	movq	%rsp, %rbp
	.cfi_def_cfa_register %rbp
	subq	$16, %rsp
	movq	%rdi, -16(%rbp)
	movq	%rsi, -8(%rbp)
	movq	-16(%rbp), %rdi
	movq	-8(%rbp), %rsi
	callq	_ZNSt12_Vector_baseISt6vectorIdSaIdEESaIS2_EEC2ERKS3_
	addq	$16, %rsp
	popq	%rbp
	.cfi_def_cfa %rsp, 8
	retq
.Lfunc_end118:
	.size	_ZNSt6vectorIS_IdSaIdEESaIS1_EEC2ERKS2_, .Lfunc_end118-_ZNSt6vectorIS_IdSaIdEESaIS1_EEC2ERKS2_
	.cfi_endproc
                                        # -- End function
	.section	.text._ZNSt12_Vector_baseISt6vectorIdSaIdEESaIS2_EE17_Vector_impl_data12_M_swap_dataERS5_,"axG",@progbits,_ZNSt12_Vector_baseISt6vectorIdSaIdEESaIS2_EE17_Vector_impl_data12_M_swap_dataERS5_,comdat
	.weak	_ZNSt12_Vector_baseISt6vectorIdSaIdEESaIS2_EE17_Vector_impl_data12_M_swap_dataERS5_ # -- Begin function _ZNSt12_Vector_baseISt6vectorIdSaIdEESaIS2_EE17_Vector_impl_data12_M_swap_dataERS5_
	.p2align	4, 0x90
	.type	_ZNSt12_Vector_baseISt6vectorIdSaIdEESaIS2_EE17_Vector_impl_data12_M_swap_dataERS5_,@function
_ZNSt12_Vector_baseISt6vectorIdSaIdEESaIS2_EE17_Vector_impl_data12_M_swap_dataERS5_: # @_ZNSt12_Vector_baseISt6vectorIdSaIdEESaIS2_EE17_Vector_impl_data12_M_swap_dataERS5_
	.cfi_startproc
# %bb.0:
	pushq	%rbp
	.cfi_def_cfa_offset 16
	.cfi_offset %rbp, -16
	movq	%rsp, %rbp
	.cfi_def_cfa_register %rbp
	pushq	%rbx
	subq	$40, %rsp
	.cfi_offset %rbx, -24
	movq	%rdi, -24(%rbp)
	movq	%rsi, -16(%rbp)
	movq	-24(%rbp), %rbx
	leaq	-48(%rbp), %rdi
	callq	_ZNSt12_Vector_baseISt6vectorIdSaIdEESaIS2_EE17_Vector_impl_dataC2Ev
	leaq	-48(%rbp), %rdi
	movq	%rbx, %rsi
	callq	_ZNSt12_Vector_baseISt6vectorIdSaIdEESaIS2_EE17_Vector_impl_data12_M_copy_dataERKS5_
	movq	-16(%rbp), %rsi
	movq	%rbx, %rdi
	callq	_ZNSt12_Vector_baseISt6vectorIdSaIdEESaIS2_EE17_Vector_impl_data12_M_copy_dataERKS5_
	movq	-16(%rbp), %rdi
	leaq	-48(%rbp), %rsi
	callq	_ZNSt12_Vector_baseISt6vectorIdSaIdEESaIS2_EE17_Vector_impl_data12_M_copy_dataERKS5_
	addq	$40, %rsp
	popq	%rbx
	popq	%rbp
	.cfi_def_cfa %rsp, 8
	retq
.Lfunc_end119:
	.size	_ZNSt12_Vector_baseISt6vectorIdSaIdEESaIS2_EE17_Vector_impl_data12_M_swap_dataERS5_, .Lfunc_end119-_ZNSt12_Vector_baseISt6vectorIdSaIdEESaIS2_EE17_Vector_impl_data12_M_swap_dataERS5_
	.cfi_endproc
                                        # -- End function
	.section	.text._ZSt15__alloc_on_moveISaISt6vectorIdSaIdEEEEvRT_S5_,"axG",@progbits,_ZSt15__alloc_on_moveISaISt6vectorIdSaIdEEEEvRT_S5_,comdat
	.weak	_ZSt15__alloc_on_moveISaISt6vectorIdSaIdEEEEvRT_S5_ # -- Begin function _ZSt15__alloc_on_moveISaISt6vectorIdSaIdEEEEvRT_S5_
	.p2align	4, 0x90
	.type	_ZSt15__alloc_on_moveISaISt6vectorIdSaIdEEEEvRT_S5_,@function
_ZSt15__alloc_on_moveISaISt6vectorIdSaIdEEEEvRT_S5_: # @_ZSt15__alloc_on_moveISaISt6vectorIdSaIdEEEEvRT_S5_
	.cfi_startproc
# %bb.0:
	pushq	%rbp
	.cfi_def_cfa_offset 16
	.cfi_offset %rbp, -16
	movq	%rsp, %rbp
	.cfi_def_cfa_register %rbp
	subq	$32, %rsp
	movq	%rdi, -16(%rbp)
	movq	%rsi, -8(%rbp)
	movq	-16(%rbp), %rdi
	movq	-8(%rbp), %rsi
	callq	_ZSt18__do_alloc_on_moveISaISt6vectorIdSaIdEEEEvRT_S5_St17integral_constantIbLb1EE
	addq	$32, %rsp
	popq	%rbp
	.cfi_def_cfa %rsp, 8
	retq
.Lfunc_end120:
	.size	_ZSt15__alloc_on_moveISaISt6vectorIdSaIdEEEEvRT_S5_, .Lfunc_end120-_ZSt15__alloc_on_moveISaISt6vectorIdSaIdEEEEvRT_S5_
	.cfi_endproc
                                        # -- End function
	.section	.text._ZNKSt12_Vector_baseISt6vectorIdSaIdEESaIS2_EE19_M_get_Tp_allocatorEv,"axG",@progbits,_ZNKSt12_Vector_baseISt6vectorIdSaIdEESaIS2_EE19_M_get_Tp_allocatorEv,comdat
	.weak	_ZNKSt12_Vector_baseISt6vectorIdSaIdEESaIS2_EE19_M_get_Tp_allocatorEv # -- Begin function _ZNKSt12_Vector_baseISt6vectorIdSaIdEESaIS2_EE19_M_get_Tp_allocatorEv
	.p2align	4, 0x90
	.type	_ZNKSt12_Vector_baseISt6vectorIdSaIdEESaIS2_EE19_M_get_Tp_allocatorEv,@function
_ZNKSt12_Vector_baseISt6vectorIdSaIdEESaIS2_EE19_M_get_Tp_allocatorEv: # @_ZNKSt12_Vector_baseISt6vectorIdSaIdEESaIS2_EE19_M_get_Tp_allocatorEv
	.cfi_startproc
# %bb.0:
	pushq	%rbp
	.cfi_def_cfa_offset 16
	.cfi_offset %rbp, -16
	movq	%rsp, %rbp
	.cfi_def_cfa_register %rbp
	movq	%rdi, -8(%rbp)
	movq	-8(%rbp), %rax
	popq	%rbp
	.cfi_def_cfa %rsp, 8
	retq
.Lfunc_end121:
	.size	_ZNKSt12_Vector_baseISt6vectorIdSaIdEESaIS2_EE19_M_get_Tp_allocatorEv, .Lfunc_end121-_ZNKSt12_Vector_baseISt6vectorIdSaIdEESaIS2_EE19_M_get_Tp_allocatorEv
	.cfi_endproc
                                        # -- End function
	.section	.text._ZNSt12_Vector_baseISt6vectorIdSaIdEESaIS2_EEC2ERKS3_,"axG",@progbits,_ZNSt12_Vector_baseISt6vectorIdSaIdEESaIS2_EEC2ERKS3_,comdat
	.weak	_ZNSt12_Vector_baseISt6vectorIdSaIdEESaIS2_EEC2ERKS3_ # -- Begin function _ZNSt12_Vector_baseISt6vectorIdSaIdEESaIS2_EEC2ERKS3_
	.p2align	4, 0x90
	.type	_ZNSt12_Vector_baseISt6vectorIdSaIdEESaIS2_EEC2ERKS3_,@function
_ZNSt12_Vector_baseISt6vectorIdSaIdEESaIS2_EEC2ERKS3_: # @_ZNSt12_Vector_baseISt6vectorIdSaIdEESaIS2_EEC2ERKS3_
	.cfi_startproc
# %bb.0:
	pushq	%rbp
	.cfi_def_cfa_offset 16
	.cfi_offset %rbp, -16
	movq	%rsp, %rbp
	.cfi_def_cfa_register %rbp
	subq	$16, %rsp
	movq	%rdi, -16(%rbp)
	movq	%rsi, -8(%rbp)
	movq	-16(%rbp), %rdi
	movq	-8(%rbp), %rsi
	callq	_ZNSt12_Vector_baseISt6vectorIdSaIdEESaIS2_EE12_Vector_implC2ERKS3_
	addq	$16, %rsp
	popq	%rbp
	.cfi_def_cfa %rsp, 8
	retq
.Lfunc_end122:
	.size	_ZNSt12_Vector_baseISt6vectorIdSaIdEESaIS2_EEC2ERKS3_, .Lfunc_end122-_ZNSt12_Vector_baseISt6vectorIdSaIdEESaIS2_EEC2ERKS3_
	.cfi_endproc
                                        # -- End function
	.section	.text._ZNSt12_Vector_baseISt6vectorIdSaIdEESaIS2_EE17_Vector_impl_dataC2Ev,"axG",@progbits,_ZNSt12_Vector_baseISt6vectorIdSaIdEESaIS2_EE17_Vector_impl_dataC2Ev,comdat
	.weak	_ZNSt12_Vector_baseISt6vectorIdSaIdEESaIS2_EE17_Vector_impl_dataC2Ev # -- Begin function _ZNSt12_Vector_baseISt6vectorIdSaIdEESaIS2_EE17_Vector_impl_dataC2Ev
	.p2align	4, 0x90
	.type	_ZNSt12_Vector_baseISt6vectorIdSaIdEESaIS2_EE17_Vector_impl_dataC2Ev,@function
_ZNSt12_Vector_baseISt6vectorIdSaIdEESaIS2_EE17_Vector_impl_dataC2Ev: # @_ZNSt12_Vector_baseISt6vectorIdSaIdEESaIS2_EE17_Vector_impl_dataC2Ev
	.cfi_startproc
# %bb.0:
	pushq	%rbp
	.cfi_def_cfa_offset 16
	.cfi_offset %rbp, -16
	movq	%rsp, %rbp
	.cfi_def_cfa_register %rbp
	movq	%rdi, -8(%rbp)
	movq	-8(%rbp), %rax
	movq	$0, (%rax)
	movq	$0, 8(%rax)
	movq	$0, 16(%rax)
	popq	%rbp
	.cfi_def_cfa %rsp, 8
	retq
.Lfunc_end123:
	.size	_ZNSt12_Vector_baseISt6vectorIdSaIdEESaIS2_EE17_Vector_impl_dataC2Ev, .Lfunc_end123-_ZNSt12_Vector_baseISt6vectorIdSaIdEESaIS2_EE17_Vector_impl_dataC2Ev
	.cfi_endproc
                                        # -- End function
	.section	.text._ZNSt12_Vector_baseISt6vectorIdSaIdEESaIS2_EE17_Vector_impl_data12_M_copy_dataERKS5_,"axG",@progbits,_ZNSt12_Vector_baseISt6vectorIdSaIdEESaIS2_EE17_Vector_impl_data12_M_copy_dataERKS5_,comdat
	.weak	_ZNSt12_Vector_baseISt6vectorIdSaIdEESaIS2_EE17_Vector_impl_data12_M_copy_dataERKS5_ # -- Begin function _ZNSt12_Vector_baseISt6vectorIdSaIdEESaIS2_EE17_Vector_impl_data12_M_copy_dataERKS5_
	.p2align	4, 0x90
	.type	_ZNSt12_Vector_baseISt6vectorIdSaIdEESaIS2_EE17_Vector_impl_data12_M_copy_dataERKS5_,@function
_ZNSt12_Vector_baseISt6vectorIdSaIdEESaIS2_EE17_Vector_impl_data12_M_copy_dataERKS5_: # @_ZNSt12_Vector_baseISt6vectorIdSaIdEESaIS2_EE17_Vector_impl_data12_M_copy_dataERKS5_
	.cfi_startproc
# %bb.0:
	pushq	%rbp
	.cfi_def_cfa_offset 16
	.cfi_offset %rbp, -16
	movq	%rsp, %rbp
	.cfi_def_cfa_register %rbp
	movq	%rdi, -16(%rbp)
	movq	%rsi, -8(%rbp)
	movq	-16(%rbp), %rax
	movq	-8(%rbp), %rcx
	movq	(%rcx), %rcx
	movq	%rcx, (%rax)
	movq	-8(%rbp), %rcx
	movq	8(%rcx), %rcx
	movq	%rcx, 8(%rax)
	movq	-8(%rbp), %rcx
	movq	16(%rcx), %rcx
	movq	%rcx, 16(%rax)
	popq	%rbp
	.cfi_def_cfa %rsp, 8
	retq
.Lfunc_end124:
	.size	_ZNSt12_Vector_baseISt6vectorIdSaIdEESaIS2_EE17_Vector_impl_data12_M_copy_dataERKS5_, .Lfunc_end124-_ZNSt12_Vector_baseISt6vectorIdSaIdEESaIS2_EE17_Vector_impl_data12_M_copy_dataERKS5_
	.cfi_endproc
                                        # -- End function
	.section	.text._ZSt18__do_alloc_on_moveISaISt6vectorIdSaIdEEEEvRT_S5_St17integral_constantIbLb1EE,"axG",@progbits,_ZSt18__do_alloc_on_moveISaISt6vectorIdSaIdEEEEvRT_S5_St17integral_constantIbLb1EE,comdat
	.weak	_ZSt18__do_alloc_on_moveISaISt6vectorIdSaIdEEEEvRT_S5_St17integral_constantIbLb1EE # -- Begin function _ZSt18__do_alloc_on_moveISaISt6vectorIdSaIdEEEEvRT_S5_St17integral_constantIbLb1EE
	.p2align	4, 0x90
	.type	_ZSt18__do_alloc_on_moveISaISt6vectorIdSaIdEEEEvRT_S5_St17integral_constantIbLb1EE,@function
_ZSt18__do_alloc_on_moveISaISt6vectorIdSaIdEEEEvRT_S5_St17integral_constantIbLb1EE: # @_ZSt18__do_alloc_on_moveISaISt6vectorIdSaIdEEEEvRT_S5_St17integral_constantIbLb1EE
	.cfi_startproc
# %bb.0:
	pushq	%rbp
	.cfi_def_cfa_offset 16
	.cfi_offset %rbp, -16
	movq	%rsp, %rbp
	.cfi_def_cfa_register %rbp
	subq	$32, %rsp
	movq	%rdi, -16(%rbp)
	movq	%rsi, -8(%rbp)
	movq	-8(%rbp), %rdi
	callq	_ZSt4moveIRSaISt6vectorIdSaIdEEEEONSt16remove_referenceIT_E4typeEOS6_
	addq	$32, %rsp
	popq	%rbp
	.cfi_def_cfa %rsp, 8
	retq
.Lfunc_end125:
	.size	_ZSt18__do_alloc_on_moveISaISt6vectorIdSaIdEEEEvRT_S5_St17integral_constantIbLb1EE, .Lfunc_end125-_ZSt18__do_alloc_on_moveISaISt6vectorIdSaIdEEEEvRT_S5_St17integral_constantIbLb1EE
	.cfi_endproc
                                        # -- End function
	.section	.text._ZSt4moveIRSaISt6vectorIdSaIdEEEEONSt16remove_referenceIT_E4typeEOS6_,"axG",@progbits,_ZSt4moveIRSaISt6vectorIdSaIdEEEEONSt16remove_referenceIT_E4typeEOS6_,comdat
	.weak	_ZSt4moveIRSaISt6vectorIdSaIdEEEEONSt16remove_referenceIT_E4typeEOS6_ # -- Begin function _ZSt4moveIRSaISt6vectorIdSaIdEEEEONSt16remove_referenceIT_E4typeEOS6_
	.p2align	4, 0x90
	.type	_ZSt4moveIRSaISt6vectorIdSaIdEEEEONSt16remove_referenceIT_E4typeEOS6_,@function
_ZSt4moveIRSaISt6vectorIdSaIdEEEEONSt16remove_referenceIT_E4typeEOS6_: # @_ZSt4moveIRSaISt6vectorIdSaIdEEEEONSt16remove_referenceIT_E4typeEOS6_
	.cfi_startproc
# %bb.0:
	pushq	%rbp
	.cfi_def_cfa_offset 16
	.cfi_offset %rbp, -16
	movq	%rsp, %rbp
	.cfi_def_cfa_register %rbp
	movq	%rdi, -8(%rbp)
	movq	-8(%rbp), %rax
	popq	%rbp
	.cfi_def_cfa %rsp, 8
	retq
.Lfunc_end126:
	.size	_ZSt4moveIRSaISt6vectorIdSaIdEEEEONSt16remove_referenceIT_E4typeEOS6_, .Lfunc_end126-_ZSt4moveIRSaISt6vectorIdSaIdEEEEONSt16remove_referenceIT_E4typeEOS6_
	.cfi_endproc
                                        # -- End function
	.section	.text._ZN3SVM3dotESt6vectorIdSaIdEES2_,"axG",@progbits,_ZN3SVM3dotESt6vectorIdSaIdEES2_,comdat
	.weak	_ZN3SVM3dotESt6vectorIdSaIdEES2_ # -- Begin function _ZN3SVM3dotESt6vectorIdSaIdEES2_
	.p2align	4, 0x90
	.type	_ZN3SVM3dotESt6vectorIdSaIdEES2_,@function
_ZN3SVM3dotESt6vectorIdSaIdEES2_:       # @_ZN3SVM3dotESt6vectorIdSaIdEES2_
	.cfi_startproc
# %bb.0:
	pushq	%rbp
	.cfi_def_cfa_offset 16
	.cfi_offset %rbp, -16
	movq	%rsp, %rbp
	.cfi_def_cfa_register %rbp
	pushq	%r15
	pushq	%r14
	pushq	%rbx
	subq	$40, %rsp
	.cfi_offset %rbx, -40
	.cfi_offset %r14, -32
	.cfi_offset %r15, -24
	movq	%rdx, %r14
	movq	%rsi, %r15
	movq	%rdi, -56(%rbp)
	xorps	%xmm0, %xmm0
	movsd	%xmm0, -40(%rbp)
	movl	$0, -28(%rbp)
.LBB127_1:                              # =>This Inner Loop Header: Depth=1
	movslq	-28(%rbp), %rbx
	movq	%r15, %rdi
	callq	_ZNKSt6vectorIdSaIdEE4sizeEv
	cmpq	%rax, %rbx
	jae	.LBB127_4
# %bb.2:                                #   in Loop: Header=BB127_1 Depth=1
	movslq	-28(%rbp), %rsi
	movq	%r15, %rdi
	callq	_ZNSt6vectorIdSaIdEEixEm
	movsd	(%rax), %xmm0                   # xmm0 = mem[0],zero
	movsd	%xmm0, -48(%rbp)                # 8-byte Spill
	movslq	-28(%rbp), %rsi
	movq	%r14, %rdi
	callq	_ZNSt6vectorIdSaIdEEixEm
	movsd	(%rax), %xmm0                   # xmm0 = mem[0],zero
	movsd	-40(%rbp), %xmm1                # xmm1 = mem[0],zero
	movsd	-48(%rbp), %xmm2                # 8-byte Reload
                                        # xmm2 = mem[0],zero
	mulsd	%xmm0, %xmm2
	addsd	%xmm1, %xmm2
	movsd	%xmm2, -40(%rbp)
# %bb.3:                                #   in Loop: Header=BB127_1 Depth=1
	movl	-28(%rbp), %eax
	addl	$1, %eax
	movl	%eax, -28(%rbp)
	jmp	.LBB127_1
.LBB127_4:
	movsd	-40(%rbp), %xmm0                # xmm0 = mem[0],zero
	addq	$40, %rsp
	popq	%rbx
	popq	%r14
	popq	%r15
	popq	%rbp
	.cfi_def_cfa %rsp, 8
	retq
.Lfunc_end127:
	.size	_ZN3SVM3dotESt6vectorIdSaIdEES2_, .Lfunc_end127-_ZN3SVM3dotESt6vectorIdSaIdEES2_
	.cfi_endproc
                                        # -- End function
	.section	.text._ZN3SVM4normESt6vectorIdSaIdEES2_,"axG",@progbits,_ZN3SVM4normESt6vectorIdSaIdEES2_,comdat
	.weak	_ZN3SVM4normESt6vectorIdSaIdEES2_ # -- Begin function _ZN3SVM4normESt6vectorIdSaIdEES2_
	.p2align	4, 0x90
	.type	_ZN3SVM4normESt6vectorIdSaIdEES2_,@function
_ZN3SVM4normESt6vectorIdSaIdEES2_:      # @_ZN3SVM4normESt6vectorIdSaIdEES2_
	.cfi_startproc
# %bb.0:
	pushq	%rbp
	.cfi_def_cfa_offset 16
	.cfi_offset %rbp, -16
	movq	%rsp, %rbp
	.cfi_def_cfa_register %rbp
	pushq	%r15
	pushq	%r14
	pushq	%rbx
	subq	$40, %rsp
	.cfi_offset %rbx, -40
	.cfi_offset %r14, -32
	.cfi_offset %r15, -24
	movq	%rdx, %r14
	movq	%rsi, %r15
	movq	%rdi, -64(%rbp)
	xorps	%xmm0, %xmm0
	movsd	%xmm0, -40(%rbp)
	movl	$0, -28(%rbp)
.LBB128_1:                              # =>This Inner Loop Header: Depth=1
	movslq	-28(%rbp), %rbx
	movq	%r15, %rdi
	callq	_ZNKSt6vectorIdSaIdEE4sizeEv
	cmpq	%rax, %rbx
	jae	.LBB128_4
# %bb.2:                                #   in Loop: Header=BB128_1 Depth=1
	movslq	-28(%rbp), %rsi
	movq	%r15, %rdi
	callq	_ZNSt6vectorIdSaIdEEixEm
	movsd	(%rax), %xmm0                   # xmm0 = mem[0],zero
	movsd	%xmm0, -56(%rbp)                # 8-byte Spill
	movslq	-28(%rbp), %rsi
	movq	%r14, %rdi
	callq	_ZNSt6vectorIdSaIdEEixEm
	movsd	-56(%rbp), %xmm0                # 8-byte Reload
                                        # xmm0 = mem[0],zero
	subsd	(%rax), %xmm0
	movsd	%xmm0, -48(%rbp)
	movsd	-48(%rbp), %xmm0                # xmm0 = mem[0],zero
	movsd	-48(%rbp), %xmm1                # xmm1 = mem[0],zero
	movsd	-40(%rbp), %xmm2                # xmm2 = mem[0],zero
	mulsd	%xmm1, %xmm0
	addsd	%xmm2, %xmm0
	movsd	%xmm0, -40(%rbp)
# %bb.3:                                #   in Loop: Header=BB128_1 Depth=1
	movl	-28(%rbp), %eax
	addl	$1, %eax
	movl	%eax, -28(%rbp)
	jmp	.LBB128_1
.LBB128_4:
	movsd	-40(%rbp), %xmm0                # xmm0 = mem[0],zero
	callq	sqrt@PLT
	addq	$40, %rsp
	popq	%rbx
	popq	%r14
	popq	%r15
	popq	%rbp
	.cfi_def_cfa %rsp, 8
	retq
.Lfunc_end128:
	.size	_ZN3SVM4normESt6vectorIdSaIdEES2_, .Lfunc_end128-_ZN3SVM4normESt6vectorIdSaIdEES2_
	.cfi_endproc
                                        # -- End function
	.section	.text._ZNSt6vectorIdSaIdEE18_M_fill_initializeEmRKd,"axG",@progbits,_ZNSt6vectorIdSaIdEE18_M_fill_initializeEmRKd,comdat
	.weak	_ZNSt6vectorIdSaIdEE18_M_fill_initializeEmRKd # -- Begin function _ZNSt6vectorIdSaIdEE18_M_fill_initializeEmRKd
	.p2align	4, 0x90
	.type	_ZNSt6vectorIdSaIdEE18_M_fill_initializeEmRKd,@function
_ZNSt6vectorIdSaIdEE18_M_fill_initializeEmRKd: # @_ZNSt6vectorIdSaIdEE18_M_fill_initializeEmRKd
	.cfi_startproc
# %bb.0:
	pushq	%rbp
	.cfi_def_cfa_offset 16
	.cfi_offset %rbp, -16
	movq	%rsp, %rbp
	.cfi_def_cfa_register %rbp
	pushq	%r15
	pushq	%r14
	pushq	%r12
	pushq	%rbx
	subq	$32, %rsp
	.cfi_offset %rbx, -48
	.cfi_offset %r12, -40
	.cfi_offset %r14, -32
	.cfi_offset %r15, -24
	movq	%rdi, -56(%rbp)
	movq	%rsi, -48(%rbp)
	movq	%rdx, -40(%rbp)
	movq	-56(%rbp), %rbx
	movq	(%rbx), %r14
	movq	-48(%rbp), %r15
	movq	-40(%rbp), %r12
	movq	%rbx, %rdi
	callq	_ZNSt12_Vector_baseIdSaIdEE19_M_get_Tp_allocatorEv
	movq	%r14, %rdi
	movq	%r15, %rsi
	movq	%r12, %rdx
	movq	%rax, %rcx
	callq	_ZSt24__uninitialized_fill_n_aIPdmddET_S1_T0_RKT1_RSaIT2_E
	movq	%rax, 8(%rbx)
	addq	$32, %rsp
	popq	%rbx
	popq	%r12
	popq	%r14
	popq	%r15
	popq	%rbp
	.cfi_def_cfa %rsp, 8
	retq
.Lfunc_end129:
	.size	_ZNSt6vectorIdSaIdEE18_M_fill_initializeEmRKd, .Lfunc_end129-_ZNSt6vectorIdSaIdEE18_M_fill_initializeEmRKd
	.cfi_endproc
                                        # -- End function
	.section	.text._ZSt24__uninitialized_fill_n_aIPdmddET_S1_T0_RKT1_RSaIT2_E,"axG",@progbits,_ZSt24__uninitialized_fill_n_aIPdmddET_S1_T0_RKT1_RSaIT2_E,comdat
	.weak	_ZSt24__uninitialized_fill_n_aIPdmddET_S1_T0_RKT1_RSaIT2_E # -- Begin function _ZSt24__uninitialized_fill_n_aIPdmddET_S1_T0_RKT1_RSaIT2_E
	.p2align	4, 0x90
	.type	_ZSt24__uninitialized_fill_n_aIPdmddET_S1_T0_RKT1_RSaIT2_E,@function
_ZSt24__uninitialized_fill_n_aIPdmddET_S1_T0_RKT1_RSaIT2_E: # @_ZSt24__uninitialized_fill_n_aIPdmddET_S1_T0_RKT1_RSaIT2_E
	.cfi_startproc
# %bb.0:
	pushq	%rbp
	.cfi_def_cfa_offset 16
	.cfi_offset %rbp, -16
	movq	%rsp, %rbp
	.cfi_def_cfa_register %rbp
	subq	$32, %rsp
	movq	%rdi, -24(%rbp)
	movq	%rsi, -16(%rbp)
	movq	%rdx, -8(%rbp)
	movq	%rcx, -32(%rbp)
	movq	-24(%rbp), %rdi
	movq	-16(%rbp), %rsi
	movq	-8(%rbp), %rdx
	callq	_ZSt20uninitialized_fill_nIPdmdET_S1_T0_RKT1_
	addq	$32, %rsp
	popq	%rbp
	.cfi_def_cfa %rsp, 8
	retq
.Lfunc_end130:
	.size	_ZSt24__uninitialized_fill_n_aIPdmddET_S1_T0_RKT1_RSaIT2_E, .Lfunc_end130-_ZSt24__uninitialized_fill_n_aIPdmddET_S1_T0_RKT1_RSaIT2_E
	.cfi_endproc
                                        # -- End function
	.section	.text._ZSt20uninitialized_fill_nIPdmdET_S1_T0_RKT1_,"axG",@progbits,_ZSt20uninitialized_fill_nIPdmdET_S1_T0_RKT1_,comdat
	.weak	_ZSt20uninitialized_fill_nIPdmdET_S1_T0_RKT1_ # -- Begin function _ZSt20uninitialized_fill_nIPdmdET_S1_T0_RKT1_
	.p2align	4, 0x90
	.type	_ZSt20uninitialized_fill_nIPdmdET_S1_T0_RKT1_,@function
_ZSt20uninitialized_fill_nIPdmdET_S1_T0_RKT1_: # @_ZSt20uninitialized_fill_nIPdmdET_S1_T0_RKT1_
	.cfi_startproc
# %bb.0:
	pushq	%rbp
	.cfi_def_cfa_offset 16
	.cfi_offset %rbp, -16
	movq	%rsp, %rbp
	.cfi_def_cfa_register %rbp
	subq	$32, %rsp
	movq	%rdi, -32(%rbp)
	movq	%rsi, -24(%rbp)
	movq	%rdx, -16(%rbp)
	movb	$1, -1(%rbp)
	movq	-32(%rbp), %rdi
	movq	-24(%rbp), %rsi
	movq	-16(%rbp), %rdx
	callq	_ZNSt22__uninitialized_fill_nILb1EE15__uninit_fill_nIPdmdEET_S3_T0_RKT1_
	addq	$32, %rsp
	popq	%rbp
	.cfi_def_cfa %rsp, 8
	retq
.Lfunc_end131:
	.size	_ZSt20uninitialized_fill_nIPdmdET_S1_T0_RKT1_, .Lfunc_end131-_ZSt20uninitialized_fill_nIPdmdET_S1_T0_RKT1_
	.cfi_endproc
                                        # -- End function
	.section	.text._ZNSt22__uninitialized_fill_nILb1EE15__uninit_fill_nIPdmdEET_S3_T0_RKT1_,"axG",@progbits,_ZNSt22__uninitialized_fill_nILb1EE15__uninit_fill_nIPdmdEET_S3_T0_RKT1_,comdat
	.weak	_ZNSt22__uninitialized_fill_nILb1EE15__uninit_fill_nIPdmdEET_S3_T0_RKT1_ # -- Begin function _ZNSt22__uninitialized_fill_nILb1EE15__uninit_fill_nIPdmdEET_S3_T0_RKT1_
	.p2align	4, 0x90
	.type	_ZNSt22__uninitialized_fill_nILb1EE15__uninit_fill_nIPdmdEET_S3_T0_RKT1_,@function
_ZNSt22__uninitialized_fill_nILb1EE15__uninit_fill_nIPdmdEET_S3_T0_RKT1_: # @_ZNSt22__uninitialized_fill_nILb1EE15__uninit_fill_nIPdmdEET_S3_T0_RKT1_
	.cfi_startproc
# %bb.0:
	pushq	%rbp
	.cfi_def_cfa_offset 16
	.cfi_offset %rbp, -16
	movq	%rsp, %rbp
	.cfi_def_cfa_register %rbp
	subq	$32, %rsp
	movq	%rdi, -24(%rbp)
	movq	%rsi, -16(%rbp)
	movq	%rdx, -8(%rbp)
	movq	-24(%rbp), %rdi
	movq	-16(%rbp), %rsi
	movq	-8(%rbp), %rdx
	callq	_ZSt6fill_nIPdmdET_S1_T0_RKT1_
	addq	$32, %rsp
	popq	%rbp
	.cfi_def_cfa %rsp, 8
	retq
.Lfunc_end132:
	.size	_ZNSt22__uninitialized_fill_nILb1EE15__uninit_fill_nIPdmdEET_S3_T0_RKT1_, .Lfunc_end132-_ZNSt22__uninitialized_fill_nILb1EE15__uninit_fill_nIPdmdEET_S3_T0_RKT1_
	.cfi_endproc
                                        # -- End function
	.section	.text._ZNSt6vectorIdSaIdEE14_M_move_assignEOS1_St17integral_constantIbLb1EE,"axG",@progbits,_ZNSt6vectorIdSaIdEE14_M_move_assignEOS1_St17integral_constantIbLb1EE,comdat
	.weak	_ZNSt6vectorIdSaIdEE14_M_move_assignEOS1_St17integral_constantIbLb1EE # -- Begin function _ZNSt6vectorIdSaIdEE14_M_move_assignEOS1_St17integral_constantIbLb1EE
	.p2align	4, 0x90
	.type	_ZNSt6vectorIdSaIdEE14_M_move_assignEOS1_St17integral_constantIbLb1EE,@function
_ZNSt6vectorIdSaIdEE14_M_move_assignEOS1_St17integral_constantIbLb1EE: # @_ZNSt6vectorIdSaIdEE14_M_move_assignEOS1_St17integral_constantIbLb1EE
.Lfunc_begin23:
	.cfi_startproc
	.cfi_personality 3, __gxx_personality_v0
	.cfi_lsda 3, .Lexception23
# %bb.0:
	pushq	%rbp
	.cfi_def_cfa_offset 16
	.cfi_offset %rbp, -16
	movq	%rsp, %rbp
	.cfi_def_cfa_register %rbp
	pushq	%r15
	pushq	%r14
	pushq	%rbx
	subq	$72, %rsp
	.cfi_offset %rbx, -40
	.cfi_offset %r14, -32
	.cfi_offset %r15, -24
	movq	%rdi, -56(%rbp)
	movq	%rsi, -40(%rbp)
	movq	-56(%rbp), %rbx
	leaq	-32(%rbp), %r14
	movq	%r14, %rdi
	movq	%rbx, %rsi
	callq	_ZNKSt12_Vector_baseIdSaIdEE13get_allocatorEv
	leaq	-88(%rbp), %r15
	movq	%r15, %rdi
	movq	%r14, %rsi
	callq	_ZNSt6vectorIdSaIdEEC2ERKS0_
	movq	%r14, %rdi
	callq	_ZNSaIdED2Ev
	movq	-40(%rbp), %rsi
	movq	%rbx, %rdi
	callq	_ZNSt12_Vector_baseIdSaIdEE17_Vector_impl_data12_M_swap_dataERS2_
	movq	-40(%rbp), %rsi
	movq	%r15, %rdi
	callq	_ZNSt12_Vector_baseIdSaIdEE17_Vector_impl_data12_M_swap_dataERS2_
	movq	%rbx, %rdi
	callq	_ZNSt12_Vector_baseIdSaIdEE19_M_get_Tp_allocatorEv
	movq	%rax, %rbx
	movq	-40(%rbp), %rdi
	callq	_ZNSt12_Vector_baseIdSaIdEE19_M_get_Tp_allocatorEv
.Ltmp155:
	movq	%rbx, %rdi
	movq	%rax, %rsi
	callq	_ZSt15__alloc_on_moveISaIdEEvRT_S2_
.Ltmp156:
	jmp	.LBB133_1
.LBB133_1:
	leaq	-88(%rbp), %rdi
	callq	_ZNSt6vectorIdSaIdEED2Ev
	addq	$72, %rsp
	popq	%rbx
	popq	%r14
	popq	%r15
	popq	%rbp
	.cfi_def_cfa %rsp, 8
	retq
.LBB133_2:
	.cfi_def_cfa %rbp, 16
.Ltmp157:
	movq	%rax, -48(%rbp)
	movl	%edx, -60(%rbp)
	leaq	-88(%rbp), %rdi
	callq	_ZNSt6vectorIdSaIdEED2Ev
# %bb.3:
	movq	-48(%rbp), %rdi
	callq	__clang_call_terminate
.Lfunc_end133:
	.size	_ZNSt6vectorIdSaIdEE14_M_move_assignEOS1_St17integral_constantIbLb1EE, .Lfunc_end133-_ZNSt6vectorIdSaIdEE14_M_move_assignEOS1_St17integral_constantIbLb1EE
	.cfi_endproc
	.section	.gcc_except_table._ZNSt6vectorIdSaIdEE14_M_move_assignEOS1_St17integral_constantIbLb1EE,"aG",@progbits,_ZNSt6vectorIdSaIdEE14_M_move_assignEOS1_St17integral_constantIbLb1EE,comdat
	.p2align	2
GCC_except_table133:
.Lexception23:
	.byte	255                             # @LPStart Encoding = omit
	.byte	3                               # @TType Encoding = udata4
	.uleb128 .Lttbase8-.Lttbaseref8
.Lttbaseref8:
	.byte	1                               # Call site Encoding = uleb128
	.uleb128 .Lcst_end23-.Lcst_begin23
.Lcst_begin23:
	.uleb128 .Ltmp155-.Lfunc_begin23        # >> Call Site 1 <<
	.uleb128 .Ltmp156-.Ltmp155              #   Call between .Ltmp155 and .Ltmp156
	.uleb128 .Ltmp157-.Lfunc_begin23        #     jumps to .Ltmp157
	.byte	1                               #   On action: 1
.Lcst_end23:
	.byte	1                               # >> Action Record 1 <<
                                        #   Catch TypeInfo 1
	.byte	0                               #   No further actions
	.p2align	2
                                        # >> Catch TypeInfos <<
	.long	0                               # TypeInfo 1
.Lttbase8:
	.p2align	2
                                        # -- End function
	.section	.text._ZSt4moveIRSt6vectorIdSaIdEEEONSt16remove_referenceIT_E4typeEOS5_,"axG",@progbits,_ZSt4moveIRSt6vectorIdSaIdEEEONSt16remove_referenceIT_E4typeEOS5_,comdat
	.weak	_ZSt4moveIRSt6vectorIdSaIdEEEONSt16remove_referenceIT_E4typeEOS5_ # -- Begin function _ZSt4moveIRSt6vectorIdSaIdEEEONSt16remove_referenceIT_E4typeEOS5_
	.p2align	4, 0x90
	.type	_ZSt4moveIRSt6vectorIdSaIdEEEONSt16remove_referenceIT_E4typeEOS5_,@function
_ZSt4moveIRSt6vectorIdSaIdEEEONSt16remove_referenceIT_E4typeEOS5_: # @_ZSt4moveIRSt6vectorIdSaIdEEEONSt16remove_referenceIT_E4typeEOS5_
	.cfi_startproc
# %bb.0:
	pushq	%rbp
	.cfi_def_cfa_offset 16
	.cfi_offset %rbp, -16
	movq	%rsp, %rbp
	.cfi_def_cfa_register %rbp
	movq	%rdi, -8(%rbp)
	movq	-8(%rbp), %rax
	popq	%rbp
	.cfi_def_cfa %rsp, 8
	retq
.Lfunc_end134:
	.size	_ZSt4moveIRSt6vectorIdSaIdEEEONSt16remove_referenceIT_E4typeEOS5_, .Lfunc_end134-_ZSt4moveIRSt6vectorIdSaIdEEEONSt16remove_referenceIT_E4typeEOS5_
	.cfi_endproc
                                        # -- End function
	.section	.text._ZNKSt12_Vector_baseIdSaIdEE13get_allocatorEv,"axG",@progbits,_ZNKSt12_Vector_baseIdSaIdEE13get_allocatorEv,comdat
	.weak	_ZNKSt12_Vector_baseIdSaIdEE13get_allocatorEv # -- Begin function _ZNKSt12_Vector_baseIdSaIdEE13get_allocatorEv
	.p2align	4, 0x90
	.type	_ZNKSt12_Vector_baseIdSaIdEE13get_allocatorEv,@function
_ZNKSt12_Vector_baseIdSaIdEE13get_allocatorEv: # @_ZNKSt12_Vector_baseIdSaIdEE13get_allocatorEv
	.cfi_startproc
# %bb.0:
	pushq	%rbp
	.cfi_def_cfa_offset 16
	.cfi_offset %rbp, -16
	movq	%rsp, %rbp
	.cfi_def_cfa_register %rbp
	pushq	%rbx
	subq	$24, %rsp
	.cfi_offset %rbx, -24
	movq	%rdi, %rbx
	movq	%rbx, -24(%rbp)
	movq	%rsi, -16(%rbp)
	movq	-16(%rbp), %rdi
	callq	_ZNKSt12_Vector_baseIdSaIdEE19_M_get_Tp_allocatorEv
	movq	%rbx, %rdi
	movq	%rax, %rsi
	callq	_ZNSaIdEC2ERKS_
	movq	%rbx, %rax
	addq	$24, %rsp
	popq	%rbx
	popq	%rbp
	.cfi_def_cfa %rsp, 8
	retq
.Lfunc_end135:
	.size	_ZNKSt12_Vector_baseIdSaIdEE13get_allocatorEv, .Lfunc_end135-_ZNKSt12_Vector_baseIdSaIdEE13get_allocatorEv
	.cfi_endproc
                                        # -- End function
	.section	.text._ZNSt6vectorIdSaIdEEC2ERKS0_,"axG",@progbits,_ZNSt6vectorIdSaIdEEC2ERKS0_,comdat
	.weak	_ZNSt6vectorIdSaIdEEC2ERKS0_    # -- Begin function _ZNSt6vectorIdSaIdEEC2ERKS0_
	.p2align	4, 0x90
	.type	_ZNSt6vectorIdSaIdEEC2ERKS0_,@function
_ZNSt6vectorIdSaIdEEC2ERKS0_:           # @_ZNSt6vectorIdSaIdEEC2ERKS0_
	.cfi_startproc
# %bb.0:
	pushq	%rbp
	.cfi_def_cfa_offset 16
	.cfi_offset %rbp, -16
	movq	%rsp, %rbp
	.cfi_def_cfa_register %rbp
	subq	$16, %rsp
	movq	%rdi, -16(%rbp)
	movq	%rsi, -8(%rbp)
	movq	-16(%rbp), %rdi
	movq	-8(%rbp), %rsi
	callq	_ZNSt12_Vector_baseIdSaIdEEC2ERKS0_
	addq	$16, %rsp
	popq	%rbp
	.cfi_def_cfa %rsp, 8
	retq
.Lfunc_end136:
	.size	_ZNSt6vectorIdSaIdEEC2ERKS0_, .Lfunc_end136-_ZNSt6vectorIdSaIdEEC2ERKS0_
	.cfi_endproc
                                        # -- End function
	.section	.text._ZNSt12_Vector_baseIdSaIdEE17_Vector_impl_data12_M_swap_dataERS2_,"axG",@progbits,_ZNSt12_Vector_baseIdSaIdEE17_Vector_impl_data12_M_swap_dataERS2_,comdat
	.weak	_ZNSt12_Vector_baseIdSaIdEE17_Vector_impl_data12_M_swap_dataERS2_ # -- Begin function _ZNSt12_Vector_baseIdSaIdEE17_Vector_impl_data12_M_swap_dataERS2_
	.p2align	4, 0x90
	.type	_ZNSt12_Vector_baseIdSaIdEE17_Vector_impl_data12_M_swap_dataERS2_,@function
_ZNSt12_Vector_baseIdSaIdEE17_Vector_impl_data12_M_swap_dataERS2_: # @_ZNSt12_Vector_baseIdSaIdEE17_Vector_impl_data12_M_swap_dataERS2_
	.cfi_startproc
# %bb.0:
	pushq	%rbp
	.cfi_def_cfa_offset 16
	.cfi_offset %rbp, -16
	movq	%rsp, %rbp
	.cfi_def_cfa_register %rbp
	pushq	%rbx
	subq	$40, %rsp
	.cfi_offset %rbx, -24
	movq	%rdi, -24(%rbp)
	movq	%rsi, -16(%rbp)
	movq	-24(%rbp), %rbx
	leaq	-48(%rbp), %rdi
	callq	_ZNSt12_Vector_baseIdSaIdEE17_Vector_impl_dataC2Ev
	leaq	-48(%rbp), %rdi
	movq	%rbx, %rsi
	callq	_ZNSt12_Vector_baseIdSaIdEE17_Vector_impl_data12_M_copy_dataERKS2_
	movq	-16(%rbp), %rsi
	movq	%rbx, %rdi
	callq	_ZNSt12_Vector_baseIdSaIdEE17_Vector_impl_data12_M_copy_dataERKS2_
	movq	-16(%rbp), %rdi
	leaq	-48(%rbp), %rsi
	callq	_ZNSt12_Vector_baseIdSaIdEE17_Vector_impl_data12_M_copy_dataERKS2_
	addq	$40, %rsp
	popq	%rbx
	popq	%rbp
	.cfi_def_cfa %rsp, 8
	retq
.Lfunc_end137:
	.size	_ZNSt12_Vector_baseIdSaIdEE17_Vector_impl_data12_M_swap_dataERS2_, .Lfunc_end137-_ZNSt12_Vector_baseIdSaIdEE17_Vector_impl_data12_M_swap_dataERS2_
	.cfi_endproc
                                        # -- End function
	.section	.text._ZSt15__alloc_on_moveISaIdEEvRT_S2_,"axG",@progbits,_ZSt15__alloc_on_moveISaIdEEvRT_S2_,comdat
	.weak	_ZSt15__alloc_on_moveISaIdEEvRT_S2_ # -- Begin function _ZSt15__alloc_on_moveISaIdEEvRT_S2_
	.p2align	4, 0x90
	.type	_ZSt15__alloc_on_moveISaIdEEvRT_S2_,@function
_ZSt15__alloc_on_moveISaIdEEvRT_S2_:    # @_ZSt15__alloc_on_moveISaIdEEvRT_S2_
	.cfi_startproc
# %bb.0:
	pushq	%rbp
	.cfi_def_cfa_offset 16
	.cfi_offset %rbp, -16
	movq	%rsp, %rbp
	.cfi_def_cfa_register %rbp
	subq	$32, %rsp
	movq	%rdi, -16(%rbp)
	movq	%rsi, -8(%rbp)
	movq	-16(%rbp), %rdi
	movq	-8(%rbp), %rsi
	callq	_ZSt18__do_alloc_on_moveISaIdEEvRT_S2_St17integral_constantIbLb1EE
	addq	$32, %rsp
	popq	%rbp
	.cfi_def_cfa %rsp, 8
	retq
.Lfunc_end138:
	.size	_ZSt15__alloc_on_moveISaIdEEvRT_S2_, .Lfunc_end138-_ZSt15__alloc_on_moveISaIdEEvRT_S2_
	.cfi_endproc
                                        # -- End function
	.section	.text._ZNKSt12_Vector_baseIdSaIdEE19_M_get_Tp_allocatorEv,"axG",@progbits,_ZNKSt12_Vector_baseIdSaIdEE19_M_get_Tp_allocatorEv,comdat
	.weak	_ZNKSt12_Vector_baseIdSaIdEE19_M_get_Tp_allocatorEv # -- Begin function _ZNKSt12_Vector_baseIdSaIdEE19_M_get_Tp_allocatorEv
	.p2align	4, 0x90
	.type	_ZNKSt12_Vector_baseIdSaIdEE19_M_get_Tp_allocatorEv,@function
_ZNKSt12_Vector_baseIdSaIdEE19_M_get_Tp_allocatorEv: # @_ZNKSt12_Vector_baseIdSaIdEE19_M_get_Tp_allocatorEv
	.cfi_startproc
# %bb.0:
	pushq	%rbp
	.cfi_def_cfa_offset 16
	.cfi_offset %rbp, -16
	movq	%rsp, %rbp
	.cfi_def_cfa_register %rbp
	movq	%rdi, -8(%rbp)
	movq	-8(%rbp), %rax
	popq	%rbp
	.cfi_def_cfa %rsp, 8
	retq
.Lfunc_end139:
	.size	_ZNKSt12_Vector_baseIdSaIdEE19_M_get_Tp_allocatorEv, .Lfunc_end139-_ZNKSt12_Vector_baseIdSaIdEE19_M_get_Tp_allocatorEv
	.cfi_endproc
                                        # -- End function
	.section	.text._ZNSt12_Vector_baseIdSaIdEEC2ERKS0_,"axG",@progbits,_ZNSt12_Vector_baseIdSaIdEEC2ERKS0_,comdat
	.weak	_ZNSt12_Vector_baseIdSaIdEEC2ERKS0_ # -- Begin function _ZNSt12_Vector_baseIdSaIdEEC2ERKS0_
	.p2align	4, 0x90
	.type	_ZNSt12_Vector_baseIdSaIdEEC2ERKS0_,@function
_ZNSt12_Vector_baseIdSaIdEEC2ERKS0_:    # @_ZNSt12_Vector_baseIdSaIdEEC2ERKS0_
	.cfi_startproc
# %bb.0:
	pushq	%rbp
	.cfi_def_cfa_offset 16
	.cfi_offset %rbp, -16
	movq	%rsp, %rbp
	.cfi_def_cfa_register %rbp
	subq	$16, %rsp
	movq	%rdi, -16(%rbp)
	movq	%rsi, -8(%rbp)
	movq	-16(%rbp), %rdi
	movq	-8(%rbp), %rsi
	callq	_ZNSt12_Vector_baseIdSaIdEE12_Vector_implC2ERKS0_
	addq	$16, %rsp
	popq	%rbp
	.cfi_def_cfa %rsp, 8
	retq
.Lfunc_end140:
	.size	_ZNSt12_Vector_baseIdSaIdEEC2ERKS0_, .Lfunc_end140-_ZNSt12_Vector_baseIdSaIdEEC2ERKS0_
	.cfi_endproc
                                        # -- End function
	.section	.text._ZNSt12_Vector_baseIdSaIdEE17_Vector_impl_dataC2Ev,"axG",@progbits,_ZNSt12_Vector_baseIdSaIdEE17_Vector_impl_dataC2Ev,comdat
	.weak	_ZNSt12_Vector_baseIdSaIdEE17_Vector_impl_dataC2Ev # -- Begin function _ZNSt12_Vector_baseIdSaIdEE17_Vector_impl_dataC2Ev
	.p2align	4, 0x90
	.type	_ZNSt12_Vector_baseIdSaIdEE17_Vector_impl_dataC2Ev,@function
_ZNSt12_Vector_baseIdSaIdEE17_Vector_impl_dataC2Ev: # @_ZNSt12_Vector_baseIdSaIdEE17_Vector_impl_dataC2Ev
	.cfi_startproc
# %bb.0:
	pushq	%rbp
	.cfi_def_cfa_offset 16
	.cfi_offset %rbp, -16
	movq	%rsp, %rbp
	.cfi_def_cfa_register %rbp
	movq	%rdi, -8(%rbp)
	movq	-8(%rbp), %rax
	movq	$0, (%rax)
	movq	$0, 8(%rax)
	movq	$0, 16(%rax)
	popq	%rbp
	.cfi_def_cfa %rsp, 8
	retq
.Lfunc_end141:
	.size	_ZNSt12_Vector_baseIdSaIdEE17_Vector_impl_dataC2Ev, .Lfunc_end141-_ZNSt12_Vector_baseIdSaIdEE17_Vector_impl_dataC2Ev
	.cfi_endproc
                                        # -- End function
	.section	.text._ZNSt12_Vector_baseIdSaIdEE17_Vector_impl_data12_M_copy_dataERKS2_,"axG",@progbits,_ZNSt12_Vector_baseIdSaIdEE17_Vector_impl_data12_M_copy_dataERKS2_,comdat
	.weak	_ZNSt12_Vector_baseIdSaIdEE17_Vector_impl_data12_M_copy_dataERKS2_ # -- Begin function _ZNSt12_Vector_baseIdSaIdEE17_Vector_impl_data12_M_copy_dataERKS2_
	.p2align	4, 0x90
	.type	_ZNSt12_Vector_baseIdSaIdEE17_Vector_impl_data12_M_copy_dataERKS2_,@function
_ZNSt12_Vector_baseIdSaIdEE17_Vector_impl_data12_M_copy_dataERKS2_: # @_ZNSt12_Vector_baseIdSaIdEE17_Vector_impl_data12_M_copy_dataERKS2_
	.cfi_startproc
# %bb.0:
	pushq	%rbp
	.cfi_def_cfa_offset 16
	.cfi_offset %rbp, -16
	movq	%rsp, %rbp
	.cfi_def_cfa_register %rbp
	movq	%rdi, -16(%rbp)
	movq	%rsi, -8(%rbp)
	movq	-16(%rbp), %rax
	movq	-8(%rbp), %rcx
	movq	(%rcx), %rcx
	movq	%rcx, (%rax)
	movq	-8(%rbp), %rcx
	movq	8(%rcx), %rcx
	movq	%rcx, 8(%rax)
	movq	-8(%rbp), %rcx
	movq	16(%rcx), %rcx
	movq	%rcx, 16(%rax)
	popq	%rbp
	.cfi_def_cfa %rsp, 8
	retq
.Lfunc_end142:
	.size	_ZNSt12_Vector_baseIdSaIdEE17_Vector_impl_data12_M_copy_dataERKS2_, .Lfunc_end142-_ZNSt12_Vector_baseIdSaIdEE17_Vector_impl_data12_M_copy_dataERKS2_
	.cfi_endproc
                                        # -- End function
	.section	.text._ZSt18__do_alloc_on_moveISaIdEEvRT_S2_St17integral_constantIbLb1EE,"axG",@progbits,_ZSt18__do_alloc_on_moveISaIdEEvRT_S2_St17integral_constantIbLb1EE,comdat
	.weak	_ZSt18__do_alloc_on_moveISaIdEEvRT_S2_St17integral_constantIbLb1EE # -- Begin function _ZSt18__do_alloc_on_moveISaIdEEvRT_S2_St17integral_constantIbLb1EE
	.p2align	4, 0x90
	.type	_ZSt18__do_alloc_on_moveISaIdEEvRT_S2_St17integral_constantIbLb1EE,@function
_ZSt18__do_alloc_on_moveISaIdEEvRT_S2_St17integral_constantIbLb1EE: # @_ZSt18__do_alloc_on_moveISaIdEEvRT_S2_St17integral_constantIbLb1EE
	.cfi_startproc
# %bb.0:
	pushq	%rbp
	.cfi_def_cfa_offset 16
	.cfi_offset %rbp, -16
	movq	%rsp, %rbp
	.cfi_def_cfa_register %rbp
	subq	$32, %rsp
	movq	%rdi, -16(%rbp)
	movq	%rsi, -8(%rbp)
	movq	-8(%rbp), %rdi
	callq	_ZSt4moveIRSaIdEEONSt16remove_referenceIT_E4typeEOS3_
	addq	$32, %rsp
	popq	%rbp
	.cfi_def_cfa %rsp, 8
	retq
.Lfunc_end143:
	.size	_ZSt18__do_alloc_on_moveISaIdEEvRT_S2_St17integral_constantIbLb1EE, .Lfunc_end143-_ZSt18__do_alloc_on_moveISaIdEEvRT_S2_St17integral_constantIbLb1EE
	.cfi_endproc
                                        # -- End function
	.section	.text._ZSt4moveIRSaIdEEONSt16remove_referenceIT_E4typeEOS3_,"axG",@progbits,_ZSt4moveIRSaIdEEONSt16remove_referenceIT_E4typeEOS3_,comdat
	.weak	_ZSt4moveIRSaIdEEONSt16remove_referenceIT_E4typeEOS3_ # -- Begin function _ZSt4moveIRSaIdEEONSt16remove_referenceIT_E4typeEOS3_
	.p2align	4, 0x90
	.type	_ZSt4moveIRSaIdEEONSt16remove_referenceIT_E4typeEOS3_,@function
_ZSt4moveIRSaIdEEONSt16remove_referenceIT_E4typeEOS3_: # @_ZSt4moveIRSaIdEEONSt16remove_referenceIT_E4typeEOS3_
	.cfi_startproc
# %bb.0:
	pushq	%rbp
	.cfi_def_cfa_offset 16
	.cfi_offset %rbp, -16
	movq	%rsp, %rbp
	.cfi_def_cfa_register %rbp
	movq	%rdi, -8(%rbp)
	movq	-8(%rbp), %rax
	popq	%rbp
	.cfi_def_cfa %rsp, 8
	retq
.Lfunc_end144:
	.size	_ZSt4moveIRSaIdEEONSt16remove_referenceIT_E4typeEOS3_, .Lfunc_end144-_ZSt4moveIRSaIdEEONSt16remove_referenceIT_E4typeEOS3_
	.cfi_endproc
                                        # -- End function
	.section	.text._ZNKSt6vectorIS_IdSaIdEESaIS1_EE8capacityEv,"axG",@progbits,_ZNKSt6vectorIS_IdSaIdEESaIS1_EE8capacityEv,comdat
	.weak	_ZNKSt6vectorIS_IdSaIdEESaIS1_EE8capacityEv # -- Begin function _ZNKSt6vectorIS_IdSaIdEESaIS1_EE8capacityEv
	.p2align	4, 0x90
	.type	_ZNKSt6vectorIS_IdSaIdEESaIS1_EE8capacityEv,@function
_ZNKSt6vectorIS_IdSaIdEESaIS1_EE8capacityEv: # @_ZNKSt6vectorIS_IdSaIdEESaIS1_EE8capacityEv
	.cfi_startproc
# %bb.0:
	pushq	%rbp
	.cfi_def_cfa_offset 16
	.cfi_offset %rbp, -16
	movq	%rsp, %rbp
	.cfi_def_cfa_register %rbp
	movq	%rdi, -8(%rbp)
	movq	-8(%rbp), %rcx
	movq	16(%rcx), %rax
	movq	(%rcx), %rcx
	subq	%rcx, %rax
	movl	$24, %ecx
	cqto
	idivq	%rcx
	popq	%rbp
	.cfi_def_cfa %rsp, 8
	retq
.Lfunc_end145:
	.size	_ZNKSt6vectorIS_IdSaIdEESaIS1_EE8capacityEv, .Lfunc_end145-_ZNKSt6vectorIS_IdSaIdEESaIS1_EE8capacityEv
	.cfi_endproc
                                        # -- End function
	.section	.text._ZNSt6vectorIS_IdSaIdEESaIS1_EE20_M_allocate_and_copyIN9__gnu_cxx17__normal_iteratorIPKS1_S3_EEEEPS1_mT_SB_,"axG",@progbits,_ZNSt6vectorIS_IdSaIdEESaIS1_EE20_M_allocate_and_copyIN9__gnu_cxx17__normal_iteratorIPKS1_S3_EEEEPS1_mT_SB_,comdat
	.weak	_ZNSt6vectorIS_IdSaIdEESaIS1_EE20_M_allocate_and_copyIN9__gnu_cxx17__normal_iteratorIPKS1_S3_EEEEPS1_mT_SB_ # -- Begin function _ZNSt6vectorIS_IdSaIdEESaIS1_EE20_M_allocate_and_copyIN9__gnu_cxx17__normal_iteratorIPKS1_S3_EEEEPS1_mT_SB_
	.p2align	4, 0x90
	.type	_ZNSt6vectorIS_IdSaIdEESaIS1_EE20_M_allocate_and_copyIN9__gnu_cxx17__normal_iteratorIPKS1_S3_EEEEPS1_mT_SB_,@function
_ZNSt6vectorIS_IdSaIdEESaIS1_EE20_M_allocate_and_copyIN9__gnu_cxx17__normal_iteratorIPKS1_S3_EEEEPS1_mT_SB_: # @_ZNSt6vectorIS_IdSaIdEESaIS1_EE20_M_allocate_and_copyIN9__gnu_cxx17__normal_iteratorIPKS1_S3_EEEEPS1_mT_SB_
.Lfunc_begin24:
	.cfi_startproc
	.cfi_personality 3, __gxx_personality_v0
	.cfi_lsda 3, .Lexception24
# %bb.0:
	pushq	%rbp
	.cfi_def_cfa_offset 16
	.cfi_offset %rbp, -16
	movq	%rsp, %rbp
	.cfi_def_cfa_register %rbp
	pushq	%r14
	pushq	%rbx
	subq	$80, %rsp
	.cfi_offset %rbx, -32
	.cfi_offset %r14, -24
	movq	%rdx, -88(%rbp)
	movq	%rcx, -80(%rbp)
	movq	%rdi, -72(%rbp)
	movq	%rsi, -48(%rbp)
	movq	-72(%rbp), %r14
	movq	-48(%rbp), %rsi
	movq	%r14, %rdi
	callq	_ZNSt12_Vector_baseISt6vectorIdSaIdEESaIS2_EE11_M_allocateEm
	movq	%rax, -32(%rbp)
	movq	-88(%rbp), %rax
	movq	%rax, -64(%rbp)
	movq	-80(%rbp), %rax
	movq	%rax, -56(%rbp)
	movq	-32(%rbp), %rbx
	movq	%r14, %rdi
	callq	_ZNSt12_Vector_baseISt6vectorIdSaIdEESaIS2_EE19_M_get_Tp_allocatorEv
	movq	-64(%rbp), %rdi
	movq	-56(%rbp), %rsi
.Ltmp158:
	movq	%rbx, %rdx
	movq	%rax, %rcx
	callq	_ZSt22__uninitialized_copy_aIN9__gnu_cxx17__normal_iteratorIPKSt6vectorIdSaIdEES2_IS4_SaIS4_EEEEPS4_S4_ET0_T_SC_SB_RSaIT1_E
.Ltmp159:
	jmp	.LBB146_1
.LBB146_1:
	movq	-32(%rbp), %rax
	addq	$80, %rsp
	popq	%rbx
	popq	%r14
	popq	%rbp
	.cfi_def_cfa %rsp, 8
	retq
.LBB146_2:
	.cfi_def_cfa %rbp, 16
.Ltmp160:
	movq	%rax, -24(%rbp)
	movl	%edx, -36(%rbp)
# %bb.3:
	movq	-24(%rbp), %rdi
	callq	__cxa_begin_catch@PLT
	movq	-32(%rbp), %rsi
	movq	-48(%rbp), %rdx
.Ltmp161:
	movq	%r14, %rdi
	callq	_ZNSt12_Vector_baseISt6vectorIdSaIdEESaIS2_EE13_M_deallocateEPS2_m
.Ltmp162:
	jmp	.LBB146_4
.LBB146_4:
.Ltmp163:
	callq	__cxa_rethrow@PLT
.Ltmp164:
	jmp	.LBB146_9
.LBB146_5:
.Ltmp165:
	movq	%rax, -24(%rbp)
	movl	%edx, -36(%rbp)
.Ltmp166:
	callq	__cxa_end_catch@PLT
.Ltmp167:
	jmp	.LBB146_6
.LBB146_6:
	jmp	.LBB146_7
.LBB146_7:
	movq	-24(%rbp), %rdi
	callq	_Unwind_Resume@PLT
.LBB146_8:
.Ltmp168:
                                        # kill: killed $rdx
	movq	%rax, %rdi
	callq	__clang_call_terminate
.LBB146_9:
.Lfunc_end146:
	.size	_ZNSt6vectorIS_IdSaIdEESaIS1_EE20_M_allocate_and_copyIN9__gnu_cxx17__normal_iteratorIPKS1_S3_EEEEPS1_mT_SB_, .Lfunc_end146-_ZNSt6vectorIS_IdSaIdEESaIS1_EE20_M_allocate_and_copyIN9__gnu_cxx17__normal_iteratorIPKS1_S3_EEEEPS1_mT_SB_
	.cfi_endproc
	.section	.gcc_except_table._ZNSt6vectorIS_IdSaIdEESaIS1_EE20_M_allocate_and_copyIN9__gnu_cxx17__normal_iteratorIPKS1_S3_EEEEPS1_mT_SB_,"aG",@progbits,_ZNSt6vectorIS_IdSaIdEESaIS1_EE20_M_allocate_and_copyIN9__gnu_cxx17__normal_iteratorIPKS1_S3_EEEEPS1_mT_SB_,comdat
	.p2align	2
GCC_except_table146:
.Lexception24:
	.byte	255                             # @LPStart Encoding = omit
	.byte	3                               # @TType Encoding = udata4
	.uleb128 .Lttbase9-.Lttbaseref9
.Lttbaseref9:
	.byte	1                               # Call site Encoding = uleb128
	.uleb128 .Lcst_end24-.Lcst_begin24
.Lcst_begin24:
	.uleb128 .Lfunc_begin24-.Lfunc_begin24  # >> Call Site 1 <<
	.uleb128 .Ltmp158-.Lfunc_begin24        #   Call between .Lfunc_begin24 and .Ltmp158
	.byte	0                               #     has no landing pad
	.byte	0                               #   On action: cleanup
	.uleb128 .Ltmp158-.Lfunc_begin24        # >> Call Site 2 <<
	.uleb128 .Ltmp159-.Ltmp158              #   Call between .Ltmp158 and .Ltmp159
	.uleb128 .Ltmp160-.Lfunc_begin24        #     jumps to .Ltmp160
	.byte	1                               #   On action: 1
	.uleb128 .Ltmp159-.Lfunc_begin24        # >> Call Site 3 <<
	.uleb128 .Ltmp161-.Ltmp159              #   Call between .Ltmp159 and .Ltmp161
	.byte	0                               #     has no landing pad
	.byte	0                               #   On action: cleanup
	.uleb128 .Ltmp161-.Lfunc_begin24        # >> Call Site 4 <<
	.uleb128 .Ltmp164-.Ltmp161              #   Call between .Ltmp161 and .Ltmp164
	.uleb128 .Ltmp165-.Lfunc_begin24        #     jumps to .Ltmp165
	.byte	0                               #   On action: cleanup
	.uleb128 .Ltmp166-.Lfunc_begin24        # >> Call Site 5 <<
	.uleb128 .Ltmp167-.Ltmp166              #   Call between .Ltmp166 and .Ltmp167
	.uleb128 .Ltmp168-.Lfunc_begin24        #     jumps to .Ltmp168
	.byte	1                               #   On action: 1
	.uleb128 .Ltmp167-.Lfunc_begin24        # >> Call Site 6 <<
	.uleb128 .Lfunc_end146-.Ltmp167         #   Call between .Ltmp167 and .Lfunc_end146
	.byte	0                               #     has no landing pad
	.byte	0                               #   On action: cleanup
.Lcst_end24:
	.byte	1                               # >> Action Record 1 <<
                                        #   Catch TypeInfo 1
	.byte	0                               #   No further actions
	.p2align	2
                                        # >> Catch TypeInfos <<
	.long	0                               # TypeInfo 1
.Lttbase9:
	.p2align	2
                                        # -- End function
	.section	.text._ZNKSt6vectorIS_IdSaIdEESaIS1_EE5beginEv,"axG",@progbits,_ZNKSt6vectorIS_IdSaIdEESaIS1_EE5beginEv,comdat
	.weak	_ZNKSt6vectorIS_IdSaIdEESaIS1_EE5beginEv # -- Begin function _ZNKSt6vectorIS_IdSaIdEESaIS1_EE5beginEv
	.p2align	4, 0x90
	.type	_ZNKSt6vectorIS_IdSaIdEESaIS1_EE5beginEv,@function
_ZNKSt6vectorIS_IdSaIdEESaIS1_EE5beginEv: # @_ZNKSt6vectorIS_IdSaIdEESaIS1_EE5beginEv
	.cfi_startproc
# %bb.0:
	pushq	%rbp
	.cfi_def_cfa_offset 16
	.cfi_offset %rbp, -16
	movq	%rsp, %rbp
	.cfi_def_cfa_register %rbp
	subq	$16, %rsp
	movq	%rdi, -8(%rbp)
	movq	-8(%rbp), %rsi
	leaq	-16(%rbp), %rdi
	callq	_ZN9__gnu_cxx17__normal_iteratorIPKSt6vectorIdSaIdEES1_IS3_SaIS3_EEEC2ERKS5_
	movq	-16(%rbp), %rax
	addq	$16, %rsp
	popq	%rbp
	.cfi_def_cfa %rsp, 8
	retq
.Lfunc_end147:
	.size	_ZNKSt6vectorIS_IdSaIdEESaIS1_EE5beginEv, .Lfunc_end147-_ZNKSt6vectorIS_IdSaIdEESaIS1_EE5beginEv
	.cfi_endproc
                                        # -- End function
	.section	.text._ZNKSt6vectorIS_IdSaIdEESaIS1_EE3endEv,"axG",@progbits,_ZNKSt6vectorIS_IdSaIdEESaIS1_EE3endEv,comdat
	.weak	_ZNKSt6vectorIS_IdSaIdEESaIS1_EE3endEv # -- Begin function _ZNKSt6vectorIS_IdSaIdEESaIS1_EE3endEv
	.p2align	4, 0x90
	.type	_ZNKSt6vectorIS_IdSaIdEESaIS1_EE3endEv,@function
_ZNKSt6vectorIS_IdSaIdEESaIS1_EE3endEv: # @_ZNKSt6vectorIS_IdSaIdEESaIS1_EE3endEv
	.cfi_startproc
# %bb.0:
	pushq	%rbp
	.cfi_def_cfa_offset 16
	.cfi_offset %rbp, -16
	movq	%rsp, %rbp
	.cfi_def_cfa_register %rbp
	subq	$16, %rsp
	movq	%rdi, -8(%rbp)
	movq	-8(%rbp), %rsi
	addq	$8, %rsi
	leaq	-16(%rbp), %rdi
	callq	_ZN9__gnu_cxx17__normal_iteratorIPKSt6vectorIdSaIdEES1_IS3_SaIS3_EEEC2ERKS5_
	movq	-16(%rbp), %rax
	addq	$16, %rsp
	popq	%rbp
	.cfi_def_cfa %rsp, 8
	retq
.Lfunc_end148:
	.size	_ZNKSt6vectorIS_IdSaIdEESaIS1_EE3endEv, .Lfunc_end148-_ZNKSt6vectorIS_IdSaIdEESaIS1_EE3endEv
	.cfi_endproc
                                        # -- End function
	.section	.text._ZSt8_DestroyIPSt6vectorIdSaIdEES2_EvT_S4_RSaIT0_E,"axG",@progbits,_ZSt8_DestroyIPSt6vectorIdSaIdEES2_EvT_S4_RSaIT0_E,comdat
	.weak	_ZSt8_DestroyIPSt6vectorIdSaIdEES2_EvT_S4_RSaIT0_E # -- Begin function _ZSt8_DestroyIPSt6vectorIdSaIdEES2_EvT_S4_RSaIT0_E
	.p2align	4, 0x90
	.type	_ZSt8_DestroyIPSt6vectorIdSaIdEES2_EvT_S4_RSaIT0_E,@function
_ZSt8_DestroyIPSt6vectorIdSaIdEES2_EvT_S4_RSaIT0_E: # @_ZSt8_DestroyIPSt6vectorIdSaIdEES2_EvT_S4_RSaIT0_E
	.cfi_startproc
# %bb.0:
	pushq	%rbp
	.cfi_def_cfa_offset 16
	.cfi_offset %rbp, -16
	movq	%rsp, %rbp
	.cfi_def_cfa_register %rbp
	subq	$32, %rsp
	movq	%rdi, -16(%rbp)
	movq	%rsi, -8(%rbp)
	movq	%rdx, -24(%rbp)
	movq	-16(%rbp), %rdi
	movq	-8(%rbp), %rsi
	callq	_ZSt8_DestroyIPSt6vectorIdSaIdEEEvT_S4_
	addq	$32, %rsp
	popq	%rbp
	.cfi_def_cfa %rsp, 8
	retq
.Lfunc_end149:
	.size	_ZSt8_DestroyIPSt6vectorIdSaIdEES2_EvT_S4_RSaIT0_E, .Lfunc_end149-_ZSt8_DestroyIPSt6vectorIdSaIdEES2_EvT_S4_RSaIT0_E
	.cfi_endproc
                                        # -- End function
