; ModuleID = 'source.cpp'
source_filename = "source.cpp"
target datalayout = "e-m:e-p270:32:32-p271:32:32-p272:64:64-i64:64-f80:128-n8:16:32:64-S128"
target triple = "x86_64-pc-linux-gnu"

%"class.std::ios_base::Init" = type { i8 }
%"class.std::basic_ostream" = type { i32 (...)**, %"class.std::basic_ios" }
%"class.std::basic_ios" = type { %"class.std::ios_base", %"class.std::basic_ostream"*, i8, i8, %"class.std::basic_streambuf"*, %"class.std::ctype"*, %"class.std::num_put"*, %"class.std::num_get"* }
%"class.std::ios_base" = type { i32 (...)**, i64, i64, i32, i32, i32, %"struct.std::ios_base::_Callback_list"*, %"struct.std::ios_base::_Words", [8 x %"struct.std::ios_base::_Words"], i32, %"struct.std::ios_base::_Words"*, %"class.std::locale" }
%"struct.std::ios_base::_Callback_list" = type { %"struct.std::ios_base::_Callback_list"*, void (i32, %"class.std::ios_base"*, i32)*, i32, i32 }
%"struct.std::ios_base::_Words" = type { i8*, i64 }
%"class.std::locale" = type { %"class.std::locale::_Impl"* }
%"class.std::locale::_Impl" = type { i32, %"class.std::locale::facet"**, i64, %"class.std::locale::facet"**, i8** }
%"class.std::locale::facet" = type <{ i32 (...)**, i32, [4 x i8] }>
%"class.std::basic_streambuf" = type { i32 (...)**, i8*, i8*, i8*, i8*, i8*, i8*, %"class.std::locale" }
%"class.std::ctype" = type <{ %"class.std::locale::facet.base", [4 x i8], %struct.__locale_struct*, i8, [7 x i8], i32*, i32*, i16*, i8, [256 x i8], [256 x i8], i8, [6 x i8] }>
%"class.std::locale::facet.base" = type <{ i32 (...)**, i32 }>
%struct.__locale_struct = type { [13 x %struct.__locale_data*], i16*, i32*, i32*, [13 x i8*] }
%struct.__locale_data = type opaque
%"class.std::num_put" = type { %"class.std::locale::facet.base", [4 x i8] }
%"class.std::num_get" = type { %"class.std::locale::facet.base", [4 x i8] }
%struct.DataPoint = type { double, double, i32 }
%"class.std::vector" = type { %"struct.std::_Vector_base" }
%"struct.std::_Vector_base" = type { %"struct.std::_Vector_base<DataPoint, std::allocator<DataPoint>>::_Vector_impl" }
%"struct.std::_Vector_base<DataPoint, std::allocator<DataPoint>>::_Vector_impl" = type { %"struct.std::_Vector_base<DataPoint, std::allocator<DataPoint>>::_Vector_impl_data" }
%"struct.std::_Vector_base<DataPoint, std::allocator<DataPoint>>::_Vector_impl_data" = type { %struct.DataPoint*, %struct.DataPoint*, %struct.DataPoint* }
%"class.std::vector.0" = type { %"struct.std::_Vector_base.1" }
%"struct.std::_Vector_base.1" = type { %"struct.std::_Vector_base<std::pair<double, int>, std::allocator<std::pair<double, int>>>::_Vector_impl" }
%"struct.std::_Vector_base<std::pair<double, int>, std::allocator<std::pair<double, int>>>::_Vector_impl" = type { %"struct.std::_Vector_base<std::pair<double, int>, std::allocator<std::pair<double, int>>>::_Vector_impl_data" }
%"struct.std::_Vector_base<std::pair<double, int>, std::allocator<std::pair<double, int>>>::_Vector_impl_data" = type { %"struct.std::pair"*, %"struct.std::pair"*, %"struct.std::pair"* }
%"struct.std::pair" = type <{ double, i32, [4 x i8] }>
%"class.__gnu_cxx::__normal_iterator" = type { %struct.DataPoint* }
%"class.__gnu_cxx::__normal_iterator.5" = type { %"struct.std::pair"* }
%"struct.__gnu_cxx::__ops::_Iter_less_iter" = type { i8 }
%"class.std::allocator.2" = type { i8 }
%"class.__gnu_cxx::__normal_iterator.6" = type { %struct.DataPoint* }
%"class.std::allocator" = type { i8 }
%"class.__gnu_cxx::new_allocator.3" = type { i8 }
%"class.std::__pair_base" = type { i8 }
%"class.__gnu_cxx::new_allocator" = type { i8 }
%"struct.std::integral_constant" = type { i8 }
%"struct.__gnu_cxx::__ops::_Iter_less_val" = type { i8 }
%"struct.__gnu_cxx::__ops::_Val_less_iter" = type { i8 }

$_ZNSt6vectorISt4pairIdiESaIS1_EEC2Ev = comdat any

$_ZNKSt6vectorI9DataPointSaIS0_EE5beginEv = comdat any

$_ZNKSt6vectorI9DataPointSaIS0_EE3endEv = comdat any

$_ZN9__gnu_cxxneIPK9DataPointSt6vectorIS1_SaIS1_EEEEbRKNS_17__normal_iteratorIT_T0_EESC_ = comdat any

$_ZNK9__gnu_cxx17__normal_iteratorIPK9DataPointSt6vectorIS1_SaIS1_EEEdeEv = comdat any

$_ZNSt6vectorISt4pairIdiESaIS1_EE9push_backEOS1_ = comdat any

$_ZSt9make_pairIRdRKiESt4pairINSt25__strip_reference_wrapperINSt5decayIT_E4typeEE6__typeENS4_INS5_IT0_E4typeEE6__typeEEOS6_OSB_ = comdat any

$_ZN9__gnu_cxx17__normal_iteratorIPK9DataPointSt6vectorIS1_SaIS1_EEEppEv = comdat any

$_ZSt4sortIN9__gnu_cxx17__normal_iteratorIPSt4pairIdiESt6vectorIS3_SaIS3_EEEEEvT_S9_ = comdat any

$_ZNSt6vectorISt4pairIdiESaIS1_EE5beginEv = comdat any

$_ZNSt6vectorISt4pairIdiESaIS1_EE3endEv = comdat any

$_ZNSt6vectorISt4pairIdiESaIS1_EEixEm = comdat any

$_ZNSt6vectorISt4pairIdiESaIS1_EED2Ev = comdat any

$_ZNSt6vectorI9DataPointSaIS0_EEC2Ev = comdat any

$_ZNSt6vectorI9DataPointSaIS0_EE9push_backERKS0_ = comdat any

$_ZNSt6vectorI9DataPointSaIS0_EED2Ev = comdat any

$_ZNSt12_Vector_baseISt4pairIdiESaIS1_EEC2Ev = comdat any

$_ZNSt12_Vector_baseISt4pairIdiESaIS1_EE12_Vector_implC2Ev = comdat any

$_ZNSaISt4pairIdiEEC2Ev = comdat any

$_ZNSt12_Vector_baseISt4pairIdiESaIS1_EE17_Vector_impl_dataC2Ev = comdat any

$_ZN9__gnu_cxx13new_allocatorISt4pairIdiEEC2Ev = comdat any

$_ZSt7forwardIRdEOT_RNSt16remove_referenceIS1_E4typeE = comdat any

$_ZSt7forwardIRKiEOT_RNSt16remove_referenceIS2_E4typeE = comdat any

$_ZNSt4pairIdiEC2IRdLb1EEEOT_RKi = comdat any

$_ZNSt12_Vector_baseI9DataPointSaIS0_EEC2Ev = comdat any

$_ZNSt12_Vector_baseI9DataPointSaIS0_EE12_Vector_implC2Ev = comdat any

$_ZNSaI9DataPointEC2Ev = comdat any

$_ZNSt12_Vector_baseI9DataPointSaIS0_EE17_Vector_impl_dataC2Ev = comdat any

$_ZN9__gnu_cxx13new_allocatorI9DataPointEC2Ev = comdat any

$_ZSt8_DestroyIPSt4pairIdiES1_EvT_S3_RSaIT0_E = comdat any

$_ZNSt12_Vector_baseISt4pairIdiESaIS1_EE19_M_get_Tp_allocatorEv = comdat any

$_ZNSt12_Vector_baseISt4pairIdiESaIS1_EED2Ev = comdat any

$__clang_call_terminate = comdat any

$_ZSt8_DestroyIPSt4pairIdiEEvT_S3_ = comdat any

$_ZNSt12_Destroy_auxILb1EE9__destroyIPSt4pairIdiEEEvT_S5_ = comdat any

$_ZNSt12_Vector_baseISt4pairIdiESaIS1_EE13_M_deallocateEPS1_m = comdat any

$_ZNSt12_Vector_baseISt4pairIdiESaIS1_EE12_Vector_implD2Ev = comdat any

$_ZNSt16allocator_traitsISaISt4pairIdiEEE10deallocateERS2_PS1_m = comdat any

$_ZN9__gnu_cxx13new_allocatorISt4pairIdiEE10deallocateEPS2_m = comdat any

$_ZNSaISt4pairIdiEED2Ev = comdat any

$_ZN9__gnu_cxx13new_allocatorISt4pairIdiEED2Ev = comdat any

$_ZN9__gnu_cxx17__normal_iteratorIPK9DataPointSt6vectorIS1_SaIS1_EEEC2ERKS3_ = comdat any

$_ZNK9__gnu_cxx17__normal_iteratorIPK9DataPointSt6vectorIS1_SaIS1_EEE4baseEv = comdat any

$_ZNSt6vectorISt4pairIdiESaIS1_EE12emplace_backIJS1_EEEvDpOT_ = comdat any

$_ZSt4moveIRSt4pairIdiEEONSt16remove_referenceIT_E4typeEOS4_ = comdat any

$_ZNSt16allocator_traitsISaISt4pairIdiEEE9constructIS1_JS1_EEEvRS2_PT_DpOT0_ = comdat any

$_ZSt7forwardISt4pairIdiEEOT_RNSt16remove_referenceIS2_E4typeE = comdat any

$_ZNSt6vectorISt4pairIdiESaIS1_EE17_M_realloc_insertIJS1_EEEvN9__gnu_cxx17__normal_iteratorIPS1_S3_EEDpOT_ = comdat any

$_ZN9__gnu_cxx13new_allocatorISt4pairIdiEE9constructIS2_JS2_EEEvPT_DpOT0_ = comdat any

$_ZNKSt6vectorISt4pairIdiESaIS1_EE12_M_check_lenEmPKc = comdat any

$_ZN9__gnu_cxxmiIPSt4pairIdiESt6vectorIS2_SaIS2_EEEENS_17__normal_iteratorIT_T0_E15difference_typeERKSA_SD_ = comdat any

$_ZNSt12_Vector_baseISt4pairIdiESaIS1_EE11_M_allocateEm = comdat any

$_ZNSt6vectorISt4pairIdiESaIS1_EE11_S_relocateEPS1_S4_S4_RS2_ = comdat any

$_ZNK9__gnu_cxx17__normal_iteratorIPSt4pairIdiESt6vectorIS2_SaIS2_EEE4baseEv = comdat any

$_ZNKSt6vectorISt4pairIdiESaIS1_EE8max_sizeEv = comdat any

$_ZNKSt6vectorISt4pairIdiESaIS1_EE4sizeEv = comdat any

$_ZSt3maxImERKT_S2_S2_ = comdat any

$_ZNSt6vectorISt4pairIdiESaIS1_EE11_S_max_sizeERKS2_ = comdat any

$_ZNKSt12_Vector_baseISt4pairIdiESaIS1_EE19_M_get_Tp_allocatorEv = comdat any

$_ZNSt16allocator_traitsISaISt4pairIdiEEE8max_sizeERKS2_ = comdat any

$_ZSt3minImERKT_S2_S2_ = comdat any

$_ZNK9__gnu_cxx13new_allocatorISt4pairIdiEE8max_sizeEv = comdat any

$_ZNK9__gnu_cxx13new_allocatorISt4pairIdiEE11_M_max_sizeEv = comdat any

$_ZNSt16allocator_traitsISaISt4pairIdiEEE8allocateERS2_m = comdat any

$_ZN9__gnu_cxx13new_allocatorISt4pairIdiEE8allocateEmPKv = comdat any

$_ZNSt6vectorISt4pairIdiESaIS1_EE14_S_do_relocateEPS1_S4_S4_RS2_St17integral_constantIbLb1EE = comdat any

$_ZSt12__relocate_aIPSt4pairIdiES2_SaIS1_EET0_T_S5_S4_RT1_ = comdat any

$_ZSt14__relocate_a_1IPSt4pairIdiES2_SaIS1_EET0_T_S5_S4_RT1_ = comdat any

$_ZSt12__niter_baseIPSt4pairIdiEET_S3_ = comdat any

$_ZSt19__relocate_object_aISt4pairIdiES1_SaIS1_EEvPT_PT0_RT1_ = comdat any

$_ZSt11__addressofISt4pairIdiEEPT_RS2_ = comdat any

$_ZNSt16allocator_traitsISaISt4pairIdiEEE7destroyIS1_EEvRS2_PT_ = comdat any

$_ZN9__gnu_cxx13new_allocatorISt4pairIdiEE7destroyIS2_EEvPT_ = comdat any

$_ZN9__gnu_cxx17__normal_iteratorIPSt4pairIdiESt6vectorIS2_SaIS2_EEEC2ERKS3_ = comdat any

$_ZSt6__sortIN9__gnu_cxx17__normal_iteratorIPSt4pairIdiESt6vectorIS3_SaIS3_EEEENS0_5__ops15_Iter_less_iterEEvT_SB_T0_ = comdat any

$_ZN9__gnu_cxx5__ops16__iter_less_iterEv = comdat any

$_ZN9__gnu_cxxneIPSt4pairIdiESt6vectorIS2_SaIS2_EEEEbRKNS_17__normal_iteratorIT_T0_EESC_ = comdat any

$_ZSt16__introsort_loopIN9__gnu_cxx17__normal_iteratorIPSt4pairIdiESt6vectorIS3_SaIS3_EEEElNS0_5__ops15_Iter_less_iterEEvT_SB_T0_T1_ = comdat any

$_ZSt4__lgl = comdat any

$_ZSt22__final_insertion_sortIN9__gnu_cxx17__normal_iteratorIPSt4pairIdiESt6vectorIS3_SaIS3_EEEENS0_5__ops15_Iter_less_iterEEvT_SB_T0_ = comdat any

$_ZSt14__partial_sortIN9__gnu_cxx17__normal_iteratorIPSt4pairIdiESt6vectorIS3_SaIS3_EEEENS0_5__ops15_Iter_less_iterEEvT_SB_SB_T0_ = comdat any

$_ZSt27__unguarded_partition_pivotIN9__gnu_cxx17__normal_iteratorIPSt4pairIdiESt6vectorIS3_SaIS3_EEEENS0_5__ops15_Iter_less_iterEET_SB_SB_T0_ = comdat any

$_ZSt13__heap_selectIN9__gnu_cxx17__normal_iteratorIPSt4pairIdiESt6vectorIS3_SaIS3_EEEENS0_5__ops15_Iter_less_iterEEvT_SB_SB_T0_ = comdat any

$_ZSt11__sort_heapIN9__gnu_cxx17__normal_iteratorIPSt4pairIdiESt6vectorIS3_SaIS3_EEEENS0_5__ops15_Iter_less_iterEEvT_SB_RT0_ = comdat any

$_ZSt11__make_heapIN9__gnu_cxx17__normal_iteratorIPSt4pairIdiESt6vectorIS3_SaIS3_EEEENS0_5__ops15_Iter_less_iterEEvT_SB_RT0_ = comdat any

$_ZN9__gnu_cxxltIPSt4pairIdiESt6vectorIS2_SaIS2_EEEEbRKNS_17__normal_iteratorIT_T0_EESC_ = comdat any

$_ZNK9__gnu_cxx5__ops15_Iter_less_iterclINS_17__normal_iteratorIPSt4pairIdiESt6vectorIS5_SaIS5_EEEESA_EEbT_T0_ = comdat any

$_ZSt10__pop_heapIN9__gnu_cxx17__normal_iteratorIPSt4pairIdiESt6vectorIS3_SaIS3_EEEENS0_5__ops15_Iter_less_iterEEvT_SB_SB_RT0_ = comdat any

$_ZN9__gnu_cxx17__normal_iteratorIPSt4pairIdiESt6vectorIS2_SaIS2_EEEppEv = comdat any

$_ZNK9__gnu_cxx17__normal_iteratorIPSt4pairIdiESt6vectorIS2_SaIS2_EEEplEl = comdat any

$_ZNK9__gnu_cxx17__normal_iteratorIPSt4pairIdiESt6vectorIS2_SaIS2_EEEdeEv = comdat any

$_ZSt13__adjust_heapIN9__gnu_cxx17__normal_iteratorIPSt4pairIdiESt6vectorIS3_SaIS3_EEEElS3_NS0_5__ops15_Iter_less_iterEEvT_T0_SC_T1_T2_ = comdat any

$_ZNSt4pairIdiEaSEOS0_ = comdat any

$_ZSt4moveIRN9__gnu_cxx5__ops15_Iter_less_iterEEONSt16remove_referenceIT_E4typeEOS5_ = comdat any

$_ZN9__gnu_cxx5__ops14_Iter_less_valC2ENS0_15_Iter_less_iterE = comdat any

$_ZSt11__push_heapIN9__gnu_cxx17__normal_iteratorIPSt4pairIdiESt6vectorIS3_SaIS3_EEEElS3_NS0_5__ops14_Iter_less_valEEvT_T0_SC_T1_RT2_ = comdat any

$_ZSt7forwardIdEOT_RNSt16remove_referenceIS0_E4typeE = comdat any

$_ZSt7forwardIiEOT_RNSt16remove_referenceIS0_E4typeE = comdat any

$_ZNK9__gnu_cxx5__ops14_Iter_less_valclINS_17__normal_iteratorIPSt4pairIdiESt6vectorIS5_SaIS5_EEEES5_EEbT_RT0_ = comdat any

$_ZStltIdiEbRKSt4pairIT_T0_ES5_ = comdat any

$_ZN9__gnu_cxx17__normal_iteratorIPSt4pairIdiESt6vectorIS2_SaIS2_EEEmmEv = comdat any

$_ZSt22__move_median_to_firstIN9__gnu_cxx17__normal_iteratorIPSt4pairIdiESt6vectorIS3_SaIS3_EEEENS0_5__ops15_Iter_less_iterEEvT_SB_SB_SB_T0_ = comdat any

$_ZNK9__gnu_cxx17__normal_iteratorIPSt4pairIdiESt6vectorIS2_SaIS2_EEEmiEl = comdat any

$_ZSt21__unguarded_partitionIN9__gnu_cxx17__normal_iteratorIPSt4pairIdiESt6vectorIS3_SaIS3_EEEENS0_5__ops15_Iter_less_iterEET_SB_SB_SB_T0_ = comdat any

$_ZSt9iter_swapIN9__gnu_cxx17__normal_iteratorIPSt4pairIdiESt6vectorIS3_SaIS3_EEEES8_EvT_T0_ = comdat any

$_ZSt4swapIdiENSt9enable_ifIXsr6__and_ISt14__is_swappableIT_ES1_IT0_EEE5valueEvE4typeERSt4pairIS2_S4_ESA_ = comdat any

$_ZNSt4pairIdiE4swapERS0_ = comdat any

$_ZSt4swapIdENSt9enable_ifIXsr6__and_ISt6__not_ISt15__is_tuple_likeIT_EESt21is_move_constructibleIS3_ESt18is_move_assignableIS3_EEE5valueEvE4typeERS3_SC_ = comdat any

$_ZSt4swapIiENSt9enable_ifIXsr6__and_ISt6__not_ISt15__is_tuple_likeIT_EESt21is_move_constructibleIS3_ESt18is_move_assignableIS3_EEE5valueEvE4typeERS3_SC_ = comdat any

$_ZSt4moveIRdEONSt16remove_referenceIT_E4typeEOS2_ = comdat any

$_ZSt4moveIRiEONSt16remove_referenceIT_E4typeEOS2_ = comdat any

$_ZSt16__insertion_sortIN9__gnu_cxx17__normal_iteratorIPSt4pairIdiESt6vectorIS3_SaIS3_EEEENS0_5__ops15_Iter_less_iterEEvT_SB_T0_ = comdat any

$_ZSt26__unguarded_insertion_sortIN9__gnu_cxx17__normal_iteratorIPSt4pairIdiESt6vectorIS3_SaIS3_EEEENS0_5__ops15_Iter_less_iterEEvT_SB_T0_ = comdat any

$_ZN9__gnu_cxxeqIPSt4pairIdiESt6vectorIS2_SaIS2_EEEEbRKNS_17__normal_iteratorIT_T0_EESC_ = comdat any

$_ZSt13move_backwardIN9__gnu_cxx17__normal_iteratorIPSt4pairIdiESt6vectorIS3_SaIS3_EEEES8_ET0_T_SA_S9_ = comdat any

$_ZSt25__unguarded_linear_insertIN9__gnu_cxx17__normal_iteratorIPSt4pairIdiESt6vectorIS3_SaIS3_EEEENS0_5__ops14_Val_less_iterEEvT_T0_ = comdat any

$_ZN9__gnu_cxx5__ops15__val_comp_iterENS0_15_Iter_less_iterE = comdat any

$_ZSt22__copy_move_backward_aILb1EN9__gnu_cxx17__normal_iteratorIPSt4pairIdiESt6vectorIS3_SaIS3_EEEES8_ET1_T0_SA_S9_ = comdat any

$_ZSt12__miter_baseIN9__gnu_cxx17__normal_iteratorIPSt4pairIdiESt6vectorIS3_SaIS3_EEEEET_S9_ = comdat any

$_ZSt12__niter_wrapIN9__gnu_cxx17__normal_iteratorIPSt4pairIdiESt6vectorIS3_SaIS3_EEEES4_ET_S9_T0_ = comdat any

$_ZSt23__copy_move_backward_a1ILb1EPSt4pairIdiES2_ET1_T0_S4_S3_ = comdat any

$_ZSt12__niter_baseIPSt4pairIdiESt6vectorIS1_SaIS1_EEET_N9__gnu_cxx17__normal_iteratorIS6_T0_EE = comdat any

$_ZSt23__copy_move_backward_a2ILb1EPSt4pairIdiES2_ET1_T0_S4_S3_ = comdat any

$_ZNSt20__copy_move_backwardILb1ELb0ESt26random_access_iterator_tagE13__copy_move_bIPSt4pairIdiES5_EET0_T_S7_S6_ = comdat any

$_ZNK9__gnu_cxx5__ops14_Val_less_iterclISt4pairIdiENS_17__normal_iteratorIPS4_St6vectorIS4_SaIS4_EEEEEEbRT_T0_ = comdat any

$_ZSt8_DestroyIP9DataPointS0_EvT_S2_RSaIT0_E = comdat any

$_ZNSt12_Vector_baseI9DataPointSaIS0_EE19_M_get_Tp_allocatorEv = comdat any

$_ZNSt12_Vector_baseI9DataPointSaIS0_EED2Ev = comdat any

$_ZSt8_DestroyIP9DataPointEvT_S2_ = comdat any

$_ZNSt12_Destroy_auxILb1EE9__destroyIP9DataPointEEvT_S4_ = comdat any

$_ZNSt12_Vector_baseI9DataPointSaIS0_EE13_M_deallocateEPS0_m = comdat any

$_ZNSt12_Vector_baseI9DataPointSaIS0_EE12_Vector_implD2Ev = comdat any

$_ZNSt16allocator_traitsISaI9DataPointEE10deallocateERS1_PS0_m = comdat any

$_ZN9__gnu_cxx13new_allocatorI9DataPointE10deallocateEPS1_m = comdat any

$_ZNSaI9DataPointED2Ev = comdat any

$_ZN9__gnu_cxx13new_allocatorI9DataPointED2Ev = comdat any

$_ZNSt16allocator_traitsISaI9DataPointEE9constructIS0_JRKS0_EEEvRS1_PT_DpOT0_ = comdat any

$_ZNSt6vectorI9DataPointSaIS0_EE17_M_realloc_insertIJRKS0_EEEvN9__gnu_cxx17__normal_iteratorIPS0_S2_EEDpOT_ = comdat any

$_ZNSt6vectorI9DataPointSaIS0_EE3endEv = comdat any

$_ZN9__gnu_cxx13new_allocatorI9DataPointE9constructIS1_JRKS1_EEEvPT_DpOT0_ = comdat any

$_ZSt7forwardIRK9DataPointEOT_RNSt16remove_referenceIS3_E4typeE = comdat any

$_ZNKSt6vectorI9DataPointSaIS0_EE12_M_check_lenEmPKc = comdat any

$_ZN9__gnu_cxxmiIP9DataPointSt6vectorIS1_SaIS1_EEEENS_17__normal_iteratorIT_T0_E15difference_typeERKS9_SC_ = comdat any

$_ZNSt6vectorI9DataPointSaIS0_EE5beginEv = comdat any

$_ZNSt12_Vector_baseI9DataPointSaIS0_EE11_M_allocateEm = comdat any

$_ZNSt6vectorI9DataPointSaIS0_EE11_S_relocateEPS0_S3_S3_RS1_ = comdat any

$_ZNK9__gnu_cxx17__normal_iteratorIP9DataPointSt6vectorIS1_SaIS1_EEE4baseEv = comdat any

$_ZNKSt6vectorI9DataPointSaIS0_EE8max_sizeEv = comdat any

$_ZNKSt6vectorI9DataPointSaIS0_EE4sizeEv = comdat any

$_ZNSt6vectorI9DataPointSaIS0_EE11_S_max_sizeERKS1_ = comdat any

$_ZNKSt12_Vector_baseI9DataPointSaIS0_EE19_M_get_Tp_allocatorEv = comdat any

$_ZNSt16allocator_traitsISaI9DataPointEE8max_sizeERKS1_ = comdat any

$_ZNK9__gnu_cxx13new_allocatorI9DataPointE8max_sizeEv = comdat any

$_ZNK9__gnu_cxx13new_allocatorI9DataPointE11_M_max_sizeEv = comdat any

$_ZN9__gnu_cxx17__normal_iteratorIP9DataPointSt6vectorIS1_SaIS1_EEEC2ERKS2_ = comdat any

$_ZNSt16allocator_traitsISaI9DataPointEE8allocateERS1_m = comdat any

$_ZN9__gnu_cxx13new_allocatorI9DataPointE8allocateEmPKv = comdat any

$_ZNSt6vectorI9DataPointSaIS0_EE14_S_do_relocateEPS0_S3_S3_RS1_St17integral_constantIbLb1EE = comdat any

$_ZSt12__relocate_aIP9DataPointS1_SaIS0_EET0_T_S4_S3_RT1_ = comdat any

$_ZSt14__relocate_a_1I9DataPointS0_ENSt9enable_ifIXsr3std24__is_bitwise_relocatableIT_EE5valueEPS2_E4typeES3_S3_S3_RSaIT0_E = comdat any

$_ZSt12__niter_baseIP9DataPointET_S2_ = comdat any

@_ZStL8__ioinit = internal global %"class.std::ios_base::Init" zeroinitializer, align 1
@__dso_handle = external hidden global i8
@_ZSt4cout = external global %"class.std::basic_ostream", align 8
@.str = private unnamed_addr constant [18 x i8] c"Predicted Label: \00", align 1
@.str.1 = private unnamed_addr constant [26 x i8] c"vector::_M_realloc_insert\00", align 1
@llvm.global_ctors = appending global [1 x { i32, void ()*, i8* }] [{ i32, void ()*, i8* } { i32 65535, void ()* @_GLOBAL__sub_I_source.cpp, i8* null }]

; Function Attrs: noinline uwtable
define internal void @__cxx_global_var_init() #0 section ".text.startup" {
  call void @_ZNSt8ios_base4InitC1Ev(%"class.std::ios_base::Init"* noundef nonnull align 1 dereferenceable(1) @_ZStL8__ioinit)
  %1 = call i32 @__cxa_atexit(void (i8*)* bitcast (void (%"class.std::ios_base::Init"*)* @_ZNSt8ios_base4InitD1Ev to void (i8*)*), i8* getelementptr inbounds (%"class.std::ios_base::Init", %"class.std::ios_base::Init"* @_ZStL8__ioinit, i32 0, i32 0), i8* @__dso_handle) #3
  ret void
}

declare void @_ZNSt8ios_base4InitC1Ev(%"class.std::ios_base::Init"* noundef nonnull align 1 dereferenceable(1)) unnamed_addr #1

; Function Attrs: nounwind
declare void @_ZNSt8ios_base4InitD1Ev(%"class.std::ios_base::Init"* noundef nonnull align 1 dereferenceable(1)) unnamed_addr #2

; Function Attrs: nounwind
declare i32 @__cxa_atexit(void (i8*)*, i8*, i8*) #3

; Function Attrs: mustprogress noinline nounwind optnone uwtable
define dso_local noundef double @_Z17calculateDistanceRK9DataPointS1_(%struct.DataPoint* noundef nonnull align 8 dereferenceable(24) %0, %struct.DataPoint* noundef nonnull align 8 dereferenceable(24) %1) #4 {
  %3 = alloca %struct.DataPoint*, align 8
  %4 = alloca %struct.DataPoint*, align 8
  %5 = alloca double, align 8
  %6 = alloca double, align 8
  store %struct.DataPoint* %0, %struct.DataPoint** %3, align 8
  store %struct.DataPoint* %1, %struct.DataPoint** %4, align 8
  %7 = load %struct.DataPoint*, %struct.DataPoint** %3, align 8
  %8 = getelementptr inbounds %struct.DataPoint, %struct.DataPoint* %7, i32 0, i32 0
  %9 = load double, double* %8, align 8
  %10 = load %struct.DataPoint*, %struct.DataPoint** %4, align 8
  %11 = getelementptr inbounds %struct.DataPoint, %struct.DataPoint* %10, i32 0, i32 0
  %12 = load double, double* %11, align 8
  %13 = fsub double %9, %12
  store double %13, double* %5, align 8
  %14 = load %struct.DataPoint*, %struct.DataPoint** %3, align 8
  %15 = getelementptr inbounds %struct.DataPoint, %struct.DataPoint* %14, i32 0, i32 1
  %16 = load double, double* %15, align 8
  %17 = load %struct.DataPoint*, %struct.DataPoint** %4, align 8
  %18 = getelementptr inbounds %struct.DataPoint, %struct.DataPoint* %17, i32 0, i32 1
  %19 = load double, double* %18, align 8
  %20 = fsub double %16, %19
  store double %20, double* %6, align 8
  %21 = load double, double* %5, align 8
  %22 = load double, double* %5, align 8
  %23 = load double, double* %6, align 8
  %24 = load double, double* %6, align 8
  %25 = fmul double %23, %24
  %26 = call double @llvm.fmuladd.f64(double %21, double %22, double %25)
  %27 = call double @sqrt(double noundef %26) #3
  ret double %27
}

; Function Attrs: nounwind
declare double @sqrt(double noundef) #2

; Function Attrs: nofree nosync nounwind readnone speculatable willreturn
declare double @llvm.fmuladd.f64(double, double, double) #5

; Function Attrs: mustprogress noinline optnone uwtable
define dso_local noundef i32 @_Z17kNearestNeighborsRKSt6vectorI9DataPointSaIS0_EERKS0_i(%"class.std::vector"* noundef nonnull align 8 dereferenceable(24) %0, %struct.DataPoint* noundef nonnull align 8 dereferenceable(24) %1, i32 noundef %2) #6 personality i8* bitcast (i32 (...)* @__gxx_personality_v0 to i8*) {
  %4 = alloca %"class.std::vector"*, align 8
  %5 = alloca %struct.DataPoint*, align 8
  %6 = alloca i32, align 4
  %7 = alloca %"class.std::vector.0", align 8
  %8 = alloca %"class.std::vector"*, align 8
  %9 = alloca %"class.__gnu_cxx::__normal_iterator", align 8
  %10 = alloca %"class.__gnu_cxx::__normal_iterator", align 8
  %11 = alloca %struct.DataPoint*, align 8
  %12 = alloca double, align 8
  %13 = alloca %"struct.std::pair", align 8
  %14 = alloca i8*, align 8
  %15 = alloca i32, align 4
  %16 = alloca %"class.__gnu_cxx::__normal_iterator.5", align 8
  %17 = alloca %"class.__gnu_cxx::__normal_iterator.5", align 8
  %18 = alloca [2 x i32], align 4
  %19 = alloca i32, align 4
  %20 = alloca i32, align 4
  store %"class.std::vector"* %0, %"class.std::vector"** %4, align 8
  store %struct.DataPoint* %1, %struct.DataPoint** %5, align 8
  store i32 %2, i32* %6, align 4
  call void @_ZNSt6vectorISt4pairIdiESaIS1_EEC2Ev(%"class.std::vector.0"* noundef nonnull align 8 dereferenceable(24) %7) #3
  %21 = load %"class.std::vector"*, %"class.std::vector"** %4, align 8
  store %"class.std::vector"* %21, %"class.std::vector"** %8, align 8
  %22 = load %"class.std::vector"*, %"class.std::vector"** %8, align 8
  %23 = call %struct.DataPoint* @_ZNKSt6vectorI9DataPointSaIS0_EE5beginEv(%"class.std::vector"* noundef nonnull align 8 dereferenceable(24) %22) #3
  %24 = getelementptr inbounds %"class.__gnu_cxx::__normal_iterator", %"class.__gnu_cxx::__normal_iterator"* %9, i32 0, i32 0
  store %struct.DataPoint* %23, %struct.DataPoint** %24, align 8
  %25 = load %"class.std::vector"*, %"class.std::vector"** %8, align 8
  %26 = call %struct.DataPoint* @_ZNKSt6vectorI9DataPointSaIS0_EE3endEv(%"class.std::vector"* noundef nonnull align 8 dereferenceable(24) %25) #3
  %27 = getelementptr inbounds %"class.__gnu_cxx::__normal_iterator", %"class.__gnu_cxx::__normal_iterator"* %10, i32 0, i32 0
  store %struct.DataPoint* %26, %struct.DataPoint** %27, align 8
  br label %28

28:                                               ; preds = %45, %3
  %29 = call noundef zeroext i1 @_ZN9__gnu_cxxneIPK9DataPointSt6vectorIS1_SaIS1_EEEEbRKNS_17__normal_iteratorIT_T0_EESC_(%"class.__gnu_cxx::__normal_iterator"* noundef nonnull align 8 dereferenceable(8) %9, %"class.__gnu_cxx::__normal_iterator"* noundef nonnull align 8 dereferenceable(8) %10) #3
  br i1 %29, label %30, label %51

30:                                               ; preds = %28
  %31 = call noundef nonnull align 8 dereferenceable(24) %struct.DataPoint* @_ZNK9__gnu_cxx17__normal_iteratorIPK9DataPointSt6vectorIS1_SaIS1_EEEdeEv(%"class.__gnu_cxx::__normal_iterator"* noundef nonnull align 8 dereferenceable(8) %9) #3
  store %struct.DataPoint* %31, %struct.DataPoint** %11, align 8
  %32 = load %struct.DataPoint*, %struct.DataPoint** %5, align 8
  %33 = load %struct.DataPoint*, %struct.DataPoint** %11, align 8
  %34 = call noundef double @_Z17calculateDistanceRK9DataPointS1_(%struct.DataPoint* noundef nonnull align 8 dereferenceable(24) %32, %struct.DataPoint* noundef nonnull align 8 dereferenceable(24) %33)
  store double %34, double* %12, align 8
  %35 = load %struct.DataPoint*, %struct.DataPoint** %11, align 8
  %36 = getelementptr inbounds %struct.DataPoint, %struct.DataPoint* %35, i32 0, i32 2
  %37 = invoke { double, i32 } @_ZSt9make_pairIRdRKiESt4pairINSt25__strip_reference_wrapperINSt5decayIT_E4typeEE6__typeENS4_INS5_IT0_E4typeEE6__typeEEOS6_OSB_(double* noundef nonnull align 8 dereferenceable(8) %12, i32* noundef nonnull align 4 dereferenceable(4) %36)
          to label %38 unwind label %47

38:                                               ; preds = %30
  %39 = bitcast %"struct.std::pair"* %13 to { double, i32 }*
  %40 = getelementptr inbounds { double, i32 }, { double, i32 }* %39, i32 0, i32 0
  %41 = extractvalue { double, i32 } %37, 0
  store double %41, double* %40, align 8
  %42 = getelementptr inbounds { double, i32 }, { double, i32 }* %39, i32 0, i32 1
  %43 = extractvalue { double, i32 } %37, 1
  store i32 %43, i32* %42, align 8
  invoke void @_ZNSt6vectorISt4pairIdiESaIS1_EE9push_backEOS1_(%"class.std::vector.0"* noundef nonnull align 8 dereferenceable(24) %7, %"struct.std::pair"* noundef nonnull align 8 dereferenceable(12) %13)
          to label %44 unwind label %47

44:                                               ; preds = %38
  br label %45

45:                                               ; preds = %44
  %46 = call noundef nonnull align 8 dereferenceable(8) %"class.__gnu_cxx::__normal_iterator"* @_ZN9__gnu_cxx17__normal_iteratorIPK9DataPointSt6vectorIS1_SaIS1_EEEppEv(%"class.__gnu_cxx::__normal_iterator"* noundef nonnull align 8 dereferenceable(8) %9) #3
  br label %28

47:                                               ; preds = %51, %38, %30
  %48 = landingpad { i8*, i32 }
          cleanup
  %49 = extractvalue { i8*, i32 } %48, 0
  store i8* %49, i8** %14, align 8
  %50 = extractvalue { i8*, i32 } %48, 1
  store i32 %50, i32* %15, align 4
  call void @_ZNSt6vectorISt4pairIdiESaIS1_EED2Ev(%"class.std::vector.0"* noundef nonnull align 8 dereferenceable(24) %7) #3
  br label %88

51:                                               ; preds = %28
  %52 = call %"struct.std::pair"* @_ZNSt6vectorISt4pairIdiESaIS1_EE5beginEv(%"class.std::vector.0"* noundef nonnull align 8 dereferenceable(24) %7) #3
  %53 = getelementptr inbounds %"class.__gnu_cxx::__normal_iterator.5", %"class.__gnu_cxx::__normal_iterator.5"* %16, i32 0, i32 0
  store %"struct.std::pair"* %52, %"struct.std::pair"** %53, align 8
  %54 = call %"struct.std::pair"* @_ZNSt6vectorISt4pairIdiESaIS1_EE3endEv(%"class.std::vector.0"* noundef nonnull align 8 dereferenceable(24) %7) #3
  %55 = getelementptr inbounds %"class.__gnu_cxx::__normal_iterator.5", %"class.__gnu_cxx::__normal_iterator.5"* %17, i32 0, i32 0
  store %"struct.std::pair"* %54, %"struct.std::pair"** %55, align 8
  %56 = getelementptr inbounds %"class.__gnu_cxx::__normal_iterator.5", %"class.__gnu_cxx::__normal_iterator.5"* %16, i32 0, i32 0
  %57 = load %"struct.std::pair"*, %"struct.std::pair"** %56, align 8
  %58 = getelementptr inbounds %"class.__gnu_cxx::__normal_iterator.5", %"class.__gnu_cxx::__normal_iterator.5"* %17, i32 0, i32 0
  %59 = load %"struct.std::pair"*, %"struct.std::pair"** %58, align 8
  invoke void @_ZSt4sortIN9__gnu_cxx17__normal_iteratorIPSt4pairIdiESt6vectorIS3_SaIS3_EEEEEvT_S9_(%"struct.std::pair"* %57, %"struct.std::pair"* %59)
          to label %60 unwind label %47

60:                                               ; preds = %51
  %61 = bitcast [2 x i32]* %18 to i8*
  call void @llvm.memset.p0i8.i64(i8* align 4 %61, i8 0, i64 8, i1 false)
  store i32 0, i32* %19, align 4
  br label %62

62:                                               ; preds = %77, %60
  %63 = load i32, i32* %19, align 4
  %64 = load i32, i32* %6, align 4
  %65 = icmp slt i32 %63, %64
  br i1 %65, label %66, label %80

66:                                               ; preds = %62
  %67 = load i32, i32* %19, align 4
  %68 = sext i32 %67 to i64
  %69 = call noundef nonnull align 8 dereferenceable(12) %"struct.std::pair"* @_ZNSt6vectorISt4pairIdiESaIS1_EEixEm(%"class.std::vector.0"* noundef nonnull align 8 dereferenceable(24) %7, i64 noundef %68) #3
  %70 = getelementptr inbounds %"struct.std::pair", %"struct.std::pair"* %69, i32 0, i32 1
  %71 = load i32, i32* %70, align 8
  store i32 %71, i32* %20, align 4
  %72 = load i32, i32* %20, align 4
  %73 = sext i32 %72 to i64
  %74 = getelementptr inbounds [2 x i32], [2 x i32]* %18, i64 0, i64 %73
  %75 = load i32, i32* %74, align 4
  %76 = add nsw i32 %75, 1
  store i32 %76, i32* %74, align 4
  br label %77

77:                                               ; preds = %66
  %78 = load i32, i32* %19, align 4
  %79 = add nsw i32 %78, 1
  store i32 %79, i32* %19, align 4
  br label %62, !llvm.loop !6

80:                                               ; preds = %62
  %81 = getelementptr inbounds [2 x i32], [2 x i32]* %18, i64 0, i64 0
  %82 = load i32, i32* %81, align 4
  %83 = getelementptr inbounds [2 x i32], [2 x i32]* %18, i64 0, i64 1
  %84 = load i32, i32* %83, align 4
  %85 = icmp sgt i32 %82, %84
  %86 = zext i1 %85 to i64
  %87 = select i1 %85, i32 0, i32 1
  call void @_ZNSt6vectorISt4pairIdiESaIS1_EED2Ev(%"class.std::vector.0"* noundef nonnull align 8 dereferenceable(24) %7) #3
  ret i32 %87

88:                                               ; preds = %47
  %89 = load i8*, i8** %14, align 8
  %90 = load i32, i32* %15, align 4
  %91 = insertvalue { i8*, i32 } undef, i8* %89, 0
  %92 = insertvalue { i8*, i32 } %91, i32 %90, 1
  resume { i8*, i32 } %92
}

; Function Attrs: noinline nounwind optnone uwtable
define linkonce_odr dso_local void @_ZNSt6vectorISt4pairIdiESaIS1_EEC2Ev(%"class.std::vector.0"* noundef nonnull align 8 dereferenceable(24) %0) unnamed_addr #7 comdat align 2 {
  %2 = alloca %"class.std::vector.0"*, align 8
  store %"class.std::vector.0"* %0, %"class.std::vector.0"** %2, align 8
  %3 = load %"class.std::vector.0"*, %"class.std::vector.0"** %2, align 8
  %4 = bitcast %"class.std::vector.0"* %3 to %"struct.std::_Vector_base.1"*
  call void @_ZNSt12_Vector_baseISt4pairIdiESaIS1_EEC2Ev(%"struct.std::_Vector_base.1"* noundef nonnull align 8 dereferenceable(24) %4) #3
  ret void
}

; Function Attrs: mustprogress noinline nounwind optnone uwtable
define linkonce_odr dso_local %struct.DataPoint* @_ZNKSt6vectorI9DataPointSaIS0_EE5beginEv(%"class.std::vector"* noundef nonnull align 8 dereferenceable(24) %0) #4 comdat align 2 {
  %2 = alloca %"class.__gnu_cxx::__normal_iterator", align 8
  %3 = alloca %"class.std::vector"*, align 8
  store %"class.std::vector"* %0, %"class.std::vector"** %3, align 8
  %4 = load %"class.std::vector"*, %"class.std::vector"** %3, align 8
  %5 = bitcast %"class.std::vector"* %4 to %"struct.std::_Vector_base"*
  %6 = getelementptr inbounds %"struct.std::_Vector_base", %"struct.std::_Vector_base"* %5, i32 0, i32 0
  %7 = bitcast %"struct.std::_Vector_base<DataPoint, std::allocator<DataPoint>>::_Vector_impl"* %6 to %"struct.std::_Vector_base<DataPoint, std::allocator<DataPoint>>::_Vector_impl_data"*
  %8 = getelementptr inbounds %"struct.std::_Vector_base<DataPoint, std::allocator<DataPoint>>::_Vector_impl_data", %"struct.std::_Vector_base<DataPoint, std::allocator<DataPoint>>::_Vector_impl_data"* %7, i32 0, i32 0
  call void @_ZN9__gnu_cxx17__normal_iteratorIPK9DataPointSt6vectorIS1_SaIS1_EEEC2ERKS3_(%"class.__gnu_cxx::__normal_iterator"* noundef nonnull align 8 dereferenceable(8) %2, %struct.DataPoint** noundef nonnull align 8 dereferenceable(8) %8) #3
  %9 = getelementptr inbounds %"class.__gnu_cxx::__normal_iterator", %"class.__gnu_cxx::__normal_iterator"* %2, i32 0, i32 0
  %10 = load %struct.DataPoint*, %struct.DataPoint** %9, align 8
  ret %struct.DataPoint* %10
}

; Function Attrs: mustprogress noinline nounwind optnone uwtable
define linkonce_odr dso_local %struct.DataPoint* @_ZNKSt6vectorI9DataPointSaIS0_EE3endEv(%"class.std::vector"* noundef nonnull align 8 dereferenceable(24) %0) #4 comdat align 2 {
  %2 = alloca %"class.__gnu_cxx::__normal_iterator", align 8
  %3 = alloca %"class.std::vector"*, align 8
  store %"class.std::vector"* %0, %"class.std::vector"** %3, align 8
  %4 = load %"class.std::vector"*, %"class.std::vector"** %3, align 8
  %5 = bitcast %"class.std::vector"* %4 to %"struct.std::_Vector_base"*
  %6 = getelementptr inbounds %"struct.std::_Vector_base", %"struct.std::_Vector_base"* %5, i32 0, i32 0
  %7 = bitcast %"struct.std::_Vector_base<DataPoint, std::allocator<DataPoint>>::_Vector_impl"* %6 to %"struct.std::_Vector_base<DataPoint, std::allocator<DataPoint>>::_Vector_impl_data"*
  %8 = getelementptr inbounds %"struct.std::_Vector_base<DataPoint, std::allocator<DataPoint>>::_Vector_impl_data", %"struct.std::_Vector_base<DataPoint, std::allocator<DataPoint>>::_Vector_impl_data"* %7, i32 0, i32 1
  call void @_ZN9__gnu_cxx17__normal_iteratorIPK9DataPointSt6vectorIS1_SaIS1_EEEC2ERKS3_(%"class.__gnu_cxx::__normal_iterator"* noundef nonnull align 8 dereferenceable(8) %2, %struct.DataPoint** noundef nonnull align 8 dereferenceable(8) %8) #3
  %9 = getelementptr inbounds %"class.__gnu_cxx::__normal_iterator", %"class.__gnu_cxx::__normal_iterator"* %2, i32 0, i32 0
  %10 = load %struct.DataPoint*, %struct.DataPoint** %9, align 8
  ret %struct.DataPoint* %10
}

; Function Attrs: mustprogress noinline nounwind optnone uwtable
define linkonce_odr dso_local noundef zeroext i1 @_ZN9__gnu_cxxneIPK9DataPointSt6vectorIS1_SaIS1_EEEEbRKNS_17__normal_iteratorIT_T0_EESC_(%"class.__gnu_cxx::__normal_iterator"* noundef nonnull align 8 dereferenceable(8) %0, %"class.__gnu_cxx::__normal_iterator"* noundef nonnull align 8 dereferenceable(8) %1) #4 comdat {
  %3 = alloca %"class.__gnu_cxx::__normal_iterator"*, align 8
  %4 = alloca %"class.__gnu_cxx::__normal_iterator"*, align 8
  store %"class.__gnu_cxx::__normal_iterator"* %0, %"class.__gnu_cxx::__normal_iterator"** %3, align 8
  store %"class.__gnu_cxx::__normal_iterator"* %1, %"class.__gnu_cxx::__normal_iterator"** %4, align 8
  %5 = load %"class.__gnu_cxx::__normal_iterator"*, %"class.__gnu_cxx::__normal_iterator"** %3, align 8
  %6 = call noundef nonnull align 8 dereferenceable(8) %struct.DataPoint** @_ZNK9__gnu_cxx17__normal_iteratorIPK9DataPointSt6vectorIS1_SaIS1_EEE4baseEv(%"class.__gnu_cxx::__normal_iterator"* noundef nonnull align 8 dereferenceable(8) %5) #3
  %7 = load %struct.DataPoint*, %struct.DataPoint** %6, align 8
  %8 = load %"class.__gnu_cxx::__normal_iterator"*, %"class.__gnu_cxx::__normal_iterator"** %4, align 8
  %9 = call noundef nonnull align 8 dereferenceable(8) %struct.DataPoint** @_ZNK9__gnu_cxx17__normal_iteratorIPK9DataPointSt6vectorIS1_SaIS1_EEE4baseEv(%"class.__gnu_cxx::__normal_iterator"* noundef nonnull align 8 dereferenceable(8) %8) #3
  %10 = load %struct.DataPoint*, %struct.DataPoint** %9, align 8
  %11 = icmp ne %struct.DataPoint* %7, %10
  ret i1 %11
}

; Function Attrs: mustprogress noinline nounwind optnone uwtable
define linkonce_odr dso_local noundef nonnull align 8 dereferenceable(24) %struct.DataPoint* @_ZNK9__gnu_cxx17__normal_iteratorIPK9DataPointSt6vectorIS1_SaIS1_EEEdeEv(%"class.__gnu_cxx::__normal_iterator"* noundef nonnull align 8 dereferenceable(8) %0) #4 comdat align 2 {
  %2 = alloca %"class.__gnu_cxx::__normal_iterator"*, align 8
  store %"class.__gnu_cxx::__normal_iterator"* %0, %"class.__gnu_cxx::__normal_iterator"** %2, align 8
  %3 = load %"class.__gnu_cxx::__normal_iterator"*, %"class.__gnu_cxx::__normal_iterator"** %2, align 8
  %4 = getelementptr inbounds %"class.__gnu_cxx::__normal_iterator", %"class.__gnu_cxx::__normal_iterator"* %3, i32 0, i32 0
  %5 = load %struct.DataPoint*, %struct.DataPoint** %4, align 8
  ret %struct.DataPoint* %5
}

; Function Attrs: mustprogress noinline optnone uwtable
define linkonce_odr dso_local void @_ZNSt6vectorISt4pairIdiESaIS1_EE9push_backEOS1_(%"class.std::vector.0"* noundef nonnull align 8 dereferenceable(24) %0, %"struct.std::pair"* noundef nonnull align 8 dereferenceable(12) %1) #6 comdat align 2 {
  %3 = alloca %"class.std::vector.0"*, align 8
  %4 = alloca %"struct.std::pair"*, align 8
  store %"class.std::vector.0"* %0, %"class.std::vector.0"** %3, align 8
  store %"struct.std::pair"* %1, %"struct.std::pair"** %4, align 8
  %5 = load %"class.std::vector.0"*, %"class.std::vector.0"** %3, align 8
  %6 = load %"struct.std::pair"*, %"struct.std::pair"** %4, align 8
  %7 = call noundef nonnull align 8 dereferenceable(12) %"struct.std::pair"* @_ZSt4moveIRSt4pairIdiEEONSt16remove_referenceIT_E4typeEOS4_(%"struct.std::pair"* noundef nonnull align 8 dereferenceable(12) %6) #3
  call void @_ZNSt6vectorISt4pairIdiESaIS1_EE12emplace_backIJS1_EEEvDpOT_(%"class.std::vector.0"* noundef nonnull align 8 dereferenceable(24) %5, %"struct.std::pair"* noundef nonnull align 8 dereferenceable(12) %7)
  ret void
}

; Function Attrs: mustprogress noinline optnone uwtable
define linkonce_odr dso_local { double, i32 } @_ZSt9make_pairIRdRKiESt4pairINSt25__strip_reference_wrapperINSt5decayIT_E4typeEE6__typeENS4_INS5_IT0_E4typeEE6__typeEEOS6_OSB_(double* noundef nonnull align 8 dereferenceable(8) %0, i32* noundef nonnull align 4 dereferenceable(4) %1) #6 comdat {
  %3 = alloca %"struct.std::pair", align 8
  %4 = alloca double*, align 8
  %5 = alloca i32*, align 8
  store double* %0, double** %4, align 8
  store i32* %1, i32** %5, align 8
  %6 = load double*, double** %4, align 8
  %7 = call noundef nonnull align 8 dereferenceable(8) double* @_ZSt7forwardIRdEOT_RNSt16remove_referenceIS1_E4typeE(double* noundef nonnull align 8 dereferenceable(8) %6) #3
  %8 = load i32*, i32** %5, align 8
  %9 = call noundef nonnull align 4 dereferenceable(4) i32* @_ZSt7forwardIRKiEOT_RNSt16remove_referenceIS2_E4typeE(i32* noundef nonnull align 4 dereferenceable(4) %8) #3
  call void @_ZNSt4pairIdiEC2IRdLb1EEEOT_RKi(%"struct.std::pair"* noundef nonnull align 8 dereferenceable(12) %3, double* noundef nonnull align 8 dereferenceable(8) %7, i32* noundef nonnull align 4 dereferenceable(4) %9)
  %10 = bitcast %"struct.std::pair"* %3 to { double, i32 }*
  %11 = load { double, i32 }, { double, i32 }* %10, align 8
  ret { double, i32 } %11
}

declare i32 @__gxx_personality_v0(...)

; Function Attrs: mustprogress noinline nounwind optnone uwtable
define linkonce_odr dso_local noundef nonnull align 8 dereferenceable(8) %"class.__gnu_cxx::__normal_iterator"* @_ZN9__gnu_cxx17__normal_iteratorIPK9DataPointSt6vectorIS1_SaIS1_EEEppEv(%"class.__gnu_cxx::__normal_iterator"* noundef nonnull align 8 dereferenceable(8) %0) #4 comdat align 2 {
  %2 = alloca %"class.__gnu_cxx::__normal_iterator"*, align 8
  store %"class.__gnu_cxx::__normal_iterator"* %0, %"class.__gnu_cxx::__normal_iterator"** %2, align 8
  %3 = load %"class.__gnu_cxx::__normal_iterator"*, %"class.__gnu_cxx::__normal_iterator"** %2, align 8
  %4 = getelementptr inbounds %"class.__gnu_cxx::__normal_iterator", %"class.__gnu_cxx::__normal_iterator"* %3, i32 0, i32 0
  %5 = load %struct.DataPoint*, %struct.DataPoint** %4, align 8
  %6 = getelementptr inbounds %struct.DataPoint, %struct.DataPoint* %5, i32 1
  store %struct.DataPoint* %6, %struct.DataPoint** %4, align 8
  ret %"class.__gnu_cxx::__normal_iterator"* %3
}

; Function Attrs: mustprogress noinline optnone uwtable
define linkonce_odr dso_local void @_ZSt4sortIN9__gnu_cxx17__normal_iteratorIPSt4pairIdiESt6vectorIS3_SaIS3_EEEEEvT_S9_(%"struct.std::pair"* %0, %"struct.std::pair"* %1) #6 comdat {
  %3 = alloca %"class.__gnu_cxx::__normal_iterator.5", align 8
  %4 = alloca %"class.__gnu_cxx::__normal_iterator.5", align 8
  %5 = alloca %"class.__gnu_cxx::__normal_iterator.5", align 8
  %6 = alloca %"class.__gnu_cxx::__normal_iterator.5", align 8
  %7 = alloca %"struct.__gnu_cxx::__ops::_Iter_less_iter", align 1
  %8 = alloca %"struct.__gnu_cxx::__ops::_Iter_less_iter", align 1
  %9 = getelementptr inbounds %"class.__gnu_cxx::__normal_iterator.5", %"class.__gnu_cxx::__normal_iterator.5"* %3, i32 0, i32 0
  store %"struct.std::pair"* %0, %"struct.std::pair"** %9, align 8
  %10 = getelementptr inbounds %"class.__gnu_cxx::__normal_iterator.5", %"class.__gnu_cxx::__normal_iterator.5"* %4, i32 0, i32 0
  store %"struct.std::pair"* %1, %"struct.std::pair"** %10, align 8
  %11 = bitcast %"class.__gnu_cxx::__normal_iterator.5"* %5 to i8*
  %12 = bitcast %"class.__gnu_cxx::__normal_iterator.5"* %3 to i8*
  call void @llvm.memcpy.p0i8.p0i8.i64(i8* align 8 %11, i8* align 8 %12, i64 8, i1 false)
  %13 = bitcast %"class.__gnu_cxx::__normal_iterator.5"* %6 to i8*
  %14 = bitcast %"class.__gnu_cxx::__normal_iterator.5"* %4 to i8*
  call void @llvm.memcpy.p0i8.p0i8.i64(i8* align 8 %13, i8* align 8 %14, i64 8, i1 false)
  call void @_ZN9__gnu_cxx5__ops16__iter_less_iterEv()
  %15 = getelementptr inbounds %"class.__gnu_cxx::__normal_iterator.5", %"class.__gnu_cxx::__normal_iterator.5"* %5, i32 0, i32 0
  %16 = load %"struct.std::pair"*, %"struct.std::pair"** %15, align 8
  %17 = getelementptr inbounds %"class.__gnu_cxx::__normal_iterator.5", %"class.__gnu_cxx::__normal_iterator.5"* %6, i32 0, i32 0
  %18 = load %"struct.std::pair"*, %"struct.std::pair"** %17, align 8
  call void @_ZSt6__sortIN9__gnu_cxx17__normal_iteratorIPSt4pairIdiESt6vectorIS3_SaIS3_EEEENS0_5__ops15_Iter_less_iterEEvT_SB_T0_(%"struct.std::pair"* %16, %"struct.std::pair"* %18)
  ret void
}

; Function Attrs: mustprogress noinline nounwind optnone uwtable
define linkonce_odr dso_local %"struct.std::pair"* @_ZNSt6vectorISt4pairIdiESaIS1_EE5beginEv(%"class.std::vector.0"* noundef nonnull align 8 dereferenceable(24) %0) #4 comdat align 2 {
  %2 = alloca %"class.__gnu_cxx::__normal_iterator.5", align 8
  %3 = alloca %"class.std::vector.0"*, align 8
  store %"class.std::vector.0"* %0, %"class.std::vector.0"** %3, align 8
  %4 = load %"class.std::vector.0"*, %"class.std::vector.0"** %3, align 8
  %5 = bitcast %"class.std::vector.0"* %4 to %"struct.std::_Vector_base.1"*
  %6 = getelementptr inbounds %"struct.std::_Vector_base.1", %"struct.std::_Vector_base.1"* %5, i32 0, i32 0
  %7 = bitcast %"struct.std::_Vector_base<std::pair<double, int>, std::allocator<std::pair<double, int>>>::_Vector_impl"* %6 to %"struct.std::_Vector_base<std::pair<double, int>, std::allocator<std::pair<double, int>>>::_Vector_impl_data"*
  %8 = getelementptr inbounds %"struct.std::_Vector_base<std::pair<double, int>, std::allocator<std::pair<double, int>>>::_Vector_impl_data", %"struct.std::_Vector_base<std::pair<double, int>, std::allocator<std::pair<double, int>>>::_Vector_impl_data"* %7, i32 0, i32 0
  call void @_ZN9__gnu_cxx17__normal_iteratorIPSt4pairIdiESt6vectorIS2_SaIS2_EEEC2ERKS3_(%"class.__gnu_cxx::__normal_iterator.5"* noundef nonnull align 8 dereferenceable(8) %2, %"struct.std::pair"** noundef nonnull align 8 dereferenceable(8) %8) #3
  %9 = getelementptr inbounds %"class.__gnu_cxx::__normal_iterator.5", %"class.__gnu_cxx::__normal_iterator.5"* %2, i32 0, i32 0
  %10 = load %"struct.std::pair"*, %"struct.std::pair"** %9, align 8
  ret %"struct.std::pair"* %10
}

; Function Attrs: mustprogress noinline nounwind optnone uwtable
define linkonce_odr dso_local %"struct.std::pair"* @_ZNSt6vectorISt4pairIdiESaIS1_EE3endEv(%"class.std::vector.0"* noundef nonnull align 8 dereferenceable(24) %0) #4 comdat align 2 {
  %2 = alloca %"class.__gnu_cxx::__normal_iterator.5", align 8
  %3 = alloca %"class.std::vector.0"*, align 8
  store %"class.std::vector.0"* %0, %"class.std::vector.0"** %3, align 8
  %4 = load %"class.std::vector.0"*, %"class.std::vector.0"** %3, align 8
  %5 = bitcast %"class.std::vector.0"* %4 to %"struct.std::_Vector_base.1"*
  %6 = getelementptr inbounds %"struct.std::_Vector_base.1", %"struct.std::_Vector_base.1"* %5, i32 0, i32 0
  %7 = bitcast %"struct.std::_Vector_base<std::pair<double, int>, std::allocator<std::pair<double, int>>>::_Vector_impl"* %6 to %"struct.std::_Vector_base<std::pair<double, int>, std::allocator<std::pair<double, int>>>::_Vector_impl_data"*
  %8 = getelementptr inbounds %"struct.std::_Vector_base<std::pair<double, int>, std::allocator<std::pair<double, int>>>::_Vector_impl_data", %"struct.std::_Vector_base<std::pair<double, int>, std::allocator<std::pair<double, int>>>::_Vector_impl_data"* %7, i32 0, i32 1
  call void @_ZN9__gnu_cxx17__normal_iteratorIPSt4pairIdiESt6vectorIS2_SaIS2_EEEC2ERKS3_(%"class.__gnu_cxx::__normal_iterator.5"* noundef nonnull align 8 dereferenceable(8) %2, %"struct.std::pair"** noundef nonnull align 8 dereferenceable(8) %8) #3
  %9 = getelementptr inbounds %"class.__gnu_cxx::__normal_iterator.5", %"class.__gnu_cxx::__normal_iterator.5"* %2, i32 0, i32 0
  %10 = load %"struct.std::pair"*, %"struct.std::pair"** %9, align 8
  ret %"struct.std::pair"* %10
}

; Function Attrs: argmemonly nofree nounwind willreturn writeonly
declare void @llvm.memset.p0i8.i64(i8* nocapture writeonly, i8, i64, i1 immarg) #8

; Function Attrs: mustprogress noinline nounwind optnone uwtable
define linkonce_odr dso_local noundef nonnull align 8 dereferenceable(12) %"struct.std::pair"* @_ZNSt6vectorISt4pairIdiESaIS1_EEixEm(%"class.std::vector.0"* noundef nonnull align 8 dereferenceable(24) %0, i64 noundef %1) #4 comdat align 2 {
  %3 = alloca %"class.std::vector.0"*, align 8
  %4 = alloca i64, align 8
  store %"class.std::vector.0"* %0, %"class.std::vector.0"** %3, align 8
  store i64 %1, i64* %4, align 8
  %5 = load %"class.std::vector.0"*, %"class.std::vector.0"** %3, align 8
  %6 = bitcast %"class.std::vector.0"* %5 to %"struct.std::_Vector_base.1"*
  %7 = getelementptr inbounds %"struct.std::_Vector_base.1", %"struct.std::_Vector_base.1"* %6, i32 0, i32 0
  %8 = bitcast %"struct.std::_Vector_base<std::pair<double, int>, std::allocator<std::pair<double, int>>>::_Vector_impl"* %7 to %"struct.std::_Vector_base<std::pair<double, int>, std::allocator<std::pair<double, int>>>::_Vector_impl_data"*
  %9 = getelementptr inbounds %"struct.std::_Vector_base<std::pair<double, int>, std::allocator<std::pair<double, int>>>::_Vector_impl_data", %"struct.std::_Vector_base<std::pair<double, int>, std::allocator<std::pair<double, int>>>::_Vector_impl_data"* %8, i32 0, i32 0
  %10 = load %"struct.std::pair"*, %"struct.std::pair"** %9, align 8
  %11 = load i64, i64* %4, align 8
  %12 = getelementptr inbounds %"struct.std::pair", %"struct.std::pair"* %10, i64 %11
  ret %"struct.std::pair"* %12
}

; Function Attrs: noinline nounwind optnone uwtable
define linkonce_odr dso_local void @_ZNSt6vectorISt4pairIdiESaIS1_EED2Ev(%"class.std::vector.0"* noundef nonnull align 8 dereferenceable(24) %0) unnamed_addr #7 comdat align 2 personality i8* bitcast (i32 (...)* @__gxx_personality_v0 to i8*) {
  %2 = alloca %"class.std::vector.0"*, align 8
  %3 = alloca i8*, align 8
  %4 = alloca i32, align 4
  store %"class.std::vector.0"* %0, %"class.std::vector.0"** %2, align 8
  %5 = load %"class.std::vector.0"*, %"class.std::vector.0"** %2, align 8
  %6 = bitcast %"class.std::vector.0"* %5 to %"struct.std::_Vector_base.1"*
  %7 = getelementptr inbounds %"struct.std::_Vector_base.1", %"struct.std::_Vector_base.1"* %6, i32 0, i32 0
  %8 = bitcast %"struct.std::_Vector_base<std::pair<double, int>, std::allocator<std::pair<double, int>>>::_Vector_impl"* %7 to %"struct.std::_Vector_base<std::pair<double, int>, std::allocator<std::pair<double, int>>>::_Vector_impl_data"*
  %9 = getelementptr inbounds %"struct.std::_Vector_base<std::pair<double, int>, std::allocator<std::pair<double, int>>>::_Vector_impl_data", %"struct.std::_Vector_base<std::pair<double, int>, std::allocator<std::pair<double, int>>>::_Vector_impl_data"* %8, i32 0, i32 0
  %10 = load %"struct.std::pair"*, %"struct.std::pair"** %9, align 8
  %11 = bitcast %"class.std::vector.0"* %5 to %"struct.std::_Vector_base.1"*
  %12 = getelementptr inbounds %"struct.std::_Vector_base.1", %"struct.std::_Vector_base.1"* %11, i32 0, i32 0
  %13 = bitcast %"struct.std::_Vector_base<std::pair<double, int>, std::allocator<std::pair<double, int>>>::_Vector_impl"* %12 to %"struct.std::_Vector_base<std::pair<double, int>, std::allocator<std::pair<double, int>>>::_Vector_impl_data"*
  %14 = getelementptr inbounds %"struct.std::_Vector_base<std::pair<double, int>, std::allocator<std::pair<double, int>>>::_Vector_impl_data", %"struct.std::_Vector_base<std::pair<double, int>, std::allocator<std::pair<double, int>>>::_Vector_impl_data"* %13, i32 0, i32 1
  %15 = load %"struct.std::pair"*, %"struct.std::pair"** %14, align 8
  %16 = bitcast %"class.std::vector.0"* %5 to %"struct.std::_Vector_base.1"*
  %17 = call noundef nonnull align 1 dereferenceable(1) %"class.std::allocator.2"* @_ZNSt12_Vector_baseISt4pairIdiESaIS1_EE19_M_get_Tp_allocatorEv(%"struct.std::_Vector_base.1"* noundef nonnull align 8 dereferenceable(24) %16) #3
  invoke void @_ZSt8_DestroyIPSt4pairIdiES1_EvT_S3_RSaIT0_E(%"struct.std::pair"* noundef %10, %"struct.std::pair"* noundef %15, %"class.std::allocator.2"* noundef nonnull align 1 dereferenceable(1) %17)
          to label %18 unwind label %20

18:                                               ; preds = %1
  %19 = bitcast %"class.std::vector.0"* %5 to %"struct.std::_Vector_base.1"*
  call void @_ZNSt12_Vector_baseISt4pairIdiESaIS1_EED2Ev(%"struct.std::_Vector_base.1"* noundef nonnull align 8 dereferenceable(24) %19) #3
  ret void

20:                                               ; preds = %1
  %21 = landingpad { i8*, i32 }
          catch i8* null
  %22 = extractvalue { i8*, i32 } %21, 0
  store i8* %22, i8** %3, align 8
  %23 = extractvalue { i8*, i32 } %21, 1
  store i32 %23, i32* %4, align 4
  %24 = bitcast %"class.std::vector.0"* %5 to %"struct.std::_Vector_base.1"*
  call void @_ZNSt12_Vector_baseISt4pairIdiESaIS1_EED2Ev(%"struct.std::_Vector_base.1"* noundef nonnull align 8 dereferenceable(24) %24) #3
  br label %25

25:                                               ; preds = %20
  %26 = load i8*, i8** %3, align 8
  call void @__clang_call_terminate(i8* %26) #15
  unreachable
}

; Function Attrs: mustprogress noinline norecurse optnone uwtable
define dso_local noundef i32 @main() #9 personality i8* bitcast (i32 (...)* @__gxx_personality_v0 to i8*) {
  %1 = alloca i32, align 4
  %2 = alloca %"class.std::vector", align 8
  %3 = alloca i32, align 4
  %4 = alloca %struct.DataPoint, align 8
  %5 = alloca i8*, align 8
  %6 = alloca i32, align 4
  %7 = alloca %struct.DataPoint, align 8
  %8 = alloca i32, align 4
  %9 = alloca i32, align 4
  store i32 0, i32* %1, align 4
  call void @_ZNSt6vectorI9DataPointSaIS0_EEC2Ev(%"class.std::vector"* noundef nonnull align 8 dereferenceable(24) %2) #3
  %10 = call i64 @time(i64* noundef null) #3
  %11 = trunc i64 %10 to i32
  call void @srand(i32 noundef %11) #3
  store i32 0, i32* %3, align 4
  br label %12

12:                                               ; preds = %28, %0
  %13 = load i32, i32* %3, align 4
  %14 = icmp slt i32 %13, 1000
  br i1 %14, label %15, label %35

15:                                               ; preds = %12
  %16 = call i32 @rand() #3
  %17 = sitofp i32 %16 to double
  %18 = fdiv double %17, 0x41DFFFFFFFC00000
  %19 = getelementptr inbounds %struct.DataPoint, %struct.DataPoint* %4, i32 0, i32 0
  store double %18, double* %19, align 8
  %20 = call i32 @rand() #3
  %21 = sitofp i32 %20 to double
  %22 = fdiv double %21, 0x41DFFFFFFFC00000
  %23 = getelementptr inbounds %struct.DataPoint, %struct.DataPoint* %4, i32 0, i32 1
  store double %22, double* %23, align 8
  %24 = call i32 @rand() #3
  %25 = srem i32 %24, 2
  %26 = getelementptr inbounds %struct.DataPoint, %struct.DataPoint* %4, i32 0, i32 2
  store i32 %25, i32* %26, align 8
  invoke void @_ZNSt6vectorI9DataPointSaIS0_EE9push_backERKS0_(%"class.std::vector"* noundef nonnull align 8 dereferenceable(24) %2, %struct.DataPoint* noundef nonnull align 8 dereferenceable(24) %4)
          to label %27 unwind label %31

27:                                               ; preds = %15
  br label %28

28:                                               ; preds = %27
  %29 = load i32, i32* %3, align 4
  %30 = add nsw i32 %29, 1
  store i32 %30, i32* %3, align 4
  br label %12, !llvm.loop !8

31:                                               ; preds = %45, %42, %40, %35, %15
  %32 = landingpad { i8*, i32 }
          cleanup
  %33 = extractvalue { i8*, i32 } %32, 0
  store i8* %33, i8** %5, align 8
  %34 = extractvalue { i8*, i32 } %32, 1
  store i32 %34, i32* %6, align 4
  call void @_ZNSt6vectorI9DataPointSaIS0_EED2Ev(%"class.std::vector"* noundef nonnull align 8 dereferenceable(24) %2) #3
  br label %49

35:                                               ; preds = %12
  %36 = getelementptr inbounds %struct.DataPoint, %struct.DataPoint* %7, i32 0, i32 0
  store double 5.000000e-01, double* %36, align 8
  %37 = getelementptr inbounds %struct.DataPoint, %struct.DataPoint* %7, i32 0, i32 1
  store double 5.000000e-01, double* %37, align 8
  store i32 5, i32* %8, align 4
  %38 = load i32, i32* %8, align 4
  %39 = invoke noundef i32 @_Z17kNearestNeighborsRKSt6vectorI9DataPointSaIS0_EERKS0_i(%"class.std::vector"* noundef nonnull align 8 dereferenceable(24) %2, %struct.DataPoint* noundef nonnull align 8 dereferenceable(24) %7, i32 noundef %38)
          to label %40 unwind label %31

40:                                               ; preds = %35
  store i32 %39, i32* %9, align 4
  %41 = invoke noundef nonnull align 8 dereferenceable(8) %"class.std::basic_ostream"* @_ZStlsISt11char_traitsIcEERSt13basic_ostreamIcT_ES5_PKc(%"class.std::basic_ostream"* noundef nonnull align 8 dereferenceable(8) @_ZSt4cout, i8* noundef getelementptr inbounds ([18 x i8], [18 x i8]* @.str, i64 0, i64 0))
          to label %42 unwind label %31

42:                                               ; preds = %40
  %43 = load i32, i32* %9, align 4
  %44 = invoke noundef nonnull align 8 dereferenceable(8) %"class.std::basic_ostream"* @_ZNSolsEi(%"class.std::basic_ostream"* noundef nonnull align 8 dereferenceable(8) %41, i32 noundef %43)
          to label %45 unwind label %31

45:                                               ; preds = %42
  %46 = invoke noundef nonnull align 8 dereferenceable(8) %"class.std::basic_ostream"* @_ZNSolsEPFRSoS_E(%"class.std::basic_ostream"* noundef nonnull align 8 dereferenceable(8) %44, %"class.std::basic_ostream"* (%"class.std::basic_ostream"*)* noundef @_ZSt4endlIcSt11char_traitsIcEERSt13basic_ostreamIT_T0_ES6_)
          to label %47 unwind label %31

47:                                               ; preds = %45
  store i32 0, i32* %1, align 4
  call void @_ZNSt6vectorI9DataPointSaIS0_EED2Ev(%"class.std::vector"* noundef nonnull align 8 dereferenceable(24) %2) #3
  %48 = load i32, i32* %1, align 4
  ret i32 %48

49:                                               ; preds = %31
  %50 = load i8*, i8** %5, align 8
  %51 = load i32, i32* %6, align 4
  %52 = insertvalue { i8*, i32 } undef, i8* %50, 0
  %53 = insertvalue { i8*, i32 } %52, i32 %51, 1
  resume { i8*, i32 } %53
}

; Function Attrs: noinline nounwind optnone uwtable
define linkonce_odr dso_local void @_ZNSt6vectorI9DataPointSaIS0_EEC2Ev(%"class.std::vector"* noundef nonnull align 8 dereferenceable(24) %0) unnamed_addr #7 comdat align 2 {
  %2 = alloca %"class.std::vector"*, align 8
  store %"class.std::vector"* %0, %"class.std::vector"** %2, align 8
  %3 = load %"class.std::vector"*, %"class.std::vector"** %2, align 8
  %4 = bitcast %"class.std::vector"* %3 to %"struct.std::_Vector_base"*
  call void @_ZNSt12_Vector_baseI9DataPointSaIS0_EEC2Ev(%"struct.std::_Vector_base"* noundef nonnull align 8 dereferenceable(24) %4) #3
  ret void
}

; Function Attrs: nounwind
declare void @srand(i32 noundef) #2

; Function Attrs: nounwind
declare i64 @time(i64* noundef) #2

; Function Attrs: nounwind
declare i32 @rand() #2

; Function Attrs: mustprogress noinline optnone uwtable
define linkonce_odr dso_local void @_ZNSt6vectorI9DataPointSaIS0_EE9push_backERKS0_(%"class.std::vector"* noundef nonnull align 8 dereferenceable(24) %0, %struct.DataPoint* noundef nonnull align 8 dereferenceable(24) %1) #6 comdat align 2 {
  %3 = alloca %"class.std::vector"*, align 8
  %4 = alloca %struct.DataPoint*, align 8
  %5 = alloca %"class.__gnu_cxx::__normal_iterator.6", align 8
  store %"class.std::vector"* %0, %"class.std::vector"** %3, align 8
  store %struct.DataPoint* %1, %struct.DataPoint** %4, align 8
  %6 = load %"class.std::vector"*, %"class.std::vector"** %3, align 8
  %7 = bitcast %"class.std::vector"* %6 to %"struct.std::_Vector_base"*
  %8 = getelementptr inbounds %"struct.std::_Vector_base", %"struct.std::_Vector_base"* %7, i32 0, i32 0
  %9 = bitcast %"struct.std::_Vector_base<DataPoint, std::allocator<DataPoint>>::_Vector_impl"* %8 to %"struct.std::_Vector_base<DataPoint, std::allocator<DataPoint>>::_Vector_impl_data"*
  %10 = getelementptr inbounds %"struct.std::_Vector_base<DataPoint, std::allocator<DataPoint>>::_Vector_impl_data", %"struct.std::_Vector_base<DataPoint, std::allocator<DataPoint>>::_Vector_impl_data"* %9, i32 0, i32 1
  %11 = load %struct.DataPoint*, %struct.DataPoint** %10, align 8
  %12 = bitcast %"class.std::vector"* %6 to %"struct.std::_Vector_base"*
  %13 = getelementptr inbounds %"struct.std::_Vector_base", %"struct.std::_Vector_base"* %12, i32 0, i32 0
  %14 = bitcast %"struct.std::_Vector_base<DataPoint, std::allocator<DataPoint>>::_Vector_impl"* %13 to %"struct.std::_Vector_base<DataPoint, std::allocator<DataPoint>>::_Vector_impl_data"*
  %15 = getelementptr inbounds %"struct.std::_Vector_base<DataPoint, std::allocator<DataPoint>>::_Vector_impl_data", %"struct.std::_Vector_base<DataPoint, std::allocator<DataPoint>>::_Vector_impl_data"* %14, i32 0, i32 2
  %16 = load %struct.DataPoint*, %struct.DataPoint** %15, align 8
  %17 = icmp ne %struct.DataPoint* %11, %16
  br i1 %17, label %18, label %34

18:                                               ; preds = %2
  %19 = bitcast %"class.std::vector"* %6 to %"struct.std::_Vector_base"*
  %20 = getelementptr inbounds %"struct.std::_Vector_base", %"struct.std::_Vector_base"* %19, i32 0, i32 0
  %21 = bitcast %"struct.std::_Vector_base<DataPoint, std::allocator<DataPoint>>::_Vector_impl"* %20 to %"class.std::allocator"*
  %22 = bitcast %"class.std::vector"* %6 to %"struct.std::_Vector_base"*
  %23 = getelementptr inbounds %"struct.std::_Vector_base", %"struct.std::_Vector_base"* %22, i32 0, i32 0
  %24 = bitcast %"struct.std::_Vector_base<DataPoint, std::allocator<DataPoint>>::_Vector_impl"* %23 to %"struct.std::_Vector_base<DataPoint, std::allocator<DataPoint>>::_Vector_impl_data"*
  %25 = getelementptr inbounds %"struct.std::_Vector_base<DataPoint, std::allocator<DataPoint>>::_Vector_impl_data", %"struct.std::_Vector_base<DataPoint, std::allocator<DataPoint>>::_Vector_impl_data"* %24, i32 0, i32 1
  %26 = load %struct.DataPoint*, %struct.DataPoint** %25, align 8
  %27 = load %struct.DataPoint*, %struct.DataPoint** %4, align 8
  call void @_ZNSt16allocator_traitsISaI9DataPointEE9constructIS0_JRKS0_EEEvRS1_PT_DpOT0_(%"class.std::allocator"* noundef nonnull align 1 dereferenceable(1) %21, %struct.DataPoint* noundef %26, %struct.DataPoint* noundef nonnull align 8 dereferenceable(24) %27) #3
  %28 = bitcast %"class.std::vector"* %6 to %"struct.std::_Vector_base"*
  %29 = getelementptr inbounds %"struct.std::_Vector_base", %"struct.std::_Vector_base"* %28, i32 0, i32 0
  %30 = bitcast %"struct.std::_Vector_base<DataPoint, std::allocator<DataPoint>>::_Vector_impl"* %29 to %"struct.std::_Vector_base<DataPoint, std::allocator<DataPoint>>::_Vector_impl_data"*
  %31 = getelementptr inbounds %"struct.std::_Vector_base<DataPoint, std::allocator<DataPoint>>::_Vector_impl_data", %"struct.std::_Vector_base<DataPoint, std::allocator<DataPoint>>::_Vector_impl_data"* %30, i32 0, i32 1
  %32 = load %struct.DataPoint*, %struct.DataPoint** %31, align 8
  %33 = getelementptr inbounds %struct.DataPoint, %struct.DataPoint* %32, i32 1
  store %struct.DataPoint* %33, %struct.DataPoint** %31, align 8
  br label %40

34:                                               ; preds = %2
  %35 = call %struct.DataPoint* @_ZNSt6vectorI9DataPointSaIS0_EE3endEv(%"class.std::vector"* noundef nonnull align 8 dereferenceable(24) %6) #3
  %36 = getelementptr inbounds %"class.__gnu_cxx::__normal_iterator.6", %"class.__gnu_cxx::__normal_iterator.6"* %5, i32 0, i32 0
  store %struct.DataPoint* %35, %struct.DataPoint** %36, align 8
  %37 = load %struct.DataPoint*, %struct.DataPoint** %4, align 8
  %38 = getelementptr inbounds %"class.__gnu_cxx::__normal_iterator.6", %"class.__gnu_cxx::__normal_iterator.6"* %5, i32 0, i32 0
  %39 = load %struct.DataPoint*, %struct.DataPoint** %38, align 8
  call void @_ZNSt6vectorI9DataPointSaIS0_EE17_M_realloc_insertIJRKS0_EEEvN9__gnu_cxx17__normal_iteratorIPS0_S2_EEDpOT_(%"class.std::vector"* noundef nonnull align 8 dereferenceable(24) %6, %struct.DataPoint* %39, %struct.DataPoint* noundef nonnull align 8 dereferenceable(24) %37)
  br label %40

40:                                               ; preds = %34, %18
  ret void
}

declare noundef nonnull align 8 dereferenceable(8) %"class.std::basic_ostream"* @_ZStlsISt11char_traitsIcEERSt13basic_ostreamIcT_ES5_PKc(%"class.std::basic_ostream"* noundef nonnull align 8 dereferenceable(8), i8* noundef) #1

declare noundef nonnull align 8 dereferenceable(8) %"class.std::basic_ostream"* @_ZNSolsEi(%"class.std::basic_ostream"* noundef nonnull align 8 dereferenceable(8), i32 noundef) #1

declare noundef nonnull align 8 dereferenceable(8) %"class.std::basic_ostream"* @_ZNSolsEPFRSoS_E(%"class.std::basic_ostream"* noundef nonnull align 8 dereferenceable(8), %"class.std::basic_ostream"* (%"class.std::basic_ostream"*)* noundef) #1

declare noundef nonnull align 8 dereferenceable(8) %"class.std::basic_ostream"* @_ZSt4endlIcSt11char_traitsIcEERSt13basic_ostreamIT_T0_ES6_(%"class.std::basic_ostream"* noundef nonnull align 8 dereferenceable(8)) #1

; Function Attrs: noinline nounwind optnone uwtable
define linkonce_odr dso_local void @_ZNSt6vectorI9DataPointSaIS0_EED2Ev(%"class.std::vector"* noundef nonnull align 8 dereferenceable(24) %0) unnamed_addr #7 comdat align 2 personality i8* bitcast (i32 (...)* @__gxx_personality_v0 to i8*) {
  %2 = alloca %"class.std::vector"*, align 8
  %3 = alloca i8*, align 8
  %4 = alloca i32, align 4
  store %"class.std::vector"* %0, %"class.std::vector"** %2, align 8
  %5 = load %"class.std::vector"*, %"class.std::vector"** %2, align 8
  %6 = bitcast %"class.std::vector"* %5 to %"struct.std::_Vector_base"*
  %7 = getelementptr inbounds %"struct.std::_Vector_base", %"struct.std::_Vector_base"* %6, i32 0, i32 0
  %8 = bitcast %"struct.std::_Vector_base<DataPoint, std::allocator<DataPoint>>::_Vector_impl"* %7 to %"struct.std::_Vector_base<DataPoint, std::allocator<DataPoint>>::_Vector_impl_data"*
  %9 = getelementptr inbounds %"struct.std::_Vector_base<DataPoint, std::allocator<DataPoint>>::_Vector_impl_data", %"struct.std::_Vector_base<DataPoint, std::allocator<DataPoint>>::_Vector_impl_data"* %8, i32 0, i32 0
  %10 = load %struct.DataPoint*, %struct.DataPoint** %9, align 8
  %11 = bitcast %"class.std::vector"* %5 to %"struct.std::_Vector_base"*
  %12 = getelementptr inbounds %"struct.std::_Vector_base", %"struct.std::_Vector_base"* %11, i32 0, i32 0
  %13 = bitcast %"struct.std::_Vector_base<DataPoint, std::allocator<DataPoint>>::_Vector_impl"* %12 to %"struct.std::_Vector_base<DataPoint, std::allocator<DataPoint>>::_Vector_impl_data"*
  %14 = getelementptr inbounds %"struct.std::_Vector_base<DataPoint, std::allocator<DataPoint>>::_Vector_impl_data", %"struct.std::_Vector_base<DataPoint, std::allocator<DataPoint>>::_Vector_impl_data"* %13, i32 0, i32 1
  %15 = load %struct.DataPoint*, %struct.DataPoint** %14, align 8
  %16 = bitcast %"class.std::vector"* %5 to %"struct.std::_Vector_base"*
  %17 = call noundef nonnull align 1 dereferenceable(1) %"class.std::allocator"* @_ZNSt12_Vector_baseI9DataPointSaIS0_EE19_M_get_Tp_allocatorEv(%"struct.std::_Vector_base"* noundef nonnull align 8 dereferenceable(24) %16) #3
  invoke void @_ZSt8_DestroyIP9DataPointS0_EvT_S2_RSaIT0_E(%struct.DataPoint* noundef %10, %struct.DataPoint* noundef %15, %"class.std::allocator"* noundef nonnull align 1 dereferenceable(1) %17)
          to label %18 unwind label %20

18:                                               ; preds = %1
  %19 = bitcast %"class.std::vector"* %5 to %"struct.std::_Vector_base"*
  call void @_ZNSt12_Vector_baseI9DataPointSaIS0_EED2Ev(%"struct.std::_Vector_base"* noundef nonnull align 8 dereferenceable(24) %19) #3
  ret void

20:                                               ; preds = %1
  %21 = landingpad { i8*, i32 }
          catch i8* null
  %22 = extractvalue { i8*, i32 } %21, 0
  store i8* %22, i8** %3, align 8
  %23 = extractvalue { i8*, i32 } %21, 1
  store i32 %23, i32* %4, align 4
  %24 = bitcast %"class.std::vector"* %5 to %"struct.std::_Vector_base"*
  call void @_ZNSt12_Vector_baseI9DataPointSaIS0_EED2Ev(%"struct.std::_Vector_base"* noundef nonnull align 8 dereferenceable(24) %24) #3
  br label %25

25:                                               ; preds = %20
  %26 = load i8*, i8** %3, align 8
  call void @__clang_call_terminate(i8* %26) #15
  unreachable
}

; Function Attrs: noinline nounwind optnone uwtable
define linkonce_odr dso_local void @_ZNSt12_Vector_baseISt4pairIdiESaIS1_EEC2Ev(%"struct.std::_Vector_base.1"* noundef nonnull align 8 dereferenceable(24) %0) unnamed_addr #7 comdat align 2 {
  %2 = alloca %"struct.std::_Vector_base.1"*, align 8
  store %"struct.std::_Vector_base.1"* %0, %"struct.std::_Vector_base.1"** %2, align 8
  %3 = load %"struct.std::_Vector_base.1"*, %"struct.std::_Vector_base.1"** %2, align 8
  %4 = getelementptr inbounds %"struct.std::_Vector_base.1", %"struct.std::_Vector_base.1"* %3, i32 0, i32 0
  call void @_ZNSt12_Vector_baseISt4pairIdiESaIS1_EE12_Vector_implC2Ev(%"struct.std::_Vector_base<std::pair<double, int>, std::allocator<std::pair<double, int>>>::_Vector_impl"* noundef nonnull align 8 dereferenceable(24) %4) #3
  ret void
}

; Function Attrs: noinline nounwind optnone uwtable
define linkonce_odr dso_local void @_ZNSt12_Vector_baseISt4pairIdiESaIS1_EE12_Vector_implC2Ev(%"struct.std::_Vector_base<std::pair<double, int>, std::allocator<std::pair<double, int>>>::_Vector_impl"* noundef nonnull align 8 dereferenceable(24) %0) unnamed_addr #7 comdat align 2 {
  %2 = alloca %"struct.std::_Vector_base<std::pair<double, int>, std::allocator<std::pair<double, int>>>::_Vector_impl"*, align 8
  store %"struct.std::_Vector_base<std::pair<double, int>, std::allocator<std::pair<double, int>>>::_Vector_impl"* %0, %"struct.std::_Vector_base<std::pair<double, int>, std::allocator<std::pair<double, int>>>::_Vector_impl"** %2, align 8
  %3 = load %"struct.std::_Vector_base<std::pair<double, int>, std::allocator<std::pair<double, int>>>::_Vector_impl"*, %"struct.std::_Vector_base<std::pair<double, int>, std::allocator<std::pair<double, int>>>::_Vector_impl"** %2, align 8
  %4 = bitcast %"struct.std::_Vector_base<std::pair<double, int>, std::allocator<std::pair<double, int>>>::_Vector_impl"* %3 to %"class.std::allocator.2"*
  call void @_ZNSaISt4pairIdiEEC2Ev(%"class.std::allocator.2"* noundef nonnull align 1 dereferenceable(1) %4) #3
  %5 = bitcast %"struct.std::_Vector_base<std::pair<double, int>, std::allocator<std::pair<double, int>>>::_Vector_impl"* %3 to %"struct.std::_Vector_base<std::pair<double, int>, std::allocator<std::pair<double, int>>>::_Vector_impl_data"*
  call void @_ZNSt12_Vector_baseISt4pairIdiESaIS1_EE17_Vector_impl_dataC2Ev(%"struct.std::_Vector_base<std::pair<double, int>, std::allocator<std::pair<double, int>>>::_Vector_impl_data"* noundef nonnull align 8 dereferenceable(24) %5) #3
  ret void
}

; Function Attrs: noinline nounwind optnone uwtable
define linkonce_odr dso_local void @_ZNSaISt4pairIdiEEC2Ev(%"class.std::allocator.2"* noundef nonnull align 1 dereferenceable(1) %0) unnamed_addr #7 comdat align 2 {
  %2 = alloca %"class.std::allocator.2"*, align 8
  store %"class.std::allocator.2"* %0, %"class.std::allocator.2"** %2, align 8
  %3 = load %"class.std::allocator.2"*, %"class.std::allocator.2"** %2, align 8
  %4 = bitcast %"class.std::allocator.2"* %3 to %"class.__gnu_cxx::new_allocator.3"*
  call void @_ZN9__gnu_cxx13new_allocatorISt4pairIdiEEC2Ev(%"class.__gnu_cxx::new_allocator.3"* noundef nonnull align 1 dereferenceable(1) %4) #3
  ret void
}

; Function Attrs: noinline nounwind optnone uwtable
define linkonce_odr dso_local void @_ZNSt12_Vector_baseISt4pairIdiESaIS1_EE17_Vector_impl_dataC2Ev(%"struct.std::_Vector_base<std::pair<double, int>, std::allocator<std::pair<double, int>>>::_Vector_impl_data"* noundef nonnull align 8 dereferenceable(24) %0) unnamed_addr #7 comdat align 2 {
  %2 = alloca %"struct.std::_Vector_base<std::pair<double, int>, std::allocator<std::pair<double, int>>>::_Vector_impl_data"*, align 8
  store %"struct.std::_Vector_base<std::pair<double, int>, std::allocator<std::pair<double, int>>>::_Vector_impl_data"* %0, %"struct.std::_Vector_base<std::pair<double, int>, std::allocator<std::pair<double, int>>>::_Vector_impl_data"** %2, align 8
  %3 = load %"struct.std::_Vector_base<std::pair<double, int>, std::allocator<std::pair<double, int>>>::_Vector_impl_data"*, %"struct.std::_Vector_base<std::pair<double, int>, std::allocator<std::pair<double, int>>>::_Vector_impl_data"** %2, align 8
  %4 = getelementptr inbounds %"struct.std::_Vector_base<std::pair<double, int>, std::allocator<std::pair<double, int>>>::_Vector_impl_data", %"struct.std::_Vector_base<std::pair<double, int>, std::allocator<std::pair<double, int>>>::_Vector_impl_data"* %3, i32 0, i32 0
  store %"struct.std::pair"* null, %"struct.std::pair"** %4, align 8
  %5 = getelementptr inbounds %"struct.std::_Vector_base<std::pair<double, int>, std::allocator<std::pair<double, int>>>::_Vector_impl_data", %"struct.std::_Vector_base<std::pair<double, int>, std::allocator<std::pair<double, int>>>::_Vector_impl_data"* %3, i32 0, i32 1
  store %"struct.std::pair"* null, %"struct.std::pair"** %5, align 8
  %6 = getelementptr inbounds %"struct.std::_Vector_base<std::pair<double, int>, std::allocator<std::pair<double, int>>>::_Vector_impl_data", %"struct.std::_Vector_base<std::pair<double, int>, std::allocator<std::pair<double, int>>>::_Vector_impl_data"* %3, i32 0, i32 2
  store %"struct.std::pair"* null, %"struct.std::pair"** %6, align 8
  ret void
}

; Function Attrs: noinline nounwind optnone uwtable
define linkonce_odr dso_local void @_ZN9__gnu_cxx13new_allocatorISt4pairIdiEEC2Ev(%"class.__gnu_cxx::new_allocator.3"* noundef nonnull align 1 dereferenceable(1) %0) unnamed_addr #7 comdat align 2 {
  %2 = alloca %"class.__gnu_cxx::new_allocator.3"*, align 8
  store %"class.__gnu_cxx::new_allocator.3"* %0, %"class.__gnu_cxx::new_allocator.3"** %2, align 8
  %3 = load %"class.__gnu_cxx::new_allocator.3"*, %"class.__gnu_cxx::new_allocator.3"** %2, align 8
  ret void
}

; Function Attrs: mustprogress noinline nounwind optnone uwtable
define linkonce_odr dso_local noundef nonnull align 8 dereferenceable(8) double* @_ZSt7forwardIRdEOT_RNSt16remove_referenceIS1_E4typeE(double* noundef nonnull align 8 dereferenceable(8) %0) #4 comdat {
  %2 = alloca double*, align 8
  store double* %0, double** %2, align 8
  %3 = load double*, double** %2, align 8
  ret double* %3
}

; Function Attrs: mustprogress noinline nounwind optnone uwtable
define linkonce_odr dso_local noundef nonnull align 4 dereferenceable(4) i32* @_ZSt7forwardIRKiEOT_RNSt16remove_referenceIS2_E4typeE(i32* noundef nonnull align 4 dereferenceable(4) %0) #4 comdat {
  %2 = alloca i32*, align 8
  store i32* %0, i32** %2, align 8
  %3 = load i32*, i32** %2, align 8
  ret i32* %3
}

; Function Attrs: noinline nounwind optnone uwtable
define linkonce_odr dso_local void @_ZNSt4pairIdiEC2IRdLb1EEEOT_RKi(%"struct.std::pair"* noundef nonnull align 8 dereferenceable(12) %0, double* noundef nonnull align 8 dereferenceable(8) %1, i32* noundef nonnull align 4 dereferenceable(4) %2) unnamed_addr #7 comdat align 2 {
  %4 = alloca %"struct.std::pair"*, align 8
  %5 = alloca double*, align 8
  %6 = alloca i32*, align 8
  store %"struct.std::pair"* %0, %"struct.std::pair"** %4, align 8
  store double* %1, double** %5, align 8
  store i32* %2, i32** %6, align 8
  %7 = load %"struct.std::pair"*, %"struct.std::pair"** %4, align 8
  %8 = bitcast %"struct.std::pair"* %7 to %"class.std::__pair_base"*
  %9 = getelementptr inbounds %"struct.std::pair", %"struct.std::pair"* %7, i32 0, i32 0
  %10 = load double*, double** %5, align 8
  %11 = call noundef nonnull align 8 dereferenceable(8) double* @_ZSt7forwardIRdEOT_RNSt16remove_referenceIS1_E4typeE(double* noundef nonnull align 8 dereferenceable(8) %10) #3
  %12 = load double, double* %11, align 8
  store double %12, double* %9, align 8
  %13 = getelementptr inbounds %"struct.std::pair", %"struct.std::pair"* %7, i32 0, i32 1
  %14 = load i32*, i32** %6, align 8
  %15 = load i32, i32* %14, align 4
  store i32 %15, i32* %13, align 8
  ret void
}

; Function Attrs: noinline nounwind optnone uwtable
define linkonce_odr dso_local void @_ZNSt12_Vector_baseI9DataPointSaIS0_EEC2Ev(%"struct.std::_Vector_base"* noundef nonnull align 8 dereferenceable(24) %0) unnamed_addr #7 comdat align 2 {
  %2 = alloca %"struct.std::_Vector_base"*, align 8
  store %"struct.std::_Vector_base"* %0, %"struct.std::_Vector_base"** %2, align 8
  %3 = load %"struct.std::_Vector_base"*, %"struct.std::_Vector_base"** %2, align 8
  %4 = getelementptr inbounds %"struct.std::_Vector_base", %"struct.std::_Vector_base"* %3, i32 0, i32 0
  call void @_ZNSt12_Vector_baseI9DataPointSaIS0_EE12_Vector_implC2Ev(%"struct.std::_Vector_base<DataPoint, std::allocator<DataPoint>>::_Vector_impl"* noundef nonnull align 8 dereferenceable(24) %4) #3
  ret void
}

; Function Attrs: noinline nounwind optnone uwtable
define linkonce_odr dso_local void @_ZNSt12_Vector_baseI9DataPointSaIS0_EE12_Vector_implC2Ev(%"struct.std::_Vector_base<DataPoint, std::allocator<DataPoint>>::_Vector_impl"* noundef nonnull align 8 dereferenceable(24) %0) unnamed_addr #7 comdat align 2 {
  %2 = alloca %"struct.std::_Vector_base<DataPoint, std::allocator<DataPoint>>::_Vector_impl"*, align 8
  store %"struct.std::_Vector_base<DataPoint, std::allocator<DataPoint>>::_Vector_impl"* %0, %"struct.std::_Vector_base<DataPoint, std::allocator<DataPoint>>::_Vector_impl"** %2, align 8
  %3 = load %"struct.std::_Vector_base<DataPoint, std::allocator<DataPoint>>::_Vector_impl"*, %"struct.std::_Vector_base<DataPoint, std::allocator<DataPoint>>::_Vector_impl"** %2, align 8
  %4 = bitcast %"struct.std::_Vector_base<DataPoint, std::allocator<DataPoint>>::_Vector_impl"* %3 to %"class.std::allocator"*
  call void @_ZNSaI9DataPointEC2Ev(%"class.std::allocator"* noundef nonnull align 1 dereferenceable(1) %4) #3
  %5 = bitcast %"struct.std::_Vector_base<DataPoint, std::allocator<DataPoint>>::_Vector_impl"* %3 to %"struct.std::_Vector_base<DataPoint, std::allocator<DataPoint>>::_Vector_impl_data"*
  call void @_ZNSt12_Vector_baseI9DataPointSaIS0_EE17_Vector_impl_dataC2Ev(%"struct.std::_Vector_base<DataPoint, std::allocator<DataPoint>>::_Vector_impl_data"* noundef nonnull align 8 dereferenceable(24) %5) #3
  ret void
}

; Function Attrs: noinline nounwind optnone uwtable
define linkonce_odr dso_local void @_ZNSaI9DataPointEC2Ev(%"class.std::allocator"* noundef nonnull align 1 dereferenceable(1) %0) unnamed_addr #7 comdat align 2 {
  %2 = alloca %"class.std::allocator"*, align 8
  store %"class.std::allocator"* %0, %"class.std::allocator"** %2, align 8
  %3 = load %"class.std::allocator"*, %"class.std::allocator"** %2, align 8
  %4 = bitcast %"class.std::allocator"* %3 to %"class.__gnu_cxx::new_allocator"*
  call void @_ZN9__gnu_cxx13new_allocatorI9DataPointEC2Ev(%"class.__gnu_cxx::new_allocator"* noundef nonnull align 1 dereferenceable(1) %4) #3
  ret void
}

; Function Attrs: noinline nounwind optnone uwtable
define linkonce_odr dso_local void @_ZNSt12_Vector_baseI9DataPointSaIS0_EE17_Vector_impl_dataC2Ev(%"struct.std::_Vector_base<DataPoint, std::allocator<DataPoint>>::_Vector_impl_data"* noundef nonnull align 8 dereferenceable(24) %0) unnamed_addr #7 comdat align 2 {
  %2 = alloca %"struct.std::_Vector_base<DataPoint, std::allocator<DataPoint>>::_Vector_impl_data"*, align 8
  store %"struct.std::_Vector_base<DataPoint, std::allocator<DataPoint>>::_Vector_impl_data"* %0, %"struct.std::_Vector_base<DataPoint, std::allocator<DataPoint>>::_Vector_impl_data"** %2, align 8
  %3 = load %"struct.std::_Vector_base<DataPoint, std::allocator<DataPoint>>::_Vector_impl_data"*, %"struct.std::_Vector_base<DataPoint, std::allocator<DataPoint>>::_Vector_impl_data"** %2, align 8
  %4 = getelementptr inbounds %"struct.std::_Vector_base<DataPoint, std::allocator<DataPoint>>::_Vector_impl_data", %"struct.std::_Vector_base<DataPoint, std::allocator<DataPoint>>::_Vector_impl_data"* %3, i32 0, i32 0
  store %struct.DataPoint* null, %struct.DataPoint** %4, align 8
  %5 = getelementptr inbounds %"struct.std::_Vector_base<DataPoint, std::allocator<DataPoint>>::_Vector_impl_data", %"struct.std::_Vector_base<DataPoint, std::allocator<DataPoint>>::_Vector_impl_data"* %3, i32 0, i32 1
  store %struct.DataPoint* null, %struct.DataPoint** %5, align 8
  %6 = getelementptr inbounds %"struct.std::_Vector_base<DataPoint, std::allocator<DataPoint>>::_Vector_impl_data", %"struct.std::_Vector_base<DataPoint, std::allocator<DataPoint>>::_Vector_impl_data"* %3, i32 0, i32 2
  store %struct.DataPoint* null, %struct.DataPoint** %6, align 8
  ret void
}

; Function Attrs: noinline nounwind optnone uwtable
define linkonce_odr dso_local void @_ZN9__gnu_cxx13new_allocatorI9DataPointEC2Ev(%"class.__gnu_cxx::new_allocator"* noundef nonnull align 1 dereferenceable(1) %0) unnamed_addr #7 comdat align 2 {
  %2 = alloca %"class.__gnu_cxx::new_allocator"*, align 8
  store %"class.__gnu_cxx::new_allocator"* %0, %"class.__gnu_cxx::new_allocator"** %2, align 8
  %3 = load %"class.__gnu_cxx::new_allocator"*, %"class.__gnu_cxx::new_allocator"** %2, align 8
  ret void
}

; Function Attrs: mustprogress noinline optnone uwtable
define linkonce_odr dso_local void @_ZSt8_DestroyIPSt4pairIdiES1_EvT_S3_RSaIT0_E(%"struct.std::pair"* noundef %0, %"struct.std::pair"* noundef %1, %"class.std::allocator.2"* noundef nonnull align 1 dereferenceable(1) %2) #6 comdat {
  %4 = alloca %"struct.std::pair"*, align 8
  %5 = alloca %"struct.std::pair"*, align 8
  %6 = alloca %"class.std::allocator.2"*, align 8
  store %"struct.std::pair"* %0, %"struct.std::pair"** %4, align 8
  store %"struct.std::pair"* %1, %"struct.std::pair"** %5, align 8
  store %"class.std::allocator.2"* %2, %"class.std::allocator.2"** %6, align 8
  %7 = load %"struct.std::pair"*, %"struct.std::pair"** %4, align 8
  %8 = load %"struct.std::pair"*, %"struct.std::pair"** %5, align 8
  call void @_ZSt8_DestroyIPSt4pairIdiEEvT_S3_(%"struct.std::pair"* noundef %7, %"struct.std::pair"* noundef %8)
  ret void
}

; Function Attrs: mustprogress noinline nounwind optnone uwtable
define linkonce_odr dso_local noundef nonnull align 1 dereferenceable(1) %"class.std::allocator.2"* @_ZNSt12_Vector_baseISt4pairIdiESaIS1_EE19_M_get_Tp_allocatorEv(%"struct.std::_Vector_base.1"* noundef nonnull align 8 dereferenceable(24) %0) #4 comdat align 2 {
  %2 = alloca %"struct.std::_Vector_base.1"*, align 8
  store %"struct.std::_Vector_base.1"* %0, %"struct.std::_Vector_base.1"** %2, align 8
  %3 = load %"struct.std::_Vector_base.1"*, %"struct.std::_Vector_base.1"** %2, align 8
  %4 = getelementptr inbounds %"struct.std::_Vector_base.1", %"struct.std::_Vector_base.1"* %3, i32 0, i32 0
  %5 = bitcast %"struct.std::_Vector_base<std::pair<double, int>, std::allocator<std::pair<double, int>>>::_Vector_impl"* %4 to %"class.std::allocator.2"*
  ret %"class.std::allocator.2"* %5
}

; Function Attrs: noinline nounwind optnone uwtable
define linkonce_odr dso_local void @_ZNSt12_Vector_baseISt4pairIdiESaIS1_EED2Ev(%"struct.std::_Vector_base.1"* noundef nonnull align 8 dereferenceable(24) %0) unnamed_addr #7 comdat align 2 personality i8* bitcast (i32 (...)* @__gxx_personality_v0 to i8*) {
  %2 = alloca %"struct.std::_Vector_base.1"*, align 8
  %3 = alloca i8*, align 8
  %4 = alloca i32, align 4
  store %"struct.std::_Vector_base.1"* %0, %"struct.std::_Vector_base.1"** %2, align 8
  %5 = load %"struct.std::_Vector_base.1"*, %"struct.std::_Vector_base.1"** %2, align 8
  %6 = getelementptr inbounds %"struct.std::_Vector_base.1", %"struct.std::_Vector_base.1"* %5, i32 0, i32 0
  %7 = bitcast %"struct.std::_Vector_base<std::pair<double, int>, std::allocator<std::pair<double, int>>>::_Vector_impl"* %6 to %"struct.std::_Vector_base<std::pair<double, int>, std::allocator<std::pair<double, int>>>::_Vector_impl_data"*
  %8 = getelementptr inbounds %"struct.std::_Vector_base<std::pair<double, int>, std::allocator<std::pair<double, int>>>::_Vector_impl_data", %"struct.std::_Vector_base<std::pair<double, int>, std::allocator<std::pair<double, int>>>::_Vector_impl_data"* %7, i32 0, i32 0
  %9 = load %"struct.std::pair"*, %"struct.std::pair"** %8, align 8
  %10 = getelementptr inbounds %"struct.std::_Vector_base.1", %"struct.std::_Vector_base.1"* %5, i32 0, i32 0
  %11 = bitcast %"struct.std::_Vector_base<std::pair<double, int>, std::allocator<std::pair<double, int>>>::_Vector_impl"* %10 to %"struct.std::_Vector_base<std::pair<double, int>, std::allocator<std::pair<double, int>>>::_Vector_impl_data"*
  %12 = getelementptr inbounds %"struct.std::_Vector_base<std::pair<double, int>, std::allocator<std::pair<double, int>>>::_Vector_impl_data", %"struct.std::_Vector_base<std::pair<double, int>, std::allocator<std::pair<double, int>>>::_Vector_impl_data"* %11, i32 0, i32 2
  %13 = load %"struct.std::pair"*, %"struct.std::pair"** %12, align 8
  %14 = getelementptr inbounds %"struct.std::_Vector_base.1", %"struct.std::_Vector_base.1"* %5, i32 0, i32 0
  %15 = bitcast %"struct.std::_Vector_base<std::pair<double, int>, std::allocator<std::pair<double, int>>>::_Vector_impl"* %14 to %"struct.std::_Vector_base<std::pair<double, int>, std::allocator<std::pair<double, int>>>::_Vector_impl_data"*
  %16 = getelementptr inbounds %"struct.std::_Vector_base<std::pair<double, int>, std::allocator<std::pair<double, int>>>::_Vector_impl_data", %"struct.std::_Vector_base<std::pair<double, int>, std::allocator<std::pair<double, int>>>::_Vector_impl_data"* %15, i32 0, i32 0
  %17 = load %"struct.std::pair"*, %"struct.std::pair"** %16, align 8
  %18 = ptrtoint %"struct.std::pair"* %13 to i64
  %19 = ptrtoint %"struct.std::pair"* %17 to i64
  %20 = sub i64 %18, %19
  %21 = sdiv exact i64 %20, 16
  invoke void @_ZNSt12_Vector_baseISt4pairIdiESaIS1_EE13_M_deallocateEPS1_m(%"struct.std::_Vector_base.1"* noundef nonnull align 8 dereferenceable(24) %5, %"struct.std::pair"* noundef %9, i64 noundef %21)
          to label %22 unwind label %24

22:                                               ; preds = %1
  %23 = getelementptr inbounds %"struct.std::_Vector_base.1", %"struct.std::_Vector_base.1"* %5, i32 0, i32 0
  call void @_ZNSt12_Vector_baseISt4pairIdiESaIS1_EE12_Vector_implD2Ev(%"struct.std::_Vector_base<std::pair<double, int>, std::allocator<std::pair<double, int>>>::_Vector_impl"* noundef nonnull align 8 dereferenceable(24) %23) #3
  ret void

24:                                               ; preds = %1
  %25 = landingpad { i8*, i32 }
          catch i8* null
  %26 = extractvalue { i8*, i32 } %25, 0
  store i8* %26, i8** %3, align 8
  %27 = extractvalue { i8*, i32 } %25, 1
  store i32 %27, i32* %4, align 4
  %28 = getelementptr inbounds %"struct.std::_Vector_base.1", %"struct.std::_Vector_base.1"* %5, i32 0, i32 0
  call void @_ZNSt12_Vector_baseISt4pairIdiESaIS1_EE12_Vector_implD2Ev(%"struct.std::_Vector_base<std::pair<double, int>, std::allocator<std::pair<double, int>>>::_Vector_impl"* noundef nonnull align 8 dereferenceable(24) %28) #3
  br label %29

29:                                               ; preds = %24
  %30 = load i8*, i8** %3, align 8
  call void @__clang_call_terminate(i8* %30) #15
  unreachable
}

; Function Attrs: noinline noreturn nounwind
define linkonce_odr hidden void @__clang_call_terminate(i8* %0) #10 comdat {
  %2 = call i8* @__cxa_begin_catch(i8* %0) #3
  call void @_ZSt9terminatev() #15
  unreachable
}

declare i8* @__cxa_begin_catch(i8*)

declare void @_ZSt9terminatev()

; Function Attrs: mustprogress noinline optnone uwtable
define linkonce_odr dso_local void @_ZSt8_DestroyIPSt4pairIdiEEvT_S3_(%"struct.std::pair"* noundef %0, %"struct.std::pair"* noundef %1) #6 comdat {
  %3 = alloca %"struct.std::pair"*, align 8
  %4 = alloca %"struct.std::pair"*, align 8
  store %"struct.std::pair"* %0, %"struct.std::pair"** %3, align 8
  store %"struct.std::pair"* %1, %"struct.std::pair"** %4, align 8
  %5 = load %"struct.std::pair"*, %"struct.std::pair"** %3, align 8
  %6 = load %"struct.std::pair"*, %"struct.std::pair"** %4, align 8
  call void @_ZNSt12_Destroy_auxILb1EE9__destroyIPSt4pairIdiEEEvT_S5_(%"struct.std::pair"* noundef %5, %"struct.std::pair"* noundef %6)
  ret void
}

; Function Attrs: mustprogress noinline nounwind optnone uwtable
define linkonce_odr dso_local void @_ZNSt12_Destroy_auxILb1EE9__destroyIPSt4pairIdiEEEvT_S5_(%"struct.std::pair"* noundef %0, %"struct.std::pair"* noundef %1) #4 comdat align 2 {
  %3 = alloca %"struct.std::pair"*, align 8
  %4 = alloca %"struct.std::pair"*, align 8
  store %"struct.std::pair"* %0, %"struct.std::pair"** %3, align 8
  store %"struct.std::pair"* %1, %"struct.std::pair"** %4, align 8
  ret void
}

; Function Attrs: mustprogress noinline optnone uwtable
define linkonce_odr dso_local void @_ZNSt12_Vector_baseISt4pairIdiESaIS1_EE13_M_deallocateEPS1_m(%"struct.std::_Vector_base.1"* noundef nonnull align 8 dereferenceable(24) %0, %"struct.std::pair"* noundef %1, i64 noundef %2) #6 comdat align 2 {
  %4 = alloca %"struct.std::_Vector_base.1"*, align 8
  %5 = alloca %"struct.std::pair"*, align 8
  %6 = alloca i64, align 8
  store %"struct.std::_Vector_base.1"* %0, %"struct.std::_Vector_base.1"** %4, align 8
  store %"struct.std::pair"* %1, %"struct.std::pair"** %5, align 8
  store i64 %2, i64* %6, align 8
  %7 = load %"struct.std::_Vector_base.1"*, %"struct.std::_Vector_base.1"** %4, align 8
  %8 = load %"struct.std::pair"*, %"struct.std::pair"** %5, align 8
  %9 = icmp ne %"struct.std::pair"* %8, null
  br i1 %9, label %10, label %15

10:                                               ; preds = %3
  %11 = getelementptr inbounds %"struct.std::_Vector_base.1", %"struct.std::_Vector_base.1"* %7, i32 0, i32 0
  %12 = bitcast %"struct.std::_Vector_base<std::pair<double, int>, std::allocator<std::pair<double, int>>>::_Vector_impl"* %11 to %"class.std::allocator.2"*
  %13 = load %"struct.std::pair"*, %"struct.std::pair"** %5, align 8
  %14 = load i64, i64* %6, align 8
  call void @_ZNSt16allocator_traitsISaISt4pairIdiEEE10deallocateERS2_PS1_m(%"class.std::allocator.2"* noundef nonnull align 1 dereferenceable(1) %12, %"struct.std::pair"* noundef %13, i64 noundef %14)
  br label %15

15:                                               ; preds = %10, %3
  ret void
}

; Function Attrs: noinline nounwind optnone uwtable
define linkonce_odr dso_local void @_ZNSt12_Vector_baseISt4pairIdiESaIS1_EE12_Vector_implD2Ev(%"struct.std::_Vector_base<std::pair<double, int>, std::allocator<std::pair<double, int>>>::_Vector_impl"* noundef nonnull align 8 dereferenceable(24) %0) unnamed_addr #7 comdat align 2 {
  %2 = alloca %"struct.std::_Vector_base<std::pair<double, int>, std::allocator<std::pair<double, int>>>::_Vector_impl"*, align 8
  store %"struct.std::_Vector_base<std::pair<double, int>, std::allocator<std::pair<double, int>>>::_Vector_impl"* %0, %"struct.std::_Vector_base<std::pair<double, int>, std::allocator<std::pair<double, int>>>::_Vector_impl"** %2, align 8
  %3 = load %"struct.std::_Vector_base<std::pair<double, int>, std::allocator<std::pair<double, int>>>::_Vector_impl"*, %"struct.std::_Vector_base<std::pair<double, int>, std::allocator<std::pair<double, int>>>::_Vector_impl"** %2, align 8
  %4 = bitcast %"struct.std::_Vector_base<std::pair<double, int>, std::allocator<std::pair<double, int>>>::_Vector_impl"* %3 to %"class.std::allocator.2"*
  call void @_ZNSaISt4pairIdiEED2Ev(%"class.std::allocator.2"* noundef nonnull align 1 dereferenceable(1) %4) #3
  ret void
}

; Function Attrs: mustprogress noinline optnone uwtable
define linkonce_odr dso_local void @_ZNSt16allocator_traitsISaISt4pairIdiEEE10deallocateERS2_PS1_m(%"class.std::allocator.2"* noundef nonnull align 1 dereferenceable(1) %0, %"struct.std::pair"* noundef %1, i64 noundef %2) #6 comdat align 2 {
  %4 = alloca %"class.std::allocator.2"*, align 8
  %5 = alloca %"struct.std::pair"*, align 8
  %6 = alloca i64, align 8
  store %"class.std::allocator.2"* %0, %"class.std::allocator.2"** %4, align 8
  store %"struct.std::pair"* %1, %"struct.std::pair"** %5, align 8
  store i64 %2, i64* %6, align 8
  %7 = load %"class.std::allocator.2"*, %"class.std::allocator.2"** %4, align 8
  %8 = bitcast %"class.std::allocator.2"* %7 to %"class.__gnu_cxx::new_allocator.3"*
  %9 = load %"struct.std::pair"*, %"struct.std::pair"** %5, align 8
  %10 = load i64, i64* %6, align 8
  call void @_ZN9__gnu_cxx13new_allocatorISt4pairIdiEE10deallocateEPS2_m(%"class.__gnu_cxx::new_allocator.3"* noundef nonnull align 1 dereferenceable(1) %8, %"struct.std::pair"* noundef %9, i64 noundef %10)
  ret void
}

; Function Attrs: mustprogress noinline nounwind optnone uwtable
define linkonce_odr dso_local void @_ZN9__gnu_cxx13new_allocatorISt4pairIdiEE10deallocateEPS2_m(%"class.__gnu_cxx::new_allocator.3"* noundef nonnull align 1 dereferenceable(1) %0, %"struct.std::pair"* noundef %1, i64 noundef %2) #4 comdat align 2 {
  %4 = alloca %"class.__gnu_cxx::new_allocator.3"*, align 8
  %5 = alloca %"struct.std::pair"*, align 8
  %6 = alloca i64, align 8
  store %"class.__gnu_cxx::new_allocator.3"* %0, %"class.__gnu_cxx::new_allocator.3"** %4, align 8
  store %"struct.std::pair"* %1, %"struct.std::pair"** %5, align 8
  store i64 %2, i64* %6, align 8
  %7 = load %"class.__gnu_cxx::new_allocator.3"*, %"class.__gnu_cxx::new_allocator.3"** %4, align 8
  %8 = load %"struct.std::pair"*, %"struct.std::pair"** %5, align 8
  %9 = bitcast %"struct.std::pair"* %8 to i8*
  call void @_ZdlPv(i8* noundef %9) #3
  ret void
}

; Function Attrs: nobuiltin nounwind
declare void @_ZdlPv(i8* noundef) #11

; Function Attrs: noinline nounwind optnone uwtable
define linkonce_odr dso_local void @_ZNSaISt4pairIdiEED2Ev(%"class.std::allocator.2"* noundef nonnull align 1 dereferenceable(1) %0) unnamed_addr #7 comdat align 2 {
  %2 = alloca %"class.std::allocator.2"*, align 8
  store %"class.std::allocator.2"* %0, %"class.std::allocator.2"** %2, align 8
  %3 = load %"class.std::allocator.2"*, %"class.std::allocator.2"** %2, align 8
  %4 = bitcast %"class.std::allocator.2"* %3 to %"class.__gnu_cxx::new_allocator.3"*
  call void @_ZN9__gnu_cxx13new_allocatorISt4pairIdiEED2Ev(%"class.__gnu_cxx::new_allocator.3"* noundef nonnull align 1 dereferenceable(1) %4) #3
  ret void
}

; Function Attrs: noinline nounwind optnone uwtable
define linkonce_odr dso_local void @_ZN9__gnu_cxx13new_allocatorISt4pairIdiEED2Ev(%"class.__gnu_cxx::new_allocator.3"* noundef nonnull align 1 dereferenceable(1) %0) unnamed_addr #7 comdat align 2 {
  %2 = alloca %"class.__gnu_cxx::new_allocator.3"*, align 8
  store %"class.__gnu_cxx::new_allocator.3"* %0, %"class.__gnu_cxx::new_allocator.3"** %2, align 8
  %3 = load %"class.__gnu_cxx::new_allocator.3"*, %"class.__gnu_cxx::new_allocator.3"** %2, align 8
  ret void
}

; Function Attrs: noinline nounwind optnone uwtable
define linkonce_odr dso_local void @_ZN9__gnu_cxx17__normal_iteratorIPK9DataPointSt6vectorIS1_SaIS1_EEEC2ERKS3_(%"class.__gnu_cxx::__normal_iterator"* noundef nonnull align 8 dereferenceable(8) %0, %struct.DataPoint** noundef nonnull align 8 dereferenceable(8) %1) unnamed_addr #7 comdat align 2 {
  %3 = alloca %"class.__gnu_cxx::__normal_iterator"*, align 8
  %4 = alloca %struct.DataPoint**, align 8
  store %"class.__gnu_cxx::__normal_iterator"* %0, %"class.__gnu_cxx::__normal_iterator"** %3, align 8
  store %struct.DataPoint** %1, %struct.DataPoint*** %4, align 8
  %5 = load %"class.__gnu_cxx::__normal_iterator"*, %"class.__gnu_cxx::__normal_iterator"** %3, align 8
  %6 = getelementptr inbounds %"class.__gnu_cxx::__normal_iterator", %"class.__gnu_cxx::__normal_iterator"* %5, i32 0, i32 0
  %7 = load %struct.DataPoint**, %struct.DataPoint*** %4, align 8
  %8 = load %struct.DataPoint*, %struct.DataPoint** %7, align 8
  store %struct.DataPoint* %8, %struct.DataPoint** %6, align 8
  ret void
}

; Function Attrs: mustprogress noinline nounwind optnone uwtable
define linkonce_odr dso_local noundef nonnull align 8 dereferenceable(8) %struct.DataPoint** @_ZNK9__gnu_cxx17__normal_iteratorIPK9DataPointSt6vectorIS1_SaIS1_EEE4baseEv(%"class.__gnu_cxx::__normal_iterator"* noundef nonnull align 8 dereferenceable(8) %0) #4 comdat align 2 {
  %2 = alloca %"class.__gnu_cxx::__normal_iterator"*, align 8
  store %"class.__gnu_cxx::__normal_iterator"* %0, %"class.__gnu_cxx::__normal_iterator"** %2, align 8
  %3 = load %"class.__gnu_cxx::__normal_iterator"*, %"class.__gnu_cxx::__normal_iterator"** %2, align 8
  %4 = getelementptr inbounds %"class.__gnu_cxx::__normal_iterator", %"class.__gnu_cxx::__normal_iterator"* %3, i32 0, i32 0
  ret %struct.DataPoint** %4
}

; Function Attrs: mustprogress noinline optnone uwtable
define linkonce_odr dso_local void @_ZNSt6vectorISt4pairIdiESaIS1_EE12emplace_backIJS1_EEEvDpOT_(%"class.std::vector.0"* noundef nonnull align 8 dereferenceable(24) %0, %"struct.std::pair"* noundef nonnull align 8 dereferenceable(12) %1) #6 comdat align 2 {
  %3 = alloca %"class.std::vector.0"*, align 8
  %4 = alloca %"struct.std::pair"*, align 8
  %5 = alloca %"class.__gnu_cxx::__normal_iterator.5", align 8
  store %"class.std::vector.0"* %0, %"class.std::vector.0"** %3, align 8
  store %"struct.std::pair"* %1, %"struct.std::pair"** %4, align 8
  %6 = load %"class.std::vector.0"*, %"class.std::vector.0"** %3, align 8
  %7 = bitcast %"class.std::vector.0"* %6 to %"struct.std::_Vector_base.1"*
  %8 = getelementptr inbounds %"struct.std::_Vector_base.1", %"struct.std::_Vector_base.1"* %7, i32 0, i32 0
  %9 = bitcast %"struct.std::_Vector_base<std::pair<double, int>, std::allocator<std::pair<double, int>>>::_Vector_impl"* %8 to %"struct.std::_Vector_base<std::pair<double, int>, std::allocator<std::pair<double, int>>>::_Vector_impl_data"*
  %10 = getelementptr inbounds %"struct.std::_Vector_base<std::pair<double, int>, std::allocator<std::pair<double, int>>>::_Vector_impl_data", %"struct.std::_Vector_base<std::pair<double, int>, std::allocator<std::pair<double, int>>>::_Vector_impl_data"* %9, i32 0, i32 1
  %11 = load %"struct.std::pair"*, %"struct.std::pair"** %10, align 8
  %12 = bitcast %"class.std::vector.0"* %6 to %"struct.std::_Vector_base.1"*
  %13 = getelementptr inbounds %"struct.std::_Vector_base.1", %"struct.std::_Vector_base.1"* %12, i32 0, i32 0
  %14 = bitcast %"struct.std::_Vector_base<std::pair<double, int>, std::allocator<std::pair<double, int>>>::_Vector_impl"* %13 to %"struct.std::_Vector_base<std::pair<double, int>, std::allocator<std::pair<double, int>>>::_Vector_impl_data"*
  %15 = getelementptr inbounds %"struct.std::_Vector_base<std::pair<double, int>, std::allocator<std::pair<double, int>>>::_Vector_impl_data", %"struct.std::_Vector_base<std::pair<double, int>, std::allocator<std::pair<double, int>>>::_Vector_impl_data"* %14, i32 0, i32 2
  %16 = load %"struct.std::pair"*, %"struct.std::pair"** %15, align 8
  %17 = icmp ne %"struct.std::pair"* %11, %16
  br i1 %17, label %18, label %35

18:                                               ; preds = %2
  %19 = bitcast %"class.std::vector.0"* %6 to %"struct.std::_Vector_base.1"*
  %20 = getelementptr inbounds %"struct.std::_Vector_base.1", %"struct.std::_Vector_base.1"* %19, i32 0, i32 0
  %21 = bitcast %"struct.std::_Vector_base<std::pair<double, int>, std::allocator<std::pair<double, int>>>::_Vector_impl"* %20 to %"class.std::allocator.2"*
  %22 = bitcast %"class.std::vector.0"* %6 to %"struct.std::_Vector_base.1"*
  %23 = getelementptr inbounds %"struct.std::_Vector_base.1", %"struct.std::_Vector_base.1"* %22, i32 0, i32 0
  %24 = bitcast %"struct.std::_Vector_base<std::pair<double, int>, std::allocator<std::pair<double, int>>>::_Vector_impl"* %23 to %"struct.std::_Vector_base<std::pair<double, int>, std::allocator<std::pair<double, int>>>::_Vector_impl_data"*
  %25 = getelementptr inbounds %"struct.std::_Vector_base<std::pair<double, int>, std::allocator<std::pair<double, int>>>::_Vector_impl_data", %"struct.std::_Vector_base<std::pair<double, int>, std::allocator<std::pair<double, int>>>::_Vector_impl_data"* %24, i32 0, i32 1
  %26 = load %"struct.std::pair"*, %"struct.std::pair"** %25, align 8
  %27 = load %"struct.std::pair"*, %"struct.std::pair"** %4, align 8
  %28 = call noundef nonnull align 8 dereferenceable(12) %"struct.std::pair"* @_ZSt7forwardISt4pairIdiEEOT_RNSt16remove_referenceIS2_E4typeE(%"struct.std::pair"* noundef nonnull align 8 dereferenceable(12) %27) #3
  call void @_ZNSt16allocator_traitsISaISt4pairIdiEEE9constructIS1_JS1_EEEvRS2_PT_DpOT0_(%"class.std::allocator.2"* noundef nonnull align 1 dereferenceable(1) %21, %"struct.std::pair"* noundef %26, %"struct.std::pair"* noundef nonnull align 8 dereferenceable(12) %28) #3
  %29 = bitcast %"class.std::vector.0"* %6 to %"struct.std::_Vector_base.1"*
  %30 = getelementptr inbounds %"struct.std::_Vector_base.1", %"struct.std::_Vector_base.1"* %29, i32 0, i32 0
  %31 = bitcast %"struct.std::_Vector_base<std::pair<double, int>, std::allocator<std::pair<double, int>>>::_Vector_impl"* %30 to %"struct.std::_Vector_base<std::pair<double, int>, std::allocator<std::pair<double, int>>>::_Vector_impl_data"*
  %32 = getelementptr inbounds %"struct.std::_Vector_base<std::pair<double, int>, std::allocator<std::pair<double, int>>>::_Vector_impl_data", %"struct.std::_Vector_base<std::pair<double, int>, std::allocator<std::pair<double, int>>>::_Vector_impl_data"* %31, i32 0, i32 1
  %33 = load %"struct.std::pair"*, %"struct.std::pair"** %32, align 8
  %34 = getelementptr inbounds %"struct.std::pair", %"struct.std::pair"* %33, i32 1
  store %"struct.std::pair"* %34, %"struct.std::pair"** %32, align 8
  br label %42

35:                                               ; preds = %2
  %36 = call %"struct.std::pair"* @_ZNSt6vectorISt4pairIdiESaIS1_EE3endEv(%"class.std::vector.0"* noundef nonnull align 8 dereferenceable(24) %6) #3
  %37 = getelementptr inbounds %"class.__gnu_cxx::__normal_iterator.5", %"class.__gnu_cxx::__normal_iterator.5"* %5, i32 0, i32 0
  store %"struct.std::pair"* %36, %"struct.std::pair"** %37, align 8
  %38 = load %"struct.std::pair"*, %"struct.std::pair"** %4, align 8
  %39 = call noundef nonnull align 8 dereferenceable(12) %"struct.std::pair"* @_ZSt7forwardISt4pairIdiEEOT_RNSt16remove_referenceIS2_E4typeE(%"struct.std::pair"* noundef nonnull align 8 dereferenceable(12) %38) #3
  %40 = getelementptr inbounds %"class.__gnu_cxx::__normal_iterator.5", %"class.__gnu_cxx::__normal_iterator.5"* %5, i32 0, i32 0
  %41 = load %"struct.std::pair"*, %"struct.std::pair"** %40, align 8
  call void @_ZNSt6vectorISt4pairIdiESaIS1_EE17_M_realloc_insertIJS1_EEEvN9__gnu_cxx17__normal_iteratorIPS1_S3_EEDpOT_(%"class.std::vector.0"* noundef nonnull align 8 dereferenceable(24) %6, %"struct.std::pair"* %41, %"struct.std::pair"* noundef nonnull align 8 dereferenceable(12) %39)
  br label %42

42:                                               ; preds = %35, %18
  ret void
}

; Function Attrs: mustprogress noinline nounwind optnone uwtable
define linkonce_odr dso_local noundef nonnull align 8 dereferenceable(12) %"struct.std::pair"* @_ZSt4moveIRSt4pairIdiEEONSt16remove_referenceIT_E4typeEOS4_(%"struct.std::pair"* noundef nonnull align 8 dereferenceable(12) %0) #4 comdat {
  %2 = alloca %"struct.std::pair"*, align 8
  store %"struct.std::pair"* %0, %"struct.std::pair"** %2, align 8
  %3 = load %"struct.std::pair"*, %"struct.std::pair"** %2, align 8
  ret %"struct.std::pair"* %3
}

; Function Attrs: mustprogress noinline nounwind optnone uwtable
define linkonce_odr dso_local void @_ZNSt16allocator_traitsISaISt4pairIdiEEE9constructIS1_JS1_EEEvRS2_PT_DpOT0_(%"class.std::allocator.2"* noundef nonnull align 1 dereferenceable(1) %0, %"struct.std::pair"* noundef %1, %"struct.std::pair"* noundef nonnull align 8 dereferenceable(12) %2) #4 comdat align 2 {
  %4 = alloca %"class.std::allocator.2"*, align 8
  %5 = alloca %"struct.std::pair"*, align 8
  %6 = alloca %"struct.std::pair"*, align 8
  store %"class.std::allocator.2"* %0, %"class.std::allocator.2"** %4, align 8
  store %"struct.std::pair"* %1, %"struct.std::pair"** %5, align 8
  store %"struct.std::pair"* %2, %"struct.std::pair"** %6, align 8
  %7 = load %"class.std::allocator.2"*, %"class.std::allocator.2"** %4, align 8
  %8 = bitcast %"class.std::allocator.2"* %7 to %"class.__gnu_cxx::new_allocator.3"*
  %9 = load %"struct.std::pair"*, %"struct.std::pair"** %5, align 8
  %10 = load %"struct.std::pair"*, %"struct.std::pair"** %6, align 8
  %11 = call noundef nonnull align 8 dereferenceable(12) %"struct.std::pair"* @_ZSt7forwardISt4pairIdiEEOT_RNSt16remove_referenceIS2_E4typeE(%"struct.std::pair"* noundef nonnull align 8 dereferenceable(12) %10) #3
  call void @_ZN9__gnu_cxx13new_allocatorISt4pairIdiEE9constructIS2_JS2_EEEvPT_DpOT0_(%"class.__gnu_cxx::new_allocator.3"* noundef nonnull align 1 dereferenceable(1) %8, %"struct.std::pair"* noundef %9, %"struct.std::pair"* noundef nonnull align 8 dereferenceable(12) %11) #3
  ret void
}

; Function Attrs: mustprogress noinline nounwind optnone uwtable
define linkonce_odr dso_local noundef nonnull align 8 dereferenceable(12) %"struct.std::pair"* @_ZSt7forwardISt4pairIdiEEOT_RNSt16remove_referenceIS2_E4typeE(%"struct.std::pair"* noundef nonnull align 8 dereferenceable(12) %0) #4 comdat {
  %2 = alloca %"struct.std::pair"*, align 8
  store %"struct.std::pair"* %0, %"struct.std::pair"** %2, align 8
  %3 = load %"struct.std::pair"*, %"struct.std::pair"** %2, align 8
  ret %"struct.std::pair"* %3
}

; Function Attrs: mustprogress noinline optnone uwtable
define linkonce_odr dso_local void @_ZNSt6vectorISt4pairIdiESaIS1_EE17_M_realloc_insertIJS1_EEEvN9__gnu_cxx17__normal_iteratorIPS1_S3_EEDpOT_(%"class.std::vector.0"* noundef nonnull align 8 dereferenceable(24) %0, %"struct.std::pair"* %1, %"struct.std::pair"* noundef nonnull align 8 dereferenceable(12) %2) #6 comdat align 2 {
  %4 = alloca %"class.__gnu_cxx::__normal_iterator.5", align 8
  %5 = alloca %"class.std::vector.0"*, align 8
  %6 = alloca %"struct.std::pair"*, align 8
  %7 = alloca i64, align 8
  %8 = alloca %"struct.std::pair"*, align 8
  %9 = alloca %"struct.std::pair"*, align 8
  %10 = alloca i64, align 8
  %11 = alloca %"class.__gnu_cxx::__normal_iterator.5", align 8
  %12 = alloca %"struct.std::pair"*, align 8
  %13 = alloca %"struct.std::pair"*, align 8
  %14 = getelementptr inbounds %"class.__gnu_cxx::__normal_iterator.5", %"class.__gnu_cxx::__normal_iterator.5"* %4, i32 0, i32 0
  store %"struct.std::pair"* %1, %"struct.std::pair"** %14, align 8
  store %"class.std::vector.0"* %0, %"class.std::vector.0"** %5, align 8
  store %"struct.std::pair"* %2, %"struct.std::pair"** %6, align 8
  %15 = load %"class.std::vector.0"*, %"class.std::vector.0"** %5, align 8
  %16 = call noundef i64 @_ZNKSt6vectorISt4pairIdiESaIS1_EE12_M_check_lenEmPKc(%"class.std::vector.0"* noundef nonnull align 8 dereferenceable(24) %15, i64 noundef 1, i8* noundef getelementptr inbounds ([26 x i8], [26 x i8]* @.str.1, i64 0, i64 0))
  store i64 %16, i64* %7, align 8
  %17 = bitcast %"class.std::vector.0"* %15 to %"struct.std::_Vector_base.1"*
  %18 = getelementptr inbounds %"struct.std::_Vector_base.1", %"struct.std::_Vector_base.1"* %17, i32 0, i32 0
  %19 = bitcast %"struct.std::_Vector_base<std::pair<double, int>, std::allocator<std::pair<double, int>>>::_Vector_impl"* %18 to %"struct.std::_Vector_base<std::pair<double, int>, std::allocator<std::pair<double, int>>>::_Vector_impl_data"*
  %20 = getelementptr inbounds %"struct.std::_Vector_base<std::pair<double, int>, std::allocator<std::pair<double, int>>>::_Vector_impl_data", %"struct.std::_Vector_base<std::pair<double, int>, std::allocator<std::pair<double, int>>>::_Vector_impl_data"* %19, i32 0, i32 0
  %21 = load %"struct.std::pair"*, %"struct.std::pair"** %20, align 8
  store %"struct.std::pair"* %21, %"struct.std::pair"** %8, align 8
  %22 = bitcast %"class.std::vector.0"* %15 to %"struct.std::_Vector_base.1"*
  %23 = getelementptr inbounds %"struct.std::_Vector_base.1", %"struct.std::_Vector_base.1"* %22, i32 0, i32 0
  %24 = bitcast %"struct.std::_Vector_base<std::pair<double, int>, std::allocator<std::pair<double, int>>>::_Vector_impl"* %23 to %"struct.std::_Vector_base<std::pair<double, int>, std::allocator<std::pair<double, int>>>::_Vector_impl_data"*
  %25 = getelementptr inbounds %"struct.std::_Vector_base<std::pair<double, int>, std::allocator<std::pair<double, int>>>::_Vector_impl_data", %"struct.std::_Vector_base<std::pair<double, int>, std::allocator<std::pair<double, int>>>::_Vector_impl_data"* %24, i32 0, i32 1
  %26 = load %"struct.std::pair"*, %"struct.std::pair"** %25, align 8
  store %"struct.std::pair"* %26, %"struct.std::pair"** %9, align 8
  %27 = call %"struct.std::pair"* @_ZNSt6vectorISt4pairIdiESaIS1_EE5beginEv(%"class.std::vector.0"* noundef nonnull align 8 dereferenceable(24) %15) #3
  %28 = getelementptr inbounds %"class.__gnu_cxx::__normal_iterator.5", %"class.__gnu_cxx::__normal_iterator.5"* %11, i32 0, i32 0
  store %"struct.std::pair"* %27, %"struct.std::pair"** %28, align 8
  %29 = call noundef i64 @_ZN9__gnu_cxxmiIPSt4pairIdiESt6vectorIS2_SaIS2_EEEENS_17__normal_iteratorIT_T0_E15difference_typeERKSA_SD_(%"class.__gnu_cxx::__normal_iterator.5"* noundef nonnull align 8 dereferenceable(8) %4, %"class.__gnu_cxx::__normal_iterator.5"* noundef nonnull align 8 dereferenceable(8) %11) #3
  store i64 %29, i64* %10, align 8
  %30 = bitcast %"class.std::vector.0"* %15 to %"struct.std::_Vector_base.1"*
  %31 = load i64, i64* %7, align 8
  %32 = call noundef %"struct.std::pair"* @_ZNSt12_Vector_baseISt4pairIdiESaIS1_EE11_M_allocateEm(%"struct.std::_Vector_base.1"* noundef nonnull align 8 dereferenceable(24) %30, i64 noundef %31)
  store %"struct.std::pair"* %32, %"struct.std::pair"** %12, align 8
  %33 = load %"struct.std::pair"*, %"struct.std::pair"** %12, align 8
  store %"struct.std::pair"* %33, %"struct.std::pair"** %13, align 8
  %34 = bitcast %"class.std::vector.0"* %15 to %"struct.std::_Vector_base.1"*
  %35 = getelementptr inbounds %"struct.std::_Vector_base.1", %"struct.std::_Vector_base.1"* %34, i32 0, i32 0
  %36 = bitcast %"struct.std::_Vector_base<std::pair<double, int>, std::allocator<std::pair<double, int>>>::_Vector_impl"* %35 to %"class.std::allocator.2"*
  %37 = load %"struct.std::pair"*, %"struct.std::pair"** %12, align 8
  %38 = load i64, i64* %10, align 8
  %39 = getelementptr inbounds %"struct.std::pair", %"struct.std::pair"* %37, i64 %38
  %40 = load %"struct.std::pair"*, %"struct.std::pair"** %6, align 8
  %41 = call noundef nonnull align 8 dereferenceable(12) %"struct.std::pair"* @_ZSt7forwardISt4pairIdiEEOT_RNSt16remove_referenceIS2_E4typeE(%"struct.std::pair"* noundef nonnull align 8 dereferenceable(12) %40) #3
  call void @_ZNSt16allocator_traitsISaISt4pairIdiEEE9constructIS1_JS1_EEEvRS2_PT_DpOT0_(%"class.std::allocator.2"* noundef nonnull align 1 dereferenceable(1) %36, %"struct.std::pair"* noundef %39, %"struct.std::pair"* noundef nonnull align 8 dereferenceable(12) %41) #3
  store %"struct.std::pair"* null, %"struct.std::pair"** %13, align 8
  %42 = load %"struct.std::pair"*, %"struct.std::pair"** %8, align 8
  %43 = call noundef nonnull align 8 dereferenceable(8) %"struct.std::pair"** @_ZNK9__gnu_cxx17__normal_iteratorIPSt4pairIdiESt6vectorIS2_SaIS2_EEE4baseEv(%"class.__gnu_cxx::__normal_iterator.5"* noundef nonnull align 8 dereferenceable(8) %4) #3
  %44 = load %"struct.std::pair"*, %"struct.std::pair"** %43, align 8
  %45 = load %"struct.std::pair"*, %"struct.std::pair"** %12, align 8
  %46 = bitcast %"class.std::vector.0"* %15 to %"struct.std::_Vector_base.1"*
  %47 = call noundef nonnull align 1 dereferenceable(1) %"class.std::allocator.2"* @_ZNSt12_Vector_baseISt4pairIdiESaIS1_EE19_M_get_Tp_allocatorEv(%"struct.std::_Vector_base.1"* noundef nonnull align 8 dereferenceable(24) %46) #3
  %48 = call noundef %"struct.std::pair"* @_ZNSt6vectorISt4pairIdiESaIS1_EE11_S_relocateEPS1_S4_S4_RS2_(%"struct.std::pair"* noundef %42, %"struct.std::pair"* noundef %44, %"struct.std::pair"* noundef %45, %"class.std::allocator.2"* noundef nonnull align 1 dereferenceable(1) %47) #3
  store %"struct.std::pair"* %48, %"struct.std::pair"** %13, align 8
  %49 = load %"struct.std::pair"*, %"struct.std::pair"** %13, align 8
  %50 = getelementptr inbounds %"struct.std::pair", %"struct.std::pair"* %49, i32 1
  store %"struct.std::pair"* %50, %"struct.std::pair"** %13, align 8
  %51 = call noundef nonnull align 8 dereferenceable(8) %"struct.std::pair"** @_ZNK9__gnu_cxx17__normal_iteratorIPSt4pairIdiESt6vectorIS2_SaIS2_EEE4baseEv(%"class.__gnu_cxx::__normal_iterator.5"* noundef nonnull align 8 dereferenceable(8) %4) #3
  %52 = load %"struct.std::pair"*, %"struct.std::pair"** %51, align 8
  %53 = load %"struct.std::pair"*, %"struct.std::pair"** %9, align 8
  %54 = load %"struct.std::pair"*, %"struct.std::pair"** %13, align 8
  %55 = bitcast %"class.std::vector.0"* %15 to %"struct.std::_Vector_base.1"*
  %56 = call noundef nonnull align 1 dereferenceable(1) %"class.std::allocator.2"* @_ZNSt12_Vector_baseISt4pairIdiESaIS1_EE19_M_get_Tp_allocatorEv(%"struct.std::_Vector_base.1"* noundef nonnull align 8 dereferenceable(24) %55) #3
  %57 = call noundef %"struct.std::pair"* @_ZNSt6vectorISt4pairIdiESaIS1_EE11_S_relocateEPS1_S4_S4_RS2_(%"struct.std::pair"* noundef %52, %"struct.std::pair"* noundef %53, %"struct.std::pair"* noundef %54, %"class.std::allocator.2"* noundef nonnull align 1 dereferenceable(1) %56) #3
  store %"struct.std::pair"* %57, %"struct.std::pair"** %13, align 8
  %58 = bitcast %"class.std::vector.0"* %15 to %"struct.std::_Vector_base.1"*
  %59 = load %"struct.std::pair"*, %"struct.std::pair"** %8, align 8
  %60 = bitcast %"class.std::vector.0"* %15 to %"struct.std::_Vector_base.1"*
  %61 = getelementptr inbounds %"struct.std::_Vector_base.1", %"struct.std::_Vector_base.1"* %60, i32 0, i32 0
  %62 = bitcast %"struct.std::_Vector_base<std::pair<double, int>, std::allocator<std::pair<double, int>>>::_Vector_impl"* %61 to %"struct.std::_Vector_base<std::pair<double, int>, std::allocator<std::pair<double, int>>>::_Vector_impl_data"*
  %63 = getelementptr inbounds %"struct.std::_Vector_base<std::pair<double, int>, std::allocator<std::pair<double, int>>>::_Vector_impl_data", %"struct.std::_Vector_base<std::pair<double, int>, std::allocator<std::pair<double, int>>>::_Vector_impl_data"* %62, i32 0, i32 2
  %64 = load %"struct.std::pair"*, %"struct.std::pair"** %63, align 8
  %65 = load %"struct.std::pair"*, %"struct.std::pair"** %8, align 8
  %66 = ptrtoint %"struct.std::pair"* %64 to i64
  %67 = ptrtoint %"struct.std::pair"* %65 to i64
  %68 = sub i64 %66, %67
  %69 = sdiv exact i64 %68, 16
  call void @_ZNSt12_Vector_baseISt4pairIdiESaIS1_EE13_M_deallocateEPS1_m(%"struct.std::_Vector_base.1"* noundef nonnull align 8 dereferenceable(24) %58, %"struct.std::pair"* noundef %59, i64 noundef %69)
  %70 = load %"struct.std::pair"*, %"struct.std::pair"** %12, align 8
  %71 = bitcast %"class.std::vector.0"* %15 to %"struct.std::_Vector_base.1"*
  %72 = getelementptr inbounds %"struct.std::_Vector_base.1", %"struct.std::_Vector_base.1"* %71, i32 0, i32 0
  %73 = bitcast %"struct.std::_Vector_base<std::pair<double, int>, std::allocator<std::pair<double, int>>>::_Vector_impl"* %72 to %"struct.std::_Vector_base<std::pair<double, int>, std::allocator<std::pair<double, int>>>::_Vector_impl_data"*
  %74 = getelementptr inbounds %"struct.std::_Vector_base<std::pair<double, int>, std::allocator<std::pair<double, int>>>::_Vector_impl_data", %"struct.std::_Vector_base<std::pair<double, int>, std::allocator<std::pair<double, int>>>::_Vector_impl_data"* %73, i32 0, i32 0
  store %"struct.std::pair"* %70, %"struct.std::pair"** %74, align 8
  %75 = load %"struct.std::pair"*, %"struct.std::pair"** %13, align 8
  %76 = bitcast %"class.std::vector.0"* %15 to %"struct.std::_Vector_base.1"*
  %77 = getelementptr inbounds %"struct.std::_Vector_base.1", %"struct.std::_Vector_base.1"* %76, i32 0, i32 0
  %78 = bitcast %"struct.std::_Vector_base<std::pair<double, int>, std::allocator<std::pair<double, int>>>::_Vector_impl"* %77 to %"struct.std::_Vector_base<std::pair<double, int>, std::allocator<std::pair<double, int>>>::_Vector_impl_data"*
  %79 = getelementptr inbounds %"struct.std::_Vector_base<std::pair<double, int>, std::allocator<std::pair<double, int>>>::_Vector_impl_data", %"struct.std::_Vector_base<std::pair<double, int>, std::allocator<std::pair<double, int>>>::_Vector_impl_data"* %78, i32 0, i32 1
  store %"struct.std::pair"* %75, %"struct.std::pair"** %79, align 8
  %80 = load %"struct.std::pair"*, %"struct.std::pair"** %12, align 8
  %81 = load i64, i64* %7, align 8
  %82 = getelementptr inbounds %"struct.std::pair", %"struct.std::pair"* %80, i64 %81
  %83 = bitcast %"class.std::vector.0"* %15 to %"struct.std::_Vector_base.1"*
  %84 = getelementptr inbounds %"struct.std::_Vector_base.1", %"struct.std::_Vector_base.1"* %83, i32 0, i32 0
  %85 = bitcast %"struct.std::_Vector_base<std::pair<double, int>, std::allocator<std::pair<double, int>>>::_Vector_impl"* %84 to %"struct.std::_Vector_base<std::pair<double, int>, std::allocator<std::pair<double, int>>>::_Vector_impl_data"*
  %86 = getelementptr inbounds %"struct.std::_Vector_base<std::pair<double, int>, std::allocator<std::pair<double, int>>>::_Vector_impl_data", %"struct.std::_Vector_base<std::pair<double, int>, std::allocator<std::pair<double, int>>>::_Vector_impl_data"* %85, i32 0, i32 2
  store %"struct.std::pair"* %82, %"struct.std::pair"** %86, align 8
  ret void
}

; Function Attrs: mustprogress noinline nounwind optnone uwtable
define linkonce_odr dso_local void @_ZN9__gnu_cxx13new_allocatorISt4pairIdiEE9constructIS2_JS2_EEEvPT_DpOT0_(%"class.__gnu_cxx::new_allocator.3"* noundef nonnull align 1 dereferenceable(1) %0, %"struct.std::pair"* noundef %1, %"struct.std::pair"* noundef nonnull align 8 dereferenceable(12) %2) #4 comdat align 2 {
  %4 = alloca %"class.__gnu_cxx::new_allocator.3"*, align 8
  %5 = alloca %"struct.std::pair"*, align 8
  %6 = alloca %"struct.std::pair"*, align 8
  store %"class.__gnu_cxx::new_allocator.3"* %0, %"class.__gnu_cxx::new_allocator.3"** %4, align 8
  store %"struct.std::pair"* %1, %"struct.std::pair"** %5, align 8
  store %"struct.std::pair"* %2, %"struct.std::pair"** %6, align 8
  %7 = load %"class.__gnu_cxx::new_allocator.3"*, %"class.__gnu_cxx::new_allocator.3"** %4, align 8
  %8 = load %"struct.std::pair"*, %"struct.std::pair"** %5, align 8
  %9 = bitcast %"struct.std::pair"* %8 to i8*
  %10 = bitcast i8* %9 to %"struct.std::pair"*
  %11 = load %"struct.std::pair"*, %"struct.std::pair"** %6, align 8
  %12 = call noundef nonnull align 8 dereferenceable(12) %"struct.std::pair"* @_ZSt7forwardISt4pairIdiEEOT_RNSt16remove_referenceIS2_E4typeE(%"struct.std::pair"* noundef nonnull align 8 dereferenceable(12) %11) #3
  %13 = bitcast %"struct.std::pair"* %10 to i8*
  %14 = bitcast %"struct.std::pair"* %12 to i8*
  call void @llvm.memcpy.p0i8.p0i8.i64(i8* align 8 %13, i8* align 8 %14, i64 16, i1 false)
  ret void
}

; Function Attrs: argmemonly nofree nounwind willreturn
declare void @llvm.memcpy.p0i8.p0i8.i64(i8* noalias nocapture writeonly, i8* noalias nocapture readonly, i64, i1 immarg) #12

; Function Attrs: mustprogress noinline optnone uwtable
define linkonce_odr dso_local noundef i64 @_ZNKSt6vectorISt4pairIdiESaIS1_EE12_M_check_lenEmPKc(%"class.std::vector.0"* noundef nonnull align 8 dereferenceable(24) %0, i64 noundef %1, i8* noundef %2) #6 comdat align 2 {
  %4 = alloca %"class.std::vector.0"*, align 8
  %5 = alloca i64, align 8
  %6 = alloca i8*, align 8
  %7 = alloca i64, align 8
  %8 = alloca i64, align 8
  store %"class.std::vector.0"* %0, %"class.std::vector.0"** %4, align 8
  store i64 %1, i64* %5, align 8
  store i8* %2, i8** %6, align 8
  %9 = load %"class.std::vector.0"*, %"class.std::vector.0"** %4, align 8
  %10 = call noundef i64 @_ZNKSt6vectorISt4pairIdiESaIS1_EE8max_sizeEv(%"class.std::vector.0"* noundef nonnull align 8 dereferenceable(24) %9) #3
  %11 = call noundef i64 @_ZNKSt6vectorISt4pairIdiESaIS1_EE4sizeEv(%"class.std::vector.0"* noundef nonnull align 8 dereferenceable(24) %9) #3
  %12 = sub i64 %10, %11
  %13 = load i64, i64* %5, align 8
  %14 = icmp ult i64 %12, %13
  br i1 %14, label %15, label %17

15:                                               ; preds = %3
  %16 = load i8*, i8** %6, align 8
  call void @_ZSt20__throw_length_errorPKc(i8* noundef %16) #16
  unreachable

17:                                               ; preds = %3
  %18 = call noundef i64 @_ZNKSt6vectorISt4pairIdiESaIS1_EE4sizeEv(%"class.std::vector.0"* noundef nonnull align 8 dereferenceable(24) %9) #3
  %19 = call noundef i64 @_ZNKSt6vectorISt4pairIdiESaIS1_EE4sizeEv(%"class.std::vector.0"* noundef nonnull align 8 dereferenceable(24) %9) #3
  store i64 %19, i64* %8, align 8
  %20 = call noundef nonnull align 8 dereferenceable(8) i64* @_ZSt3maxImERKT_S2_S2_(i64* noundef nonnull align 8 dereferenceable(8) %8, i64* noundef nonnull align 8 dereferenceable(8) %5)
  %21 = load i64, i64* %20, align 8
  %22 = add i64 %18, %21
  store i64 %22, i64* %7, align 8
  %23 = load i64, i64* %7, align 8
  %24 = call noundef i64 @_ZNKSt6vectorISt4pairIdiESaIS1_EE4sizeEv(%"class.std::vector.0"* noundef nonnull align 8 dereferenceable(24) %9) #3
  %25 = icmp ult i64 %23, %24
  br i1 %25, label %30, label %26

26:                                               ; preds = %17
  %27 = load i64, i64* %7, align 8
  %28 = call noundef i64 @_ZNKSt6vectorISt4pairIdiESaIS1_EE8max_sizeEv(%"class.std::vector.0"* noundef nonnull align 8 dereferenceable(24) %9) #3
  %29 = icmp ugt i64 %27, %28
  br i1 %29, label %30, label %32

30:                                               ; preds = %26, %17
  %31 = call noundef i64 @_ZNKSt6vectorISt4pairIdiESaIS1_EE8max_sizeEv(%"class.std::vector.0"* noundef nonnull align 8 dereferenceable(24) %9) #3
  br label %34

32:                                               ; preds = %26
  %33 = load i64, i64* %7, align 8
  br label %34

34:                                               ; preds = %32, %30
  %35 = phi i64 [ %31, %30 ], [ %33, %32 ]
  ret i64 %35
}

; Function Attrs: mustprogress noinline nounwind optnone uwtable
define linkonce_odr dso_local noundef i64 @_ZN9__gnu_cxxmiIPSt4pairIdiESt6vectorIS2_SaIS2_EEEENS_17__normal_iteratorIT_T0_E15difference_typeERKSA_SD_(%"class.__gnu_cxx::__normal_iterator.5"* noundef nonnull align 8 dereferenceable(8) %0, %"class.__gnu_cxx::__normal_iterator.5"* noundef nonnull align 8 dereferenceable(8) %1) #4 comdat {
  %3 = alloca %"class.__gnu_cxx::__normal_iterator.5"*, align 8
  %4 = alloca %"class.__gnu_cxx::__normal_iterator.5"*, align 8
  store %"class.__gnu_cxx::__normal_iterator.5"* %0, %"class.__gnu_cxx::__normal_iterator.5"** %3, align 8
  store %"class.__gnu_cxx::__normal_iterator.5"* %1, %"class.__gnu_cxx::__normal_iterator.5"** %4, align 8
  %5 = load %"class.__gnu_cxx::__normal_iterator.5"*, %"class.__gnu_cxx::__normal_iterator.5"** %3, align 8
  %6 = call noundef nonnull align 8 dereferenceable(8) %"struct.std::pair"** @_ZNK9__gnu_cxx17__normal_iteratorIPSt4pairIdiESt6vectorIS2_SaIS2_EEE4baseEv(%"class.__gnu_cxx::__normal_iterator.5"* noundef nonnull align 8 dereferenceable(8) %5) #3
  %7 = load %"struct.std::pair"*, %"struct.std::pair"** %6, align 8
  %8 = load %"class.__gnu_cxx::__normal_iterator.5"*, %"class.__gnu_cxx::__normal_iterator.5"** %4, align 8
  %9 = call noundef nonnull align 8 dereferenceable(8) %"struct.std::pair"** @_ZNK9__gnu_cxx17__normal_iteratorIPSt4pairIdiESt6vectorIS2_SaIS2_EEE4baseEv(%"class.__gnu_cxx::__normal_iterator.5"* noundef nonnull align 8 dereferenceable(8) %8) #3
  %10 = load %"struct.std::pair"*, %"struct.std::pair"** %9, align 8
  %11 = ptrtoint %"struct.std::pair"* %7 to i64
  %12 = ptrtoint %"struct.std::pair"* %10 to i64
  %13 = sub i64 %11, %12
  %14 = sdiv exact i64 %13, 16
  ret i64 %14
}

; Function Attrs: mustprogress noinline optnone uwtable
define linkonce_odr dso_local noundef %"struct.std::pair"* @_ZNSt12_Vector_baseISt4pairIdiESaIS1_EE11_M_allocateEm(%"struct.std::_Vector_base.1"* noundef nonnull align 8 dereferenceable(24) %0, i64 noundef %1) #6 comdat align 2 {
  %3 = alloca %"struct.std::_Vector_base.1"*, align 8
  %4 = alloca i64, align 8
  store %"struct.std::_Vector_base.1"* %0, %"struct.std::_Vector_base.1"** %3, align 8
  store i64 %1, i64* %4, align 8
  %5 = load %"struct.std::_Vector_base.1"*, %"struct.std::_Vector_base.1"** %3, align 8
  %6 = load i64, i64* %4, align 8
  %7 = icmp ne i64 %6, 0
  br i1 %7, label %8, label %13

8:                                                ; preds = %2
  %9 = getelementptr inbounds %"struct.std::_Vector_base.1", %"struct.std::_Vector_base.1"* %5, i32 0, i32 0
  %10 = bitcast %"struct.std::_Vector_base<std::pair<double, int>, std::allocator<std::pair<double, int>>>::_Vector_impl"* %9 to %"class.std::allocator.2"*
  %11 = load i64, i64* %4, align 8
  %12 = call noundef %"struct.std::pair"* @_ZNSt16allocator_traitsISaISt4pairIdiEEE8allocateERS2_m(%"class.std::allocator.2"* noundef nonnull align 1 dereferenceable(1) %10, i64 noundef %11)
  br label %14

13:                                               ; preds = %2
  br label %14

14:                                               ; preds = %13, %8
  %15 = phi %"struct.std::pair"* [ %12, %8 ], [ null, %13 ]
  ret %"struct.std::pair"* %15
}

; Function Attrs: mustprogress noinline nounwind optnone uwtable
define linkonce_odr dso_local noundef %"struct.std::pair"* @_ZNSt6vectorISt4pairIdiESaIS1_EE11_S_relocateEPS1_S4_S4_RS2_(%"struct.std::pair"* noundef %0, %"struct.std::pair"* noundef %1, %"struct.std::pair"* noundef %2, %"class.std::allocator.2"* noundef nonnull align 1 dereferenceable(1) %3) #4 comdat align 2 {
  %5 = alloca %"struct.std::pair"*, align 8
  %6 = alloca %"struct.std::pair"*, align 8
  %7 = alloca %"struct.std::pair"*, align 8
  %8 = alloca %"class.std::allocator.2"*, align 8
  %9 = alloca %"struct.std::integral_constant", align 1
  store %"struct.std::pair"* %0, %"struct.std::pair"** %5, align 8
  store %"struct.std::pair"* %1, %"struct.std::pair"** %6, align 8
  store %"struct.std::pair"* %2, %"struct.std::pair"** %7, align 8
  store %"class.std::allocator.2"* %3, %"class.std::allocator.2"** %8, align 8
  %10 = load %"struct.std::pair"*, %"struct.std::pair"** %5, align 8
  %11 = load %"struct.std::pair"*, %"struct.std::pair"** %6, align 8
  %12 = load %"struct.std::pair"*, %"struct.std::pair"** %7, align 8
  %13 = load %"class.std::allocator.2"*, %"class.std::allocator.2"** %8, align 8
  %14 = call noundef %"struct.std::pair"* @_ZNSt6vectorISt4pairIdiESaIS1_EE14_S_do_relocateEPS1_S4_S4_RS2_St17integral_constantIbLb1EE(%"struct.std::pair"* noundef %10, %"struct.std::pair"* noundef %11, %"struct.std::pair"* noundef %12, %"class.std::allocator.2"* noundef nonnull align 1 dereferenceable(1) %13) #3
  ret %"struct.std::pair"* %14
}

; Function Attrs: mustprogress noinline nounwind optnone uwtable
define linkonce_odr dso_local noundef nonnull align 8 dereferenceable(8) %"struct.std::pair"** @_ZNK9__gnu_cxx17__normal_iteratorIPSt4pairIdiESt6vectorIS2_SaIS2_EEE4baseEv(%"class.__gnu_cxx::__normal_iterator.5"* noundef nonnull align 8 dereferenceable(8) %0) #4 comdat align 2 {
  %2 = alloca %"class.__gnu_cxx::__normal_iterator.5"*, align 8
  store %"class.__gnu_cxx::__normal_iterator.5"* %0, %"class.__gnu_cxx::__normal_iterator.5"** %2, align 8
  %3 = load %"class.__gnu_cxx::__normal_iterator.5"*, %"class.__gnu_cxx::__normal_iterator.5"** %2, align 8
  %4 = getelementptr inbounds %"class.__gnu_cxx::__normal_iterator.5", %"class.__gnu_cxx::__normal_iterator.5"* %3, i32 0, i32 0
  ret %"struct.std::pair"** %4
}

; Function Attrs: mustprogress noinline nounwind optnone uwtable
define linkonce_odr dso_local noundef i64 @_ZNKSt6vectorISt4pairIdiESaIS1_EE8max_sizeEv(%"class.std::vector.0"* noundef nonnull align 8 dereferenceable(24) %0) #4 comdat align 2 {
  %2 = alloca %"class.std::vector.0"*, align 8
  store %"class.std::vector.0"* %0, %"class.std::vector.0"** %2, align 8
  %3 = load %"class.std::vector.0"*, %"class.std::vector.0"** %2, align 8
  %4 = bitcast %"class.std::vector.0"* %3 to %"struct.std::_Vector_base.1"*
  %5 = call noundef nonnull align 1 dereferenceable(1) %"class.std::allocator.2"* @_ZNKSt12_Vector_baseISt4pairIdiESaIS1_EE19_M_get_Tp_allocatorEv(%"struct.std::_Vector_base.1"* noundef nonnull align 8 dereferenceable(24) %4) #3
  %6 = call noundef i64 @_ZNSt6vectorISt4pairIdiESaIS1_EE11_S_max_sizeERKS2_(%"class.std::allocator.2"* noundef nonnull align 1 dereferenceable(1) %5) #3
  ret i64 %6
}

; Function Attrs: mustprogress noinline nounwind optnone uwtable
define linkonce_odr dso_local noundef i64 @_ZNKSt6vectorISt4pairIdiESaIS1_EE4sizeEv(%"class.std::vector.0"* noundef nonnull align 8 dereferenceable(24) %0) #4 comdat align 2 {
  %2 = alloca %"class.std::vector.0"*, align 8
  store %"class.std::vector.0"* %0, %"class.std::vector.0"** %2, align 8
  %3 = load %"class.std::vector.0"*, %"class.std::vector.0"** %2, align 8
  %4 = bitcast %"class.std::vector.0"* %3 to %"struct.std::_Vector_base.1"*
  %5 = getelementptr inbounds %"struct.std::_Vector_base.1", %"struct.std::_Vector_base.1"* %4, i32 0, i32 0
  %6 = bitcast %"struct.std::_Vector_base<std::pair<double, int>, std::allocator<std::pair<double, int>>>::_Vector_impl"* %5 to %"struct.std::_Vector_base<std::pair<double, int>, std::allocator<std::pair<double, int>>>::_Vector_impl_data"*
  %7 = getelementptr inbounds %"struct.std::_Vector_base<std::pair<double, int>, std::allocator<std::pair<double, int>>>::_Vector_impl_data", %"struct.std::_Vector_base<std::pair<double, int>, std::allocator<std::pair<double, int>>>::_Vector_impl_data"* %6, i32 0, i32 1
  %8 = load %"struct.std::pair"*, %"struct.std::pair"** %7, align 8
  %9 = bitcast %"class.std::vector.0"* %3 to %"struct.std::_Vector_base.1"*
  %10 = getelementptr inbounds %"struct.std::_Vector_base.1", %"struct.std::_Vector_base.1"* %9, i32 0, i32 0
  %11 = bitcast %"struct.std::_Vector_base<std::pair<double, int>, std::allocator<std::pair<double, int>>>::_Vector_impl"* %10 to %"struct.std::_Vector_base<std::pair<double, int>, std::allocator<std::pair<double, int>>>::_Vector_impl_data"*
  %12 = getelementptr inbounds %"struct.std::_Vector_base<std::pair<double, int>, std::allocator<std::pair<double, int>>>::_Vector_impl_data", %"struct.std::_Vector_base<std::pair<double, int>, std::allocator<std::pair<double, int>>>::_Vector_impl_data"* %11, i32 0, i32 0
  %13 = load %"struct.std::pair"*, %"struct.std::pair"** %12, align 8
  %14 = ptrtoint %"struct.std::pair"* %8 to i64
  %15 = ptrtoint %"struct.std::pair"* %13 to i64
  %16 = sub i64 %14, %15
  %17 = sdiv exact i64 %16, 16
  ret i64 %17
}

; Function Attrs: noreturn
declare void @_ZSt20__throw_length_errorPKc(i8* noundef) #13

; Function Attrs: mustprogress noinline nounwind optnone uwtable
define linkonce_odr dso_local noundef nonnull align 8 dereferenceable(8) i64* @_ZSt3maxImERKT_S2_S2_(i64* noundef nonnull align 8 dereferenceable(8) %0, i64* noundef nonnull align 8 dereferenceable(8) %1) #4 comdat {
  %3 = alloca i64*, align 8
  %4 = alloca i64*, align 8
  %5 = alloca i64*, align 8
  store i64* %0, i64** %4, align 8
  store i64* %1, i64** %5, align 8
  %6 = load i64*, i64** %4, align 8
  %7 = load i64, i64* %6, align 8
  %8 = load i64*, i64** %5, align 8
  %9 = load i64, i64* %8, align 8
  %10 = icmp ult i64 %7, %9
  br i1 %10, label %11, label %13

11:                                               ; preds = %2
  %12 = load i64*, i64** %5, align 8
  store i64* %12, i64** %3, align 8
  br label %15

13:                                               ; preds = %2
  %14 = load i64*, i64** %4, align 8
  store i64* %14, i64** %3, align 8
  br label %15

15:                                               ; preds = %13, %11
  %16 = load i64*, i64** %3, align 8
  ret i64* %16
}

; Function Attrs: mustprogress noinline nounwind optnone uwtable
define linkonce_odr dso_local noundef i64 @_ZNSt6vectorISt4pairIdiESaIS1_EE11_S_max_sizeERKS2_(%"class.std::allocator.2"* noundef nonnull align 1 dereferenceable(1) %0) #4 comdat align 2 personality i8* bitcast (i32 (...)* @__gxx_personality_v0 to i8*) {
  %2 = alloca %"class.std::allocator.2"*, align 8
  %3 = alloca i64, align 8
  %4 = alloca i64, align 8
  store %"class.std::allocator.2"* %0, %"class.std::allocator.2"** %2, align 8
  store i64 576460752303423487, i64* %3, align 8
  %5 = load %"class.std::allocator.2"*, %"class.std::allocator.2"** %2, align 8
  %6 = call noundef i64 @_ZNSt16allocator_traitsISaISt4pairIdiEEE8max_sizeERKS2_(%"class.std::allocator.2"* noundef nonnull align 1 dereferenceable(1) %5) #3
  store i64 %6, i64* %4, align 8
  %7 = invoke noundef nonnull align 8 dereferenceable(8) i64* @_ZSt3minImERKT_S2_S2_(i64* noundef nonnull align 8 dereferenceable(8) %3, i64* noundef nonnull align 8 dereferenceable(8) %4)
          to label %8 unwind label %10

8:                                                ; preds = %1
  %9 = load i64, i64* %7, align 8
  ret i64 %9

10:                                               ; preds = %1
  %11 = landingpad { i8*, i32 }
          catch i8* null
  %12 = extractvalue { i8*, i32 } %11, 0
  call void @__clang_call_terminate(i8* %12) #15
  unreachable
}

; Function Attrs: mustprogress noinline nounwind optnone uwtable
define linkonce_odr dso_local noundef nonnull align 1 dereferenceable(1) %"class.std::allocator.2"* @_ZNKSt12_Vector_baseISt4pairIdiESaIS1_EE19_M_get_Tp_allocatorEv(%"struct.std::_Vector_base.1"* noundef nonnull align 8 dereferenceable(24) %0) #4 comdat align 2 {
  %2 = alloca %"struct.std::_Vector_base.1"*, align 8
  store %"struct.std::_Vector_base.1"* %0, %"struct.std::_Vector_base.1"** %2, align 8
  %3 = load %"struct.std::_Vector_base.1"*, %"struct.std::_Vector_base.1"** %2, align 8
  %4 = getelementptr inbounds %"struct.std::_Vector_base.1", %"struct.std::_Vector_base.1"* %3, i32 0, i32 0
  %5 = bitcast %"struct.std::_Vector_base<std::pair<double, int>, std::allocator<std::pair<double, int>>>::_Vector_impl"* %4 to %"class.std::allocator.2"*
  ret %"class.std::allocator.2"* %5
}

; Function Attrs: mustprogress noinline nounwind optnone uwtable
define linkonce_odr dso_local noundef i64 @_ZNSt16allocator_traitsISaISt4pairIdiEEE8max_sizeERKS2_(%"class.std::allocator.2"* noundef nonnull align 1 dereferenceable(1) %0) #4 comdat align 2 {
  %2 = alloca %"class.std::allocator.2"*, align 8
  store %"class.std::allocator.2"* %0, %"class.std::allocator.2"** %2, align 8
  %3 = load %"class.std::allocator.2"*, %"class.std::allocator.2"** %2, align 8
  %4 = bitcast %"class.std::allocator.2"* %3 to %"class.__gnu_cxx::new_allocator.3"*
  %5 = call noundef i64 @_ZNK9__gnu_cxx13new_allocatorISt4pairIdiEE8max_sizeEv(%"class.__gnu_cxx::new_allocator.3"* noundef nonnull align 1 dereferenceable(1) %4) #3
  ret i64 %5
}

; Function Attrs: mustprogress noinline nounwind optnone uwtable
define linkonce_odr dso_local noundef nonnull align 8 dereferenceable(8) i64* @_ZSt3minImERKT_S2_S2_(i64* noundef nonnull align 8 dereferenceable(8) %0, i64* noundef nonnull align 8 dereferenceable(8) %1) #4 comdat {
  %3 = alloca i64*, align 8
  %4 = alloca i64*, align 8
  %5 = alloca i64*, align 8
  store i64* %0, i64** %4, align 8
  store i64* %1, i64** %5, align 8
  %6 = load i64*, i64** %5, align 8
  %7 = load i64, i64* %6, align 8
  %8 = load i64*, i64** %4, align 8
  %9 = load i64, i64* %8, align 8
  %10 = icmp ult i64 %7, %9
  br i1 %10, label %11, label %13

11:                                               ; preds = %2
  %12 = load i64*, i64** %5, align 8
  store i64* %12, i64** %3, align 8
  br label %15

13:                                               ; preds = %2
  %14 = load i64*, i64** %4, align 8
  store i64* %14, i64** %3, align 8
  br label %15

15:                                               ; preds = %13, %11
  %16 = load i64*, i64** %3, align 8
  ret i64* %16
}

; Function Attrs: mustprogress noinline nounwind optnone uwtable
define linkonce_odr dso_local noundef i64 @_ZNK9__gnu_cxx13new_allocatorISt4pairIdiEE8max_sizeEv(%"class.__gnu_cxx::new_allocator.3"* noundef nonnull align 1 dereferenceable(1) %0) #4 comdat align 2 {
  %2 = alloca %"class.__gnu_cxx::new_allocator.3"*, align 8
  store %"class.__gnu_cxx::new_allocator.3"* %0, %"class.__gnu_cxx::new_allocator.3"** %2, align 8
  %3 = load %"class.__gnu_cxx::new_allocator.3"*, %"class.__gnu_cxx::new_allocator.3"** %2, align 8
  %4 = call noundef i64 @_ZNK9__gnu_cxx13new_allocatorISt4pairIdiEE11_M_max_sizeEv(%"class.__gnu_cxx::new_allocator.3"* noundef nonnull align 1 dereferenceable(1) %3) #3
  ret i64 %4
}

; Function Attrs: mustprogress noinline nounwind optnone uwtable
define linkonce_odr dso_local noundef i64 @_ZNK9__gnu_cxx13new_allocatorISt4pairIdiEE11_M_max_sizeEv(%"class.__gnu_cxx::new_allocator.3"* noundef nonnull align 1 dereferenceable(1) %0) #4 comdat align 2 {
  %2 = alloca %"class.__gnu_cxx::new_allocator.3"*, align 8
  store %"class.__gnu_cxx::new_allocator.3"* %0, %"class.__gnu_cxx::new_allocator.3"** %2, align 8
  %3 = load %"class.__gnu_cxx::new_allocator.3"*, %"class.__gnu_cxx::new_allocator.3"** %2, align 8
  ret i64 576460752303423487
}

; Function Attrs: mustprogress noinline optnone uwtable
define linkonce_odr dso_local noundef %"struct.std::pair"* @_ZNSt16allocator_traitsISaISt4pairIdiEEE8allocateERS2_m(%"class.std::allocator.2"* noundef nonnull align 1 dereferenceable(1) %0, i64 noundef %1) #6 comdat align 2 {
  %3 = alloca %"class.std::allocator.2"*, align 8
  %4 = alloca i64, align 8
  store %"class.std::allocator.2"* %0, %"class.std::allocator.2"** %3, align 8
  store i64 %1, i64* %4, align 8
  %5 = load %"class.std::allocator.2"*, %"class.std::allocator.2"** %3, align 8
  %6 = bitcast %"class.std::allocator.2"* %5 to %"class.__gnu_cxx::new_allocator.3"*
  %7 = load i64, i64* %4, align 8
  %8 = call noundef %"struct.std::pair"* @_ZN9__gnu_cxx13new_allocatorISt4pairIdiEE8allocateEmPKv(%"class.__gnu_cxx::new_allocator.3"* noundef nonnull align 1 dereferenceable(1) %6, i64 noundef %7, i8* noundef null)
  ret %"struct.std::pair"* %8
}

; Function Attrs: mustprogress noinline optnone uwtable
define linkonce_odr dso_local noundef %"struct.std::pair"* @_ZN9__gnu_cxx13new_allocatorISt4pairIdiEE8allocateEmPKv(%"class.__gnu_cxx::new_allocator.3"* noundef nonnull align 1 dereferenceable(1) %0, i64 noundef %1, i8* noundef %2) #6 comdat align 2 {
  %4 = alloca %"class.__gnu_cxx::new_allocator.3"*, align 8
  %5 = alloca i64, align 8
  %6 = alloca i8*, align 8
  store %"class.__gnu_cxx::new_allocator.3"* %0, %"class.__gnu_cxx::new_allocator.3"** %4, align 8
  store i64 %1, i64* %5, align 8
  store i8* %2, i8** %6, align 8
  %7 = load %"class.__gnu_cxx::new_allocator.3"*, %"class.__gnu_cxx::new_allocator.3"** %4, align 8
  %8 = load i64, i64* %5, align 8
  %9 = call noundef i64 @_ZNK9__gnu_cxx13new_allocatorISt4pairIdiEE11_M_max_sizeEv(%"class.__gnu_cxx::new_allocator.3"* noundef nonnull align 1 dereferenceable(1) %7) #3
  %10 = icmp ugt i64 %8, %9
  br i1 %10, label %11, label %16

11:                                               ; preds = %3
  %12 = load i64, i64* %5, align 8
  %13 = icmp ugt i64 %12, 1152921504606846975
  br i1 %13, label %14, label %15

14:                                               ; preds = %11
  call void @_ZSt28__throw_bad_array_new_lengthv() #16
  unreachable

15:                                               ; preds = %11
  call void @_ZSt17__throw_bad_allocv() #16
  unreachable

16:                                               ; preds = %3
  %17 = load i64, i64* %5, align 8
  %18 = mul i64 %17, 16
  %19 = call noalias noundef nonnull i8* @_Znwm(i64 noundef %18) #17
  %20 = bitcast i8* %19 to %"struct.std::pair"*
  ret %"struct.std::pair"* %20
}

; Function Attrs: noreturn
declare void @_ZSt28__throw_bad_array_new_lengthv() #13

; Function Attrs: noreturn
declare void @_ZSt17__throw_bad_allocv() #13

; Function Attrs: nobuiltin allocsize(0)
declare noundef nonnull i8* @_Znwm(i64 noundef) #14

; Function Attrs: mustprogress noinline nounwind optnone uwtable
define linkonce_odr dso_local noundef %"struct.std::pair"* @_ZNSt6vectorISt4pairIdiESaIS1_EE14_S_do_relocateEPS1_S4_S4_RS2_St17integral_constantIbLb1EE(%"struct.std::pair"* noundef %0, %"struct.std::pair"* noundef %1, %"struct.std::pair"* noundef %2, %"class.std::allocator.2"* noundef nonnull align 1 dereferenceable(1) %3) #4 comdat align 2 {
  %5 = alloca %"struct.std::integral_constant", align 1
  %6 = alloca %"struct.std::pair"*, align 8
  %7 = alloca %"struct.std::pair"*, align 8
  %8 = alloca %"struct.std::pair"*, align 8
  %9 = alloca %"class.std::allocator.2"*, align 8
  store %"struct.std::pair"* %0, %"struct.std::pair"** %6, align 8
  store %"struct.std::pair"* %1, %"struct.std::pair"** %7, align 8
  store %"struct.std::pair"* %2, %"struct.std::pair"** %8, align 8
  store %"class.std::allocator.2"* %3, %"class.std::allocator.2"** %9, align 8
  %10 = load %"struct.std::pair"*, %"struct.std::pair"** %6, align 8
  %11 = load %"struct.std::pair"*, %"struct.std::pair"** %7, align 8
  %12 = load %"struct.std::pair"*, %"struct.std::pair"** %8, align 8
  %13 = load %"class.std::allocator.2"*, %"class.std::allocator.2"** %9, align 8
  %14 = call noundef %"struct.std::pair"* @_ZSt12__relocate_aIPSt4pairIdiES2_SaIS1_EET0_T_S5_S4_RT1_(%"struct.std::pair"* noundef %10, %"struct.std::pair"* noundef %11, %"struct.std::pair"* noundef %12, %"class.std::allocator.2"* noundef nonnull align 1 dereferenceable(1) %13) #3
  ret %"struct.std::pair"* %14
}

; Function Attrs: mustprogress noinline nounwind optnone uwtable
define linkonce_odr dso_local noundef %"struct.std::pair"* @_ZSt12__relocate_aIPSt4pairIdiES2_SaIS1_EET0_T_S5_S4_RT1_(%"struct.std::pair"* noundef %0, %"struct.std::pair"* noundef %1, %"struct.std::pair"* noundef %2, %"class.std::allocator.2"* noundef nonnull align 1 dereferenceable(1) %3) #4 comdat {
  %5 = alloca %"struct.std::pair"*, align 8
  %6 = alloca %"struct.std::pair"*, align 8
  %7 = alloca %"struct.std::pair"*, align 8
  %8 = alloca %"class.std::allocator.2"*, align 8
  store %"struct.std::pair"* %0, %"struct.std::pair"** %5, align 8
  store %"struct.std::pair"* %1, %"struct.std::pair"** %6, align 8
  store %"struct.std::pair"* %2, %"struct.std::pair"** %7, align 8
  store %"class.std::allocator.2"* %3, %"class.std::allocator.2"** %8, align 8
  %9 = load %"struct.std::pair"*, %"struct.std::pair"** %5, align 8
  %10 = call noundef %"struct.std::pair"* @_ZSt12__niter_baseIPSt4pairIdiEET_S3_(%"struct.std::pair"* noundef %9) #3
  %11 = load %"struct.std::pair"*, %"struct.std::pair"** %6, align 8
  %12 = call noundef %"struct.std::pair"* @_ZSt12__niter_baseIPSt4pairIdiEET_S3_(%"struct.std::pair"* noundef %11) #3
  %13 = load %"struct.std::pair"*, %"struct.std::pair"** %7, align 8
  %14 = call noundef %"struct.std::pair"* @_ZSt12__niter_baseIPSt4pairIdiEET_S3_(%"struct.std::pair"* noundef %13) #3
  %15 = load %"class.std::allocator.2"*, %"class.std::allocator.2"** %8, align 8
  %16 = call noundef %"struct.std::pair"* @_ZSt14__relocate_a_1IPSt4pairIdiES2_SaIS1_EET0_T_S5_S4_RT1_(%"struct.std::pair"* noundef %10, %"struct.std::pair"* noundef %12, %"struct.std::pair"* noundef %14, %"class.std::allocator.2"* noundef nonnull align 1 dereferenceable(1) %15) #3
  ret %"struct.std::pair"* %16
}

; Function Attrs: mustprogress noinline nounwind optnone uwtable
define linkonce_odr dso_local noundef %"struct.std::pair"* @_ZSt14__relocate_a_1IPSt4pairIdiES2_SaIS1_EET0_T_S5_S4_RT1_(%"struct.std::pair"* noundef %0, %"struct.std::pair"* noundef %1, %"struct.std::pair"* noundef %2, %"class.std::allocator.2"* noundef nonnull align 1 dereferenceable(1) %3) #4 comdat {
  %5 = alloca %"struct.std::pair"*, align 8
  %6 = alloca %"struct.std::pair"*, align 8
  %7 = alloca %"struct.std::pair"*, align 8
  %8 = alloca %"class.std::allocator.2"*, align 8
  %9 = alloca %"struct.std::pair"*, align 8
  store %"struct.std::pair"* %0, %"struct.std::pair"** %5, align 8
  store %"struct.std::pair"* %1, %"struct.std::pair"** %6, align 8
  store %"struct.std::pair"* %2, %"struct.std::pair"** %7, align 8
  store %"class.std::allocator.2"* %3, %"class.std::allocator.2"** %8, align 8
  %10 = load %"struct.std::pair"*, %"struct.std::pair"** %7, align 8
  store %"struct.std::pair"* %10, %"struct.std::pair"** %9, align 8
  br label %11

11:                                               ; preds = %21, %4
  %12 = load %"struct.std::pair"*, %"struct.std::pair"** %5, align 8
  %13 = load %"struct.std::pair"*, %"struct.std::pair"** %6, align 8
  %14 = icmp ne %"struct.std::pair"* %12, %13
  br i1 %14, label %15, label %26

15:                                               ; preds = %11
  %16 = load %"struct.std::pair"*, %"struct.std::pair"** %9, align 8
  %17 = call noundef %"struct.std::pair"* @_ZSt11__addressofISt4pairIdiEEPT_RS2_(%"struct.std::pair"* noundef nonnull align 8 dereferenceable(12) %16) #3
  %18 = load %"struct.std::pair"*, %"struct.std::pair"** %5, align 8
  %19 = call noundef %"struct.std::pair"* @_ZSt11__addressofISt4pairIdiEEPT_RS2_(%"struct.std::pair"* noundef nonnull align 8 dereferenceable(12) %18) #3
  %20 = load %"class.std::allocator.2"*, %"class.std::allocator.2"** %8, align 8
  call void @_ZSt19__relocate_object_aISt4pairIdiES1_SaIS1_EEvPT_PT0_RT1_(%"struct.std::pair"* noundef %17, %"struct.std::pair"* noundef %19, %"class.std::allocator.2"* noundef nonnull align 1 dereferenceable(1) %20) #3
  br label %21

21:                                               ; preds = %15
  %22 = load %"struct.std::pair"*, %"struct.std::pair"** %5, align 8
  %23 = getelementptr inbounds %"struct.std::pair", %"struct.std::pair"* %22, i32 1
  store %"struct.std::pair"* %23, %"struct.std::pair"** %5, align 8
  %24 = load %"struct.std::pair"*, %"struct.std::pair"** %9, align 8
  %25 = getelementptr inbounds %"struct.std::pair", %"struct.std::pair"* %24, i32 1
  store %"struct.std::pair"* %25, %"struct.std::pair"** %9, align 8
  br label %11, !llvm.loop !9

26:                                               ; preds = %11
  %27 = load %"struct.std::pair"*, %"struct.std::pair"** %9, align 8
  ret %"struct.std::pair"* %27
}

; Function Attrs: mustprogress noinline nounwind optnone uwtable
define linkonce_odr dso_local noundef %"struct.std::pair"* @_ZSt12__niter_baseIPSt4pairIdiEET_S3_(%"struct.std::pair"* noundef %0) #4 comdat {
  %2 = alloca %"struct.std::pair"*, align 8
  store %"struct.std::pair"* %0, %"struct.std::pair"** %2, align 8
  %3 = load %"struct.std::pair"*, %"struct.std::pair"** %2, align 8
  ret %"struct.std::pair"* %3
}

; Function Attrs: mustprogress noinline nounwind optnone uwtable
define linkonce_odr dso_local void @_ZSt19__relocate_object_aISt4pairIdiES1_SaIS1_EEvPT_PT0_RT1_(%"struct.std::pair"* noalias noundef %0, %"struct.std::pair"* noalias noundef %1, %"class.std::allocator.2"* noundef nonnull align 1 dereferenceable(1) %2) #4 comdat {
  %4 = alloca %"struct.std::pair"*, align 8
  %5 = alloca %"struct.std::pair"*, align 8
  %6 = alloca %"class.std::allocator.2"*, align 8
  store %"struct.std::pair"* %0, %"struct.std::pair"** %4, align 8
  store %"struct.std::pair"* %1, %"struct.std::pair"** %5, align 8
  store %"class.std::allocator.2"* %2, %"class.std::allocator.2"** %6, align 8
  %7 = load %"class.std::allocator.2"*, %"class.std::allocator.2"** %6, align 8
  %8 = load %"struct.std::pair"*, %"struct.std::pair"** %4, align 8
  %9 = load %"struct.std::pair"*, %"struct.std::pair"** %5, align 8
  %10 = call noundef nonnull align 8 dereferenceable(12) %"struct.std::pair"* @_ZSt4moveIRSt4pairIdiEEONSt16remove_referenceIT_E4typeEOS4_(%"struct.std::pair"* noundef nonnull align 8 dereferenceable(12) %9) #3
  call void @_ZNSt16allocator_traitsISaISt4pairIdiEEE9constructIS1_JS1_EEEvRS2_PT_DpOT0_(%"class.std::allocator.2"* noundef nonnull align 1 dereferenceable(1) %7, %"struct.std::pair"* noundef %8, %"struct.std::pair"* noundef nonnull align 8 dereferenceable(12) %10) #3
  %11 = load %"class.std::allocator.2"*, %"class.std::allocator.2"** %6, align 8
  %12 = load %"struct.std::pair"*, %"struct.std::pair"** %5, align 8
  %13 = call noundef %"struct.std::pair"* @_ZSt11__addressofISt4pairIdiEEPT_RS2_(%"struct.std::pair"* noundef nonnull align 8 dereferenceable(12) %12) #3
  call void @_ZNSt16allocator_traitsISaISt4pairIdiEEE7destroyIS1_EEvRS2_PT_(%"class.std::allocator.2"* noundef nonnull align 1 dereferenceable(1) %11, %"struct.std::pair"* noundef %13) #3
  ret void
}

; Function Attrs: mustprogress noinline nounwind optnone uwtable
define linkonce_odr dso_local noundef %"struct.std::pair"* @_ZSt11__addressofISt4pairIdiEEPT_RS2_(%"struct.std::pair"* noundef nonnull align 8 dereferenceable(12) %0) #4 comdat {
  %2 = alloca %"struct.std::pair"*, align 8
  store %"struct.std::pair"* %0, %"struct.std::pair"** %2, align 8
  %3 = load %"struct.std::pair"*, %"struct.std::pair"** %2, align 8
  ret %"struct.std::pair"* %3
}

; Function Attrs: mustprogress noinline nounwind optnone uwtable
define linkonce_odr dso_local void @_ZNSt16allocator_traitsISaISt4pairIdiEEE7destroyIS1_EEvRS2_PT_(%"class.std::allocator.2"* noundef nonnull align 1 dereferenceable(1) %0, %"struct.std::pair"* noundef %1) #4 comdat align 2 {
  %3 = alloca %"class.std::allocator.2"*, align 8
  %4 = alloca %"struct.std::pair"*, align 8
  store %"class.std::allocator.2"* %0, %"class.std::allocator.2"** %3, align 8
  store %"struct.std::pair"* %1, %"struct.std::pair"** %4, align 8
  %5 = load %"class.std::allocator.2"*, %"class.std::allocator.2"** %3, align 8
  %6 = bitcast %"class.std::allocator.2"* %5 to %"class.__gnu_cxx::new_allocator.3"*
  %7 = load %"struct.std::pair"*, %"struct.std::pair"** %4, align 8
  call void @_ZN9__gnu_cxx13new_allocatorISt4pairIdiEE7destroyIS2_EEvPT_(%"class.__gnu_cxx::new_allocator.3"* noundef nonnull align 1 dereferenceable(1) %6, %"struct.std::pair"* noundef %7) #3
  ret void
}

; Function Attrs: mustprogress noinline nounwind optnone uwtable
define linkonce_odr dso_local void @_ZN9__gnu_cxx13new_allocatorISt4pairIdiEE7destroyIS2_EEvPT_(%"class.__gnu_cxx::new_allocator.3"* noundef nonnull align 1 dereferenceable(1) %0, %"struct.std::pair"* noundef %1) #4 comdat align 2 {
  %3 = alloca %"class.__gnu_cxx::new_allocator.3"*, align 8
  %4 = alloca %"struct.std::pair"*, align 8
  store %"class.__gnu_cxx::new_allocator.3"* %0, %"class.__gnu_cxx::new_allocator.3"** %3, align 8
  store %"struct.std::pair"* %1, %"struct.std::pair"** %4, align 8
  %5 = load %"class.__gnu_cxx::new_allocator.3"*, %"class.__gnu_cxx::new_allocator.3"** %3, align 8
  %6 = load %"struct.std::pair"*, %"struct.std::pair"** %4, align 8
  ret void
}

; Function Attrs: noinline nounwind optnone uwtable
define linkonce_odr dso_local void @_ZN9__gnu_cxx17__normal_iteratorIPSt4pairIdiESt6vectorIS2_SaIS2_EEEC2ERKS3_(%"class.__gnu_cxx::__normal_iterator.5"* noundef nonnull align 8 dereferenceable(8) %0, %"struct.std::pair"** noundef nonnull align 8 dereferenceable(8) %1) unnamed_addr #7 comdat align 2 {
  %3 = alloca %"class.__gnu_cxx::__normal_iterator.5"*, align 8
  %4 = alloca %"struct.std::pair"**, align 8
  store %"class.__gnu_cxx::__normal_iterator.5"* %0, %"class.__gnu_cxx::__normal_iterator.5"** %3, align 8
  store %"struct.std::pair"** %1, %"struct.std::pair"*** %4, align 8
  %5 = load %"class.__gnu_cxx::__normal_iterator.5"*, %"class.__gnu_cxx::__normal_iterator.5"** %3, align 8
  %6 = getelementptr inbounds %"class.__gnu_cxx::__normal_iterator.5", %"class.__gnu_cxx::__normal_iterator.5"* %5, i32 0, i32 0
  %7 = load %"struct.std::pair"**, %"struct.std::pair"*** %4, align 8
  %8 = load %"struct.std::pair"*, %"struct.std::pair"** %7, align 8
  store %"struct.std::pair"* %8, %"struct.std::pair"** %6, align 8
  ret void
}

; Function Attrs: mustprogress noinline optnone uwtable
define linkonce_odr dso_local void @_ZSt6__sortIN9__gnu_cxx17__normal_iteratorIPSt4pairIdiESt6vectorIS3_SaIS3_EEEENS0_5__ops15_Iter_less_iterEEvT_SB_T0_(%"struct.std::pair"* %0, %"struct.std::pair"* %1) #6 comdat {
  %3 = alloca %"class.__gnu_cxx::__normal_iterator.5", align 8
  %4 = alloca %"class.__gnu_cxx::__normal_iterator.5", align 8
  %5 = alloca %"struct.__gnu_cxx::__ops::_Iter_less_iter", align 1
  %6 = alloca %"class.__gnu_cxx::__normal_iterator.5", align 8
  %7 = alloca %"class.__gnu_cxx::__normal_iterator.5", align 8
  %8 = alloca %"struct.__gnu_cxx::__ops::_Iter_less_iter", align 1
  %9 = alloca %"class.__gnu_cxx::__normal_iterator.5", align 8
  %10 = alloca %"class.__gnu_cxx::__normal_iterator.5", align 8
  %11 = alloca %"struct.__gnu_cxx::__ops::_Iter_less_iter", align 1
  %12 = getelementptr inbounds %"class.__gnu_cxx::__normal_iterator.5", %"class.__gnu_cxx::__normal_iterator.5"* %3, i32 0, i32 0
  store %"struct.std::pair"* %0, %"struct.std::pair"** %12, align 8
  %13 = getelementptr inbounds %"class.__gnu_cxx::__normal_iterator.5", %"class.__gnu_cxx::__normal_iterator.5"* %4, i32 0, i32 0
  store %"struct.std::pair"* %1, %"struct.std::pair"** %13, align 8
  %14 = call noundef zeroext i1 @_ZN9__gnu_cxxneIPSt4pairIdiESt6vectorIS2_SaIS2_EEEEbRKNS_17__normal_iteratorIT_T0_EESC_(%"class.__gnu_cxx::__normal_iterator.5"* noundef nonnull align 8 dereferenceable(8) %3, %"class.__gnu_cxx::__normal_iterator.5"* noundef nonnull align 8 dereferenceable(8) %4) #3
  br i1 %14, label %15, label %35

15:                                               ; preds = %2
  %16 = bitcast %"class.__gnu_cxx::__normal_iterator.5"* %6 to i8*
  %17 = bitcast %"class.__gnu_cxx::__normal_iterator.5"* %3 to i8*
  call void @llvm.memcpy.p0i8.p0i8.i64(i8* align 8 %16, i8* align 8 %17, i64 8, i1 false)
  %18 = bitcast %"class.__gnu_cxx::__normal_iterator.5"* %7 to i8*
  %19 = bitcast %"class.__gnu_cxx::__normal_iterator.5"* %4 to i8*
  call void @llvm.memcpy.p0i8.p0i8.i64(i8* align 8 %18, i8* align 8 %19, i64 8, i1 false)
  %20 = call noundef i64 @_ZN9__gnu_cxxmiIPSt4pairIdiESt6vectorIS2_SaIS2_EEEENS_17__normal_iteratorIT_T0_E15difference_typeERKSA_SD_(%"class.__gnu_cxx::__normal_iterator.5"* noundef nonnull align 8 dereferenceable(8) %4, %"class.__gnu_cxx::__normal_iterator.5"* noundef nonnull align 8 dereferenceable(8) %3) #3
  %21 = call noundef i64 @_ZSt4__lgl(i64 noundef %20)
  %22 = mul nsw i64 %21, 2
  %23 = getelementptr inbounds %"class.__gnu_cxx::__normal_iterator.5", %"class.__gnu_cxx::__normal_iterator.5"* %6, i32 0, i32 0
  %24 = load %"struct.std::pair"*, %"struct.std::pair"** %23, align 8
  %25 = getelementptr inbounds %"class.__gnu_cxx::__normal_iterator.5", %"class.__gnu_cxx::__normal_iterator.5"* %7, i32 0, i32 0
  %26 = load %"struct.std::pair"*, %"struct.std::pair"** %25, align 8
  call void @_ZSt16__introsort_loopIN9__gnu_cxx17__normal_iteratorIPSt4pairIdiESt6vectorIS3_SaIS3_EEEElNS0_5__ops15_Iter_less_iterEEvT_SB_T0_T1_(%"struct.std::pair"* %24, %"struct.std::pair"* %26, i64 noundef %22)
  %27 = bitcast %"class.__gnu_cxx::__normal_iterator.5"* %9 to i8*
  %28 = bitcast %"class.__gnu_cxx::__normal_iterator.5"* %3 to i8*
  call void @llvm.memcpy.p0i8.p0i8.i64(i8* align 8 %27, i8* align 8 %28, i64 8, i1 false)
  %29 = bitcast %"class.__gnu_cxx::__normal_iterator.5"* %10 to i8*
  %30 = bitcast %"class.__gnu_cxx::__normal_iterator.5"* %4 to i8*
  call void @llvm.memcpy.p0i8.p0i8.i64(i8* align 8 %29, i8* align 8 %30, i64 8, i1 false)
  %31 = getelementptr inbounds %"class.__gnu_cxx::__normal_iterator.5", %"class.__gnu_cxx::__normal_iterator.5"* %9, i32 0, i32 0
  %32 = load %"struct.std::pair"*, %"struct.std::pair"** %31, align 8
  %33 = getelementptr inbounds %"class.__gnu_cxx::__normal_iterator.5", %"class.__gnu_cxx::__normal_iterator.5"* %10, i32 0, i32 0
  %34 = load %"struct.std::pair"*, %"struct.std::pair"** %33, align 8
  call void @_ZSt22__final_insertion_sortIN9__gnu_cxx17__normal_iteratorIPSt4pairIdiESt6vectorIS3_SaIS3_EEEENS0_5__ops15_Iter_less_iterEEvT_SB_T0_(%"struct.std::pair"* %32, %"struct.std::pair"* %34)
  br label %35

35:                                               ; preds = %15, %2
  ret void
}

; Function Attrs: mustprogress noinline nounwind optnone uwtable
define linkonce_odr dso_local void @_ZN9__gnu_cxx5__ops16__iter_less_iterEv() #4 comdat {
  ret void
}

; Function Attrs: mustprogress noinline nounwind optnone uwtable
define linkonce_odr dso_local noundef zeroext i1 @_ZN9__gnu_cxxneIPSt4pairIdiESt6vectorIS2_SaIS2_EEEEbRKNS_17__normal_iteratorIT_T0_EESC_(%"class.__gnu_cxx::__normal_iterator.5"* noundef nonnull align 8 dereferenceable(8) %0, %"class.__gnu_cxx::__normal_iterator.5"* noundef nonnull align 8 dereferenceable(8) %1) #4 comdat {
  %3 = alloca %"class.__gnu_cxx::__normal_iterator.5"*, align 8
  %4 = alloca %"class.__gnu_cxx::__normal_iterator.5"*, align 8
  store %"class.__gnu_cxx::__normal_iterator.5"* %0, %"class.__gnu_cxx::__normal_iterator.5"** %3, align 8
  store %"class.__gnu_cxx::__normal_iterator.5"* %1, %"class.__gnu_cxx::__normal_iterator.5"** %4, align 8
  %5 = load %"class.__gnu_cxx::__normal_iterator.5"*, %"class.__gnu_cxx::__normal_iterator.5"** %3, align 8
  %6 = call noundef nonnull align 8 dereferenceable(8) %"struct.std::pair"** @_ZNK9__gnu_cxx17__normal_iteratorIPSt4pairIdiESt6vectorIS2_SaIS2_EEE4baseEv(%"class.__gnu_cxx::__normal_iterator.5"* noundef nonnull align 8 dereferenceable(8) %5) #3
  %7 = load %"struct.std::pair"*, %"struct.std::pair"** %6, align 8
  %8 = load %"class.__gnu_cxx::__normal_iterator.5"*, %"class.__gnu_cxx::__normal_iterator.5"** %4, align 8
  %9 = call noundef nonnull align 8 dereferenceable(8) %"struct.std::pair"** @_ZNK9__gnu_cxx17__normal_iteratorIPSt4pairIdiESt6vectorIS2_SaIS2_EEE4baseEv(%"class.__gnu_cxx::__normal_iterator.5"* noundef nonnull align 8 dereferenceable(8) %8) #3
  %10 = load %"struct.std::pair"*, %"struct.std::pair"** %9, align 8
  %11 = icmp ne %"struct.std::pair"* %7, %10
  ret i1 %11
}

; Function Attrs: mustprogress noinline optnone uwtable
define linkonce_odr dso_local void @_ZSt16__introsort_loopIN9__gnu_cxx17__normal_iteratorIPSt4pairIdiESt6vectorIS3_SaIS3_EEEElNS0_5__ops15_Iter_less_iterEEvT_SB_T0_T1_(%"struct.std::pair"* %0, %"struct.std::pair"* %1, i64 noundef %2) #6 comdat {
  %4 = alloca %"class.__gnu_cxx::__normal_iterator.5", align 8
  %5 = alloca %"class.__gnu_cxx::__normal_iterator.5", align 8
  %6 = alloca %"struct.__gnu_cxx::__ops::_Iter_less_iter", align 1
  %7 = alloca i64, align 8
  %8 = alloca %"class.__gnu_cxx::__normal_iterator.5", align 8
  %9 = alloca %"class.__gnu_cxx::__normal_iterator.5", align 8
  %10 = alloca %"class.__gnu_cxx::__normal_iterator.5", align 8
  %11 = alloca %"struct.__gnu_cxx::__ops::_Iter_less_iter", align 1
  %12 = alloca %"class.__gnu_cxx::__normal_iterator.5", align 8
  %13 = alloca %"class.__gnu_cxx::__normal_iterator.5", align 8
  %14 = alloca %"class.__gnu_cxx::__normal_iterator.5", align 8
  %15 = alloca %"struct.__gnu_cxx::__ops::_Iter_less_iter", align 1
  %16 = alloca %"class.__gnu_cxx::__normal_iterator.5", align 8
  %17 = alloca %"class.__gnu_cxx::__normal_iterator.5", align 8
  %18 = alloca %"struct.__gnu_cxx::__ops::_Iter_less_iter", align 1
  %19 = getelementptr inbounds %"class.__gnu_cxx::__normal_iterator.5", %"class.__gnu_cxx::__normal_iterator.5"* %4, i32 0, i32 0
  store %"struct.std::pair"* %0, %"struct.std::pair"** %19, align 8
  %20 = getelementptr inbounds %"class.__gnu_cxx::__normal_iterator.5", %"class.__gnu_cxx::__normal_iterator.5"* %5, i32 0, i32 0
  store %"struct.std::pair"* %1, %"struct.std::pair"** %20, align 8
  store i64 %2, i64* %7, align 8
  br label %21

21:                                               ; preds = %40, %3
  %22 = call noundef i64 @_ZN9__gnu_cxxmiIPSt4pairIdiESt6vectorIS2_SaIS2_EEEENS_17__normal_iteratorIT_T0_E15difference_typeERKSA_SD_(%"class.__gnu_cxx::__normal_iterator.5"* noundef nonnull align 8 dereferenceable(8) %5, %"class.__gnu_cxx::__normal_iterator.5"* noundef nonnull align 8 dereferenceable(8) %4) #3
  %23 = icmp sgt i64 %22, 16
  br i1 %23, label %24, label %64

24:                                               ; preds = %21
  %25 = load i64, i64* %7, align 8
  %26 = icmp eq i64 %25, 0
  br i1 %26, label %27, label %40

27:                                               ; preds = %24
  %28 = bitcast %"class.__gnu_cxx::__normal_iterator.5"* %8 to i8*
  %29 = bitcast %"class.__gnu_cxx::__normal_iterator.5"* %4 to i8*
  call void @llvm.memcpy.p0i8.p0i8.i64(i8* align 8 %28, i8* align 8 %29, i64 8, i1 false)
  %30 = bitcast %"class.__gnu_cxx::__normal_iterator.5"* %9 to i8*
  %31 = bitcast %"class.__gnu_cxx::__normal_iterator.5"* %5 to i8*
  call void @llvm.memcpy.p0i8.p0i8.i64(i8* align 8 %30, i8* align 8 %31, i64 8, i1 false)
  %32 = bitcast %"class.__gnu_cxx::__normal_iterator.5"* %10 to i8*
  %33 = bitcast %"class.__gnu_cxx::__normal_iterator.5"* %5 to i8*
  call void @llvm.memcpy.p0i8.p0i8.i64(i8* align 8 %32, i8* align 8 %33, i64 8, i1 false)
  %34 = getelementptr inbounds %"class.__gnu_cxx::__normal_iterator.5", %"class.__gnu_cxx::__normal_iterator.5"* %8, i32 0, i32 0
  %35 = load %"struct.std::pair"*, %"struct.std::pair"** %34, align 8
  %36 = getelementptr inbounds %"class.__gnu_cxx::__normal_iterator.5", %"class.__gnu_cxx::__normal_iterator.5"* %9, i32 0, i32 0
  %37 = load %"struct.std::pair"*, %"struct.std::pair"** %36, align 8
  %38 = getelementptr inbounds %"class.__gnu_cxx::__normal_iterator.5", %"class.__gnu_cxx::__normal_iterator.5"* %10, i32 0, i32 0
  %39 = load %"struct.std::pair"*, %"struct.std::pair"** %38, align 8
  call void @_ZSt14__partial_sortIN9__gnu_cxx17__normal_iteratorIPSt4pairIdiESt6vectorIS3_SaIS3_EEEENS0_5__ops15_Iter_less_iterEEvT_SB_SB_T0_(%"struct.std::pair"* %35, %"struct.std::pair"* %37, %"struct.std::pair"* %39)
  br label %64

40:                                               ; preds = %24
  %41 = load i64, i64* %7, align 8
  %42 = add nsw i64 %41, -1
  store i64 %42, i64* %7, align 8
  %43 = bitcast %"class.__gnu_cxx::__normal_iterator.5"* %13 to i8*
  %44 = bitcast %"class.__gnu_cxx::__normal_iterator.5"* %4 to i8*
  call void @llvm.memcpy.p0i8.p0i8.i64(i8* align 8 %43, i8* align 8 %44, i64 8, i1 false)
  %45 = bitcast %"class.__gnu_cxx::__normal_iterator.5"* %14 to i8*
  %46 = bitcast %"class.__gnu_cxx::__normal_iterator.5"* %5 to i8*
  call void @llvm.memcpy.p0i8.p0i8.i64(i8* align 8 %45, i8* align 8 %46, i64 8, i1 false)
  %47 = getelementptr inbounds %"class.__gnu_cxx::__normal_iterator.5", %"class.__gnu_cxx::__normal_iterator.5"* %13, i32 0, i32 0
  %48 = load %"struct.std::pair"*, %"struct.std::pair"** %47, align 8
  %49 = getelementptr inbounds %"class.__gnu_cxx::__normal_iterator.5", %"class.__gnu_cxx::__normal_iterator.5"* %14, i32 0, i32 0
  %50 = load %"struct.std::pair"*, %"struct.std::pair"** %49, align 8
  %51 = call %"struct.std::pair"* @_ZSt27__unguarded_partition_pivotIN9__gnu_cxx17__normal_iteratorIPSt4pairIdiESt6vectorIS3_SaIS3_EEEENS0_5__ops15_Iter_less_iterEET_SB_SB_T0_(%"struct.std::pair"* %48, %"struct.std::pair"* %50)
  %52 = getelementptr inbounds %"class.__gnu_cxx::__normal_iterator.5", %"class.__gnu_cxx::__normal_iterator.5"* %12, i32 0, i32 0
  store %"struct.std::pair"* %51, %"struct.std::pair"** %52, align 8
  %53 = bitcast %"class.__gnu_cxx::__normal_iterator.5"* %16 to i8*
  %54 = bitcast %"class.__gnu_cxx::__normal_iterator.5"* %12 to i8*
  call void @llvm.memcpy.p0i8.p0i8.i64(i8* align 8 %53, i8* align 8 %54, i64 8, i1 false)
  %55 = bitcast %"class.__gnu_cxx::__normal_iterator.5"* %17 to i8*
  %56 = bitcast %"class.__gnu_cxx::__normal_iterator.5"* %5 to i8*
  call void @llvm.memcpy.p0i8.p0i8.i64(i8* align 8 %55, i8* align 8 %56, i64 8, i1 false)
  %57 = load i64, i64* %7, align 8
  %58 = getelementptr inbounds %"class.__gnu_cxx::__normal_iterator.5", %"class.__gnu_cxx::__normal_iterator.5"* %16, i32 0, i32 0
  %59 = load %"struct.std::pair"*, %"struct.std::pair"** %58, align 8
  %60 = getelementptr inbounds %"class.__gnu_cxx::__normal_iterator.5", %"class.__gnu_cxx::__normal_iterator.5"* %17, i32 0, i32 0
  %61 = load %"struct.std::pair"*, %"struct.std::pair"** %60, align 8
  call void @_ZSt16__introsort_loopIN9__gnu_cxx17__normal_iteratorIPSt4pairIdiESt6vectorIS3_SaIS3_EEEElNS0_5__ops15_Iter_less_iterEEvT_SB_T0_T1_(%"struct.std::pair"* %59, %"struct.std::pair"* %61, i64 noundef %57)
  %62 = bitcast %"class.__gnu_cxx::__normal_iterator.5"* %5 to i8*
  %63 = bitcast %"class.__gnu_cxx::__normal_iterator.5"* %12 to i8*
  call void @llvm.memcpy.p0i8.p0i8.i64(i8* align 8 %62, i8* align 8 %63, i64 8, i1 false)
  br label %21, !llvm.loop !10

64:                                               ; preds = %27, %21
  ret void
}

; Function Attrs: mustprogress noinline nounwind optnone uwtable
define linkonce_odr dso_local noundef i64 @_ZSt4__lgl(i64 noundef %0) #4 comdat {
  %2 = alloca i64, align 8
  store i64 %0, i64* %2, align 8
  %3 = load i64, i64* %2, align 8
  %4 = call i64 @llvm.ctlz.i64(i64 %3, i1 true)
  %5 = trunc i64 %4 to i32
  %6 = sub nsw i32 63, %5
  %7 = sext i32 %6 to i64
  ret i64 %7
}

; Function Attrs: mustprogress noinline optnone uwtable
define linkonce_odr dso_local void @_ZSt22__final_insertion_sortIN9__gnu_cxx17__normal_iteratorIPSt4pairIdiESt6vectorIS3_SaIS3_EEEENS0_5__ops15_Iter_less_iterEEvT_SB_T0_(%"struct.std::pair"* %0, %"struct.std::pair"* %1) #6 comdat {
  %3 = alloca %"class.__gnu_cxx::__normal_iterator.5", align 8
  %4 = alloca %"class.__gnu_cxx::__normal_iterator.5", align 8
  %5 = alloca %"struct.__gnu_cxx::__ops::_Iter_less_iter", align 1
  %6 = alloca %"class.__gnu_cxx::__normal_iterator.5", align 8
  %7 = alloca %"class.__gnu_cxx::__normal_iterator.5", align 8
  %8 = alloca %"struct.__gnu_cxx::__ops::_Iter_less_iter", align 1
  %9 = alloca %"class.__gnu_cxx::__normal_iterator.5", align 8
  %10 = alloca %"class.__gnu_cxx::__normal_iterator.5", align 8
  %11 = alloca %"struct.__gnu_cxx::__ops::_Iter_less_iter", align 1
  %12 = alloca %"class.__gnu_cxx::__normal_iterator.5", align 8
  %13 = alloca %"class.__gnu_cxx::__normal_iterator.5", align 8
  %14 = alloca %"struct.__gnu_cxx::__ops::_Iter_less_iter", align 1
  %15 = getelementptr inbounds %"class.__gnu_cxx::__normal_iterator.5", %"class.__gnu_cxx::__normal_iterator.5"* %3, i32 0, i32 0
  store %"struct.std::pair"* %0, %"struct.std::pair"** %15, align 8
  %16 = getelementptr inbounds %"class.__gnu_cxx::__normal_iterator.5", %"class.__gnu_cxx::__normal_iterator.5"* %4, i32 0, i32 0
  store %"struct.std::pair"* %1, %"struct.std::pair"** %16, align 8
  %17 = call noundef i64 @_ZN9__gnu_cxxmiIPSt4pairIdiESt6vectorIS2_SaIS2_EEEENS_17__normal_iteratorIT_T0_E15difference_typeERKSA_SD_(%"class.__gnu_cxx::__normal_iterator.5"* noundef nonnull align 8 dereferenceable(8) %4, %"class.__gnu_cxx::__normal_iterator.5"* noundef nonnull align 8 dereferenceable(8) %3) #3
  %18 = icmp sgt i64 %17, 16
  br i1 %18, label %19, label %36

19:                                               ; preds = %2
  %20 = bitcast %"class.__gnu_cxx::__normal_iterator.5"* %6 to i8*
  %21 = bitcast %"class.__gnu_cxx::__normal_iterator.5"* %3 to i8*
  call void @llvm.memcpy.p0i8.p0i8.i64(i8* align 8 %20, i8* align 8 %21, i64 8, i1 false)
  %22 = call %"struct.std::pair"* @_ZNK9__gnu_cxx17__normal_iteratorIPSt4pairIdiESt6vectorIS2_SaIS2_EEEplEl(%"class.__gnu_cxx::__normal_iterator.5"* noundef nonnull align 8 dereferenceable(8) %3, i64 noundef 16) #3
  %23 = getelementptr inbounds %"class.__gnu_cxx::__normal_iterator.5", %"class.__gnu_cxx::__normal_iterator.5"* %7, i32 0, i32 0
  store %"struct.std::pair"* %22, %"struct.std::pair"** %23, align 8
  %24 = getelementptr inbounds %"class.__gnu_cxx::__normal_iterator.5", %"class.__gnu_cxx::__normal_iterator.5"* %6, i32 0, i32 0
  %25 = load %"struct.std::pair"*, %"struct.std::pair"** %24, align 8
  %26 = getelementptr inbounds %"class.__gnu_cxx::__normal_iterator.5", %"class.__gnu_cxx::__normal_iterator.5"* %7, i32 0, i32 0
  %27 = load %"struct.std::pair"*, %"struct.std::pair"** %26, align 8
  call void @_ZSt16__insertion_sortIN9__gnu_cxx17__normal_iteratorIPSt4pairIdiESt6vectorIS3_SaIS3_EEEENS0_5__ops15_Iter_less_iterEEvT_SB_T0_(%"struct.std::pair"* %25, %"struct.std::pair"* %27)
  %28 = call %"struct.std::pair"* @_ZNK9__gnu_cxx17__normal_iteratorIPSt4pairIdiESt6vectorIS2_SaIS2_EEEplEl(%"class.__gnu_cxx::__normal_iterator.5"* noundef nonnull align 8 dereferenceable(8) %3, i64 noundef 16) #3
  %29 = getelementptr inbounds %"class.__gnu_cxx::__normal_iterator.5", %"class.__gnu_cxx::__normal_iterator.5"* %9, i32 0, i32 0
  store %"struct.std::pair"* %28, %"struct.std::pair"** %29, align 8
  %30 = bitcast %"class.__gnu_cxx::__normal_iterator.5"* %10 to i8*
  %31 = bitcast %"class.__gnu_cxx::__normal_iterator.5"* %4 to i8*
  call void @llvm.memcpy.p0i8.p0i8.i64(i8* align 8 %30, i8* align 8 %31, i64 8, i1 false)
  %32 = getelementptr inbounds %"class.__gnu_cxx::__normal_iterator.5", %"class.__gnu_cxx::__normal_iterator.5"* %9, i32 0, i32 0
  %33 = load %"struct.std::pair"*, %"struct.std::pair"** %32, align 8
  %34 = getelementptr inbounds %"class.__gnu_cxx::__normal_iterator.5", %"class.__gnu_cxx::__normal_iterator.5"* %10, i32 0, i32 0
  %35 = load %"struct.std::pair"*, %"struct.std::pair"** %34, align 8
  call void @_ZSt26__unguarded_insertion_sortIN9__gnu_cxx17__normal_iteratorIPSt4pairIdiESt6vectorIS3_SaIS3_EEEENS0_5__ops15_Iter_less_iterEEvT_SB_T0_(%"struct.std::pair"* %33, %"struct.std::pair"* %35)
  br label %45

36:                                               ; preds = %2
  %37 = bitcast %"class.__gnu_cxx::__normal_iterator.5"* %12 to i8*
  %38 = bitcast %"class.__gnu_cxx::__normal_iterator.5"* %3 to i8*
  call void @llvm.memcpy.p0i8.p0i8.i64(i8* align 8 %37, i8* align 8 %38, i64 8, i1 false)
  %39 = bitcast %"class.__gnu_cxx::__normal_iterator.5"* %13 to i8*
  %40 = bitcast %"class.__gnu_cxx::__normal_iterator.5"* %4 to i8*
  call void @llvm.memcpy.p0i8.p0i8.i64(i8* align 8 %39, i8* align 8 %40, i64 8, i1 false)
  %41 = getelementptr inbounds %"class.__gnu_cxx::__normal_iterator.5", %"class.__gnu_cxx::__normal_iterator.5"* %12, i32 0, i32 0
  %42 = load %"struct.std::pair"*, %"struct.std::pair"** %41, align 8
  %43 = getelementptr inbounds %"class.__gnu_cxx::__normal_iterator.5", %"class.__gnu_cxx::__normal_iterator.5"* %13, i32 0, i32 0
  %44 = load %"struct.std::pair"*, %"struct.std::pair"** %43, align 8
  call void @_ZSt16__insertion_sortIN9__gnu_cxx17__normal_iteratorIPSt4pairIdiESt6vectorIS3_SaIS3_EEEENS0_5__ops15_Iter_less_iterEEvT_SB_T0_(%"struct.std::pair"* %42, %"struct.std::pair"* %44)
  br label %45

45:                                               ; preds = %36, %19
  ret void
}

; Function Attrs: mustprogress noinline optnone uwtable
define linkonce_odr dso_local void @_ZSt14__partial_sortIN9__gnu_cxx17__normal_iteratorIPSt4pairIdiESt6vectorIS3_SaIS3_EEEENS0_5__ops15_Iter_less_iterEEvT_SB_SB_T0_(%"struct.std::pair"* %0, %"struct.std::pair"* %1, %"struct.std::pair"* %2) #6 comdat {
  %4 = alloca %"class.__gnu_cxx::__normal_iterator.5", align 8
  %5 = alloca %"class.__gnu_cxx::__normal_iterator.5", align 8
  %6 = alloca %"class.__gnu_cxx::__normal_iterator.5", align 8
  %7 = alloca %"struct.__gnu_cxx::__ops::_Iter_less_iter", align 1
  %8 = alloca %"class.__gnu_cxx::__normal_iterator.5", align 8
  %9 = alloca %"class.__gnu_cxx::__normal_iterator.5", align 8
  %10 = alloca %"class.__gnu_cxx::__normal_iterator.5", align 8
  %11 = alloca %"struct.__gnu_cxx::__ops::_Iter_less_iter", align 1
  %12 = alloca %"class.__gnu_cxx::__normal_iterator.5", align 8
  %13 = alloca %"class.__gnu_cxx::__normal_iterator.5", align 8
  %14 = getelementptr inbounds %"class.__gnu_cxx::__normal_iterator.5", %"class.__gnu_cxx::__normal_iterator.5"* %4, i32 0, i32 0
  store %"struct.std::pair"* %0, %"struct.std::pair"** %14, align 8
  %15 = getelementptr inbounds %"class.__gnu_cxx::__normal_iterator.5", %"class.__gnu_cxx::__normal_iterator.5"* %5, i32 0, i32 0
  store %"struct.std::pair"* %1, %"struct.std::pair"** %15, align 8
  %16 = getelementptr inbounds %"class.__gnu_cxx::__normal_iterator.5", %"class.__gnu_cxx::__normal_iterator.5"* %6, i32 0, i32 0
  store %"struct.std::pair"* %2, %"struct.std::pair"** %16, align 8
  %17 = bitcast %"class.__gnu_cxx::__normal_iterator.5"* %8 to i8*
  %18 = bitcast %"class.__gnu_cxx::__normal_iterator.5"* %4 to i8*
  call void @llvm.memcpy.p0i8.p0i8.i64(i8* align 8 %17, i8* align 8 %18, i64 8, i1 false)
  %19 = bitcast %"class.__gnu_cxx::__normal_iterator.5"* %9 to i8*
  %20 = bitcast %"class.__gnu_cxx::__normal_iterator.5"* %5 to i8*
  call void @llvm.memcpy.p0i8.p0i8.i64(i8* align 8 %19, i8* align 8 %20, i64 8, i1 false)
  %21 = bitcast %"class.__gnu_cxx::__normal_iterator.5"* %10 to i8*
  %22 = bitcast %"class.__gnu_cxx::__normal_iterator.5"* %6 to i8*
  call void @llvm.memcpy.p0i8.p0i8.i64(i8* align 8 %21, i8* align 8 %22, i64 8, i1 false)
  %23 = getelementptr inbounds %"class.__gnu_cxx::__normal_iterator.5", %"class.__gnu_cxx::__normal_iterator.5"* %8, i32 0, i32 0
  %24 = load %"struct.std::pair"*, %"struct.std::pair"** %23, align 8
  %25 = getelementptr inbounds %"class.__gnu_cxx::__normal_iterator.5", %"class.__gnu_cxx::__normal_iterator.5"* %9, i32 0, i32 0
  %26 = load %"struct.std::pair"*, %"struct.std::pair"** %25, align 8
  %27 = getelementptr inbounds %"class.__gnu_cxx::__normal_iterator.5", %"class.__gnu_cxx::__normal_iterator.5"* %10, i32 0, i32 0
  %28 = load %"struct.std::pair"*, %"struct.std::pair"** %27, align 8
  call void @_ZSt13__heap_selectIN9__gnu_cxx17__normal_iteratorIPSt4pairIdiESt6vectorIS3_SaIS3_EEEENS0_5__ops15_Iter_less_iterEEvT_SB_SB_T0_(%"struct.std::pair"* %24, %"struct.std::pair"* %26, %"struct.std::pair"* %28)
  %29 = bitcast %"class.__gnu_cxx::__normal_iterator.5"* %12 to i8*
  %30 = bitcast %"class.__gnu_cxx::__normal_iterator.5"* %4 to i8*
  call void @llvm.memcpy.p0i8.p0i8.i64(i8* align 8 %29, i8* align 8 %30, i64 8, i1 false)
  %31 = bitcast %"class.__gnu_cxx::__normal_iterator.5"* %13 to i8*
  %32 = bitcast %"class.__gnu_cxx::__normal_iterator.5"* %5 to i8*
  call void @llvm.memcpy.p0i8.p0i8.i64(i8* align 8 %31, i8* align 8 %32, i64 8, i1 false)
  %33 = getelementptr inbounds %"class.__gnu_cxx::__normal_iterator.5", %"class.__gnu_cxx::__normal_iterator.5"* %12, i32 0, i32 0
  %34 = load %"struct.std::pair"*, %"struct.std::pair"** %33, align 8
  %35 = getelementptr inbounds %"class.__gnu_cxx::__normal_iterator.5", %"class.__gnu_cxx::__normal_iterator.5"* %13, i32 0, i32 0
  %36 = load %"struct.std::pair"*, %"struct.std::pair"** %35, align 8
  call void @_ZSt11__sort_heapIN9__gnu_cxx17__normal_iteratorIPSt4pairIdiESt6vectorIS3_SaIS3_EEEENS0_5__ops15_Iter_less_iterEEvT_SB_RT0_(%"struct.std::pair"* %34, %"struct.std::pair"* %36, %"struct.__gnu_cxx::__ops::_Iter_less_iter"* noundef nonnull align 1 dereferenceable(1) %7)
  ret void
}

; Function Attrs: mustprogress noinline optnone uwtable
define linkonce_odr dso_local %"struct.std::pair"* @_ZSt27__unguarded_partition_pivotIN9__gnu_cxx17__normal_iteratorIPSt4pairIdiESt6vectorIS3_SaIS3_EEEENS0_5__ops15_Iter_less_iterEET_SB_SB_T0_(%"struct.std::pair"* %0, %"struct.std::pair"* %1) #6 comdat {
  %3 = alloca %"class.__gnu_cxx::__normal_iterator.5", align 8
  %4 = alloca %"class.__gnu_cxx::__normal_iterator.5", align 8
  %5 = alloca %"class.__gnu_cxx::__normal_iterator.5", align 8
  %6 = alloca %"struct.__gnu_cxx::__ops::_Iter_less_iter", align 1
  %7 = alloca %"class.__gnu_cxx::__normal_iterator.5", align 8
  %8 = alloca %"class.__gnu_cxx::__normal_iterator.5", align 8
  %9 = alloca %"class.__gnu_cxx::__normal_iterator.5", align 8
  %10 = alloca %"class.__gnu_cxx::__normal_iterator.5", align 8
  %11 = alloca %"class.__gnu_cxx::__normal_iterator.5", align 8
  %12 = alloca %"struct.__gnu_cxx::__ops::_Iter_less_iter", align 1
  %13 = alloca %"class.__gnu_cxx::__normal_iterator.5", align 8
  %14 = alloca %"class.__gnu_cxx::__normal_iterator.5", align 8
  %15 = alloca %"class.__gnu_cxx::__normal_iterator.5", align 8
  %16 = alloca %"struct.__gnu_cxx::__ops::_Iter_less_iter", align 1
  %17 = getelementptr inbounds %"class.__gnu_cxx::__normal_iterator.5", %"class.__gnu_cxx::__normal_iterator.5"* %4, i32 0, i32 0
  store %"struct.std::pair"* %0, %"struct.std::pair"** %17, align 8
  %18 = getelementptr inbounds %"class.__gnu_cxx::__normal_iterator.5", %"class.__gnu_cxx::__normal_iterator.5"* %5, i32 0, i32 0
  store %"struct.std::pair"* %1, %"struct.std::pair"** %18, align 8
  %19 = call noundef i64 @_ZN9__gnu_cxxmiIPSt4pairIdiESt6vectorIS2_SaIS2_EEEENS_17__normal_iteratorIT_T0_E15difference_typeERKSA_SD_(%"class.__gnu_cxx::__normal_iterator.5"* noundef nonnull align 8 dereferenceable(8) %5, %"class.__gnu_cxx::__normal_iterator.5"* noundef nonnull align 8 dereferenceable(8) %4) #3
  %20 = sdiv i64 %19, 2
  %21 = call %"struct.std::pair"* @_ZNK9__gnu_cxx17__normal_iteratorIPSt4pairIdiESt6vectorIS2_SaIS2_EEEplEl(%"class.__gnu_cxx::__normal_iterator.5"* noundef nonnull align 8 dereferenceable(8) %4, i64 noundef %20) #3
  %22 = getelementptr inbounds %"class.__gnu_cxx::__normal_iterator.5", %"class.__gnu_cxx::__normal_iterator.5"* %7, i32 0, i32 0
  store %"struct.std::pair"* %21, %"struct.std::pair"** %22, align 8
  %23 = bitcast %"class.__gnu_cxx::__normal_iterator.5"* %8 to i8*
  %24 = bitcast %"class.__gnu_cxx::__normal_iterator.5"* %4 to i8*
  call void @llvm.memcpy.p0i8.p0i8.i64(i8* align 8 %23, i8* align 8 %24, i64 8, i1 false)
  %25 = call %"struct.std::pair"* @_ZNK9__gnu_cxx17__normal_iteratorIPSt4pairIdiESt6vectorIS2_SaIS2_EEEplEl(%"class.__gnu_cxx::__normal_iterator.5"* noundef nonnull align 8 dereferenceable(8) %4, i64 noundef 1) #3
  %26 = getelementptr inbounds %"class.__gnu_cxx::__normal_iterator.5", %"class.__gnu_cxx::__normal_iterator.5"* %9, i32 0, i32 0
  store %"struct.std::pair"* %25, %"struct.std::pair"** %26, align 8
  %27 = bitcast %"class.__gnu_cxx::__normal_iterator.5"* %10 to i8*
  %28 = bitcast %"class.__gnu_cxx::__normal_iterator.5"* %7 to i8*
  call void @llvm.memcpy.p0i8.p0i8.i64(i8* align 8 %27, i8* align 8 %28, i64 8, i1 false)
  %29 = call %"struct.std::pair"* @_ZNK9__gnu_cxx17__normal_iteratorIPSt4pairIdiESt6vectorIS2_SaIS2_EEEmiEl(%"class.__gnu_cxx::__normal_iterator.5"* noundef nonnull align 8 dereferenceable(8) %5, i64 noundef 1) #3
  %30 = getelementptr inbounds %"class.__gnu_cxx::__normal_iterator.5", %"class.__gnu_cxx::__normal_iterator.5"* %11, i32 0, i32 0
  store %"struct.std::pair"* %29, %"struct.std::pair"** %30, align 8
  %31 = getelementptr inbounds %"class.__gnu_cxx::__normal_iterator.5", %"class.__gnu_cxx::__normal_iterator.5"* %8, i32 0, i32 0
  %32 = load %"struct.std::pair"*, %"struct.std::pair"** %31, align 8
  %33 = getelementptr inbounds %"class.__gnu_cxx::__normal_iterator.5", %"class.__gnu_cxx::__normal_iterator.5"* %9, i32 0, i32 0
  %34 = load %"struct.std::pair"*, %"struct.std::pair"** %33, align 8
  %35 = getelementptr inbounds %"class.__gnu_cxx::__normal_iterator.5", %"class.__gnu_cxx::__normal_iterator.5"* %10, i32 0, i32 0
  %36 = load %"struct.std::pair"*, %"struct.std::pair"** %35, align 8
  %37 = getelementptr inbounds %"class.__gnu_cxx::__normal_iterator.5", %"class.__gnu_cxx::__normal_iterator.5"* %11, i32 0, i32 0
  %38 = load %"struct.std::pair"*, %"struct.std::pair"** %37, align 8
  call void @_ZSt22__move_median_to_firstIN9__gnu_cxx17__normal_iteratorIPSt4pairIdiESt6vectorIS3_SaIS3_EEEENS0_5__ops15_Iter_less_iterEEvT_SB_SB_SB_T0_(%"struct.std::pair"* %32, %"struct.std::pair"* %34, %"struct.std::pair"* %36, %"struct.std::pair"* %38)
  %39 = call %"struct.std::pair"* @_ZNK9__gnu_cxx17__normal_iteratorIPSt4pairIdiESt6vectorIS2_SaIS2_EEEplEl(%"class.__gnu_cxx::__normal_iterator.5"* noundef nonnull align 8 dereferenceable(8) %4, i64 noundef 1) #3
  %40 = getelementptr inbounds %"class.__gnu_cxx::__normal_iterator.5", %"class.__gnu_cxx::__normal_iterator.5"* %13, i32 0, i32 0
  store %"struct.std::pair"* %39, %"struct.std::pair"** %40, align 8
  %41 = bitcast %"class.__gnu_cxx::__normal_iterator.5"* %14 to i8*
  %42 = bitcast %"class.__gnu_cxx::__normal_iterator.5"* %5 to i8*
  call void @llvm.memcpy.p0i8.p0i8.i64(i8* align 8 %41, i8* align 8 %42, i64 8, i1 false)
  %43 = bitcast %"class.__gnu_cxx::__normal_iterator.5"* %15 to i8*
  %44 = bitcast %"class.__gnu_cxx::__normal_iterator.5"* %4 to i8*
  call void @llvm.memcpy.p0i8.p0i8.i64(i8* align 8 %43, i8* align 8 %44, i64 8, i1 false)
  %45 = getelementptr inbounds %"class.__gnu_cxx::__normal_iterator.5", %"class.__gnu_cxx::__normal_iterator.5"* %13, i32 0, i32 0
  %46 = load %"struct.std::pair"*, %"struct.std::pair"** %45, align 8
  %47 = getelementptr inbounds %"class.__gnu_cxx::__normal_iterator.5", %"class.__gnu_cxx::__normal_iterator.5"* %14, i32 0, i32 0
  %48 = load %"struct.std::pair"*, %"struct.std::pair"** %47, align 8
  %49 = getelementptr inbounds %"class.__gnu_cxx::__normal_iterator.5", %"class.__gnu_cxx::__normal_iterator.5"* %15, i32 0, i32 0
  %50 = load %"struct.std::pair"*, %"struct.std::pair"** %49, align 8
  %51 = call %"struct.std::pair"* @_ZSt21__unguarded_partitionIN9__gnu_cxx17__normal_iteratorIPSt4pairIdiESt6vectorIS3_SaIS3_EEEENS0_5__ops15_Iter_less_iterEET_SB_SB_SB_T0_(%"struct.std::pair"* %46, %"struct.std::pair"* %48, %"struct.std::pair"* %50)
  %52 = getelementptr inbounds %"class.__gnu_cxx::__normal_iterator.5", %"class.__gnu_cxx::__normal_iterator.5"* %3, i32 0, i32 0
  store %"struct.std::pair"* %51, %"struct.std::pair"** %52, align 8
  %53 = getelementptr inbounds %"class.__gnu_cxx::__normal_iterator.5", %"class.__gnu_cxx::__normal_iterator.5"* %3, i32 0, i32 0
  %54 = load %"struct.std::pair"*, %"struct.std::pair"** %53, align 8
  ret %"struct.std::pair"* %54
}

; Function Attrs: mustprogress noinline optnone uwtable
define linkonce_odr dso_local void @_ZSt13__heap_selectIN9__gnu_cxx17__normal_iteratorIPSt4pairIdiESt6vectorIS3_SaIS3_EEEENS0_5__ops15_Iter_less_iterEEvT_SB_SB_T0_(%"struct.std::pair"* %0, %"struct.std::pair"* %1, %"struct.std::pair"* %2) #6 comdat {
  %4 = alloca %"class.__gnu_cxx::__normal_iterator.5", align 8
  %5 = alloca %"class.__gnu_cxx::__normal_iterator.5", align 8
  %6 = alloca %"class.__gnu_cxx::__normal_iterator.5", align 8
  %7 = alloca %"struct.__gnu_cxx::__ops::_Iter_less_iter", align 1
  %8 = alloca %"class.__gnu_cxx::__normal_iterator.5", align 8
  %9 = alloca %"class.__gnu_cxx::__normal_iterator.5", align 8
  %10 = alloca %"class.__gnu_cxx::__normal_iterator.5", align 8
  %11 = alloca %"class.__gnu_cxx::__normal_iterator.5", align 8
  %12 = alloca %"class.__gnu_cxx::__normal_iterator.5", align 8
  %13 = alloca %"class.__gnu_cxx::__normal_iterator.5", align 8
  %14 = alloca %"class.__gnu_cxx::__normal_iterator.5", align 8
  %15 = alloca %"class.__gnu_cxx::__normal_iterator.5", align 8
  %16 = getelementptr inbounds %"class.__gnu_cxx::__normal_iterator.5", %"class.__gnu_cxx::__normal_iterator.5"* %4, i32 0, i32 0
  store %"struct.std::pair"* %0, %"struct.std::pair"** %16, align 8
  %17 = getelementptr inbounds %"class.__gnu_cxx::__normal_iterator.5", %"class.__gnu_cxx::__normal_iterator.5"* %5, i32 0, i32 0
  store %"struct.std::pair"* %1, %"struct.std::pair"** %17, align 8
  %18 = getelementptr inbounds %"class.__gnu_cxx::__normal_iterator.5", %"class.__gnu_cxx::__normal_iterator.5"* %6, i32 0, i32 0
  store %"struct.std::pair"* %2, %"struct.std::pair"** %18, align 8
  %19 = bitcast %"class.__gnu_cxx::__normal_iterator.5"* %8 to i8*
  %20 = bitcast %"class.__gnu_cxx::__normal_iterator.5"* %4 to i8*
  call void @llvm.memcpy.p0i8.p0i8.i64(i8* align 8 %19, i8* align 8 %20, i64 8, i1 false)
  %21 = bitcast %"class.__gnu_cxx::__normal_iterator.5"* %9 to i8*
  %22 = bitcast %"class.__gnu_cxx::__normal_iterator.5"* %5 to i8*
  call void @llvm.memcpy.p0i8.p0i8.i64(i8* align 8 %21, i8* align 8 %22, i64 8, i1 false)
  %23 = getelementptr inbounds %"class.__gnu_cxx::__normal_iterator.5", %"class.__gnu_cxx::__normal_iterator.5"* %8, i32 0, i32 0
  %24 = load %"struct.std::pair"*, %"struct.std::pair"** %23, align 8
  %25 = getelementptr inbounds %"class.__gnu_cxx::__normal_iterator.5", %"class.__gnu_cxx::__normal_iterator.5"* %9, i32 0, i32 0
  %26 = load %"struct.std::pair"*, %"struct.std::pair"** %25, align 8
  call void @_ZSt11__make_heapIN9__gnu_cxx17__normal_iteratorIPSt4pairIdiESt6vectorIS3_SaIS3_EEEENS0_5__ops15_Iter_less_iterEEvT_SB_RT0_(%"struct.std::pair"* %24, %"struct.std::pair"* %26, %"struct.__gnu_cxx::__ops::_Iter_less_iter"* noundef nonnull align 1 dereferenceable(1) %7)
  %27 = bitcast %"class.__gnu_cxx::__normal_iterator.5"* %10 to i8*
  %28 = bitcast %"class.__gnu_cxx::__normal_iterator.5"* %5 to i8*
  call void @llvm.memcpy.p0i8.p0i8.i64(i8* align 8 %27, i8* align 8 %28, i64 8, i1 false)
  br label %29

29:                                               ; preds = %55, %3
  %30 = call noundef zeroext i1 @_ZN9__gnu_cxxltIPSt4pairIdiESt6vectorIS2_SaIS2_EEEEbRKNS_17__normal_iteratorIT_T0_EESC_(%"class.__gnu_cxx::__normal_iterator.5"* noundef nonnull align 8 dereferenceable(8) %10, %"class.__gnu_cxx::__normal_iterator.5"* noundef nonnull align 8 dereferenceable(8) %6) #3
  br i1 %30, label %31, label %57

31:                                               ; preds = %29
  %32 = bitcast %"class.__gnu_cxx::__normal_iterator.5"* %11 to i8*
  %33 = bitcast %"class.__gnu_cxx::__normal_iterator.5"* %10 to i8*
  call void @llvm.memcpy.p0i8.p0i8.i64(i8* align 8 %32, i8* align 8 %33, i64 8, i1 false)
  %34 = bitcast %"class.__gnu_cxx::__normal_iterator.5"* %12 to i8*
  %35 = bitcast %"class.__gnu_cxx::__normal_iterator.5"* %4 to i8*
  call void @llvm.memcpy.p0i8.p0i8.i64(i8* align 8 %34, i8* align 8 %35, i64 8, i1 false)
  %36 = getelementptr inbounds %"class.__gnu_cxx::__normal_iterator.5", %"class.__gnu_cxx::__normal_iterator.5"* %11, i32 0, i32 0
  %37 = load %"struct.std::pair"*, %"struct.std::pair"** %36, align 8
  %38 = getelementptr inbounds %"class.__gnu_cxx::__normal_iterator.5", %"class.__gnu_cxx::__normal_iterator.5"* %12, i32 0, i32 0
  %39 = load %"struct.std::pair"*, %"struct.std::pair"** %38, align 8
  %40 = call noundef zeroext i1 @_ZNK9__gnu_cxx5__ops15_Iter_less_iterclINS_17__normal_iteratorIPSt4pairIdiESt6vectorIS5_SaIS5_EEEESA_EEbT_T0_(%"struct.__gnu_cxx::__ops::_Iter_less_iter"* noundef nonnull align 1 dereferenceable(1) %7, %"struct.std::pair"* %37, %"struct.std::pair"* %39)
  br i1 %40, label %41, label %54

41:                                               ; preds = %31
  %42 = bitcast %"class.__gnu_cxx::__normal_iterator.5"* %13 to i8*
  %43 = bitcast %"class.__gnu_cxx::__normal_iterator.5"* %4 to i8*
  call void @llvm.memcpy.p0i8.p0i8.i64(i8* align 8 %42, i8* align 8 %43, i64 8, i1 false)
  %44 = bitcast %"class.__gnu_cxx::__normal_iterator.5"* %14 to i8*
  %45 = bitcast %"class.__gnu_cxx::__normal_iterator.5"* %5 to i8*
  call void @llvm.memcpy.p0i8.p0i8.i64(i8* align 8 %44, i8* align 8 %45, i64 8, i1 false)
  %46 = bitcast %"class.__gnu_cxx::__normal_iterator.5"* %15 to i8*
  %47 = bitcast %"class.__gnu_cxx::__normal_iterator.5"* %10 to i8*
  call void @llvm.memcpy.p0i8.p0i8.i64(i8* align 8 %46, i8* align 8 %47, i64 8, i1 false)
  %48 = getelementptr inbounds %"class.__gnu_cxx::__normal_iterator.5", %"class.__gnu_cxx::__normal_iterator.5"* %13, i32 0, i32 0
  %49 = load %"struct.std::pair"*, %"struct.std::pair"** %48, align 8
  %50 = getelementptr inbounds %"class.__gnu_cxx::__normal_iterator.5", %"class.__gnu_cxx::__normal_iterator.5"* %14, i32 0, i32 0
  %51 = load %"struct.std::pair"*, %"struct.std::pair"** %50, align 8
  %52 = getelementptr inbounds %"class.__gnu_cxx::__normal_iterator.5", %"class.__gnu_cxx::__normal_iterator.5"* %15, i32 0, i32 0
  %53 = load %"struct.std::pair"*, %"struct.std::pair"** %52, align 8
  call void @_ZSt10__pop_heapIN9__gnu_cxx17__normal_iteratorIPSt4pairIdiESt6vectorIS3_SaIS3_EEEENS0_5__ops15_Iter_less_iterEEvT_SB_SB_RT0_(%"struct.std::pair"* %49, %"struct.std::pair"* %51, %"struct.std::pair"* %53, %"struct.__gnu_cxx::__ops::_Iter_less_iter"* noundef nonnull align 1 dereferenceable(1) %7)
  br label %54

54:                                               ; preds = %41, %31
  br label %55

55:                                               ; preds = %54
  %56 = call noundef nonnull align 8 dereferenceable(8) %"class.__gnu_cxx::__normal_iterator.5"* @_ZN9__gnu_cxx17__normal_iteratorIPSt4pairIdiESt6vectorIS2_SaIS2_EEEppEv(%"class.__gnu_cxx::__normal_iterator.5"* noundef nonnull align 8 dereferenceable(8) %10) #3
  br label %29, !llvm.loop !11

57:                                               ; preds = %29
  ret void
}

; Function Attrs: mustprogress noinline optnone uwtable
define linkonce_odr dso_local void @_ZSt11__sort_heapIN9__gnu_cxx17__normal_iteratorIPSt4pairIdiESt6vectorIS3_SaIS3_EEEENS0_5__ops15_Iter_less_iterEEvT_SB_RT0_(%"struct.std::pair"* %0, %"struct.std::pair"* %1, %"struct.__gnu_cxx::__ops::_Iter_less_iter"* noundef nonnull align 1 dereferenceable(1) %2) #6 comdat {
  %4 = alloca %"class.__gnu_cxx::__normal_iterator.5", align 8
  %5 = alloca %"class.__gnu_cxx::__normal_iterator.5", align 8
  %6 = alloca %"struct.__gnu_cxx::__ops::_Iter_less_iter"*, align 8
  %7 = alloca %"class.__gnu_cxx::__normal_iterator.5", align 8
  %8 = alloca %"class.__gnu_cxx::__normal_iterator.5", align 8
  %9 = alloca %"class.__gnu_cxx::__normal_iterator.5", align 8
  %10 = getelementptr inbounds %"class.__gnu_cxx::__normal_iterator.5", %"class.__gnu_cxx::__normal_iterator.5"* %4, i32 0, i32 0
  store %"struct.std::pair"* %0, %"struct.std::pair"** %10, align 8
  %11 = getelementptr inbounds %"class.__gnu_cxx::__normal_iterator.5", %"class.__gnu_cxx::__normal_iterator.5"* %5, i32 0, i32 0
  store %"struct.std::pair"* %1, %"struct.std::pair"** %11, align 8
  store %"struct.__gnu_cxx::__ops::_Iter_less_iter"* %2, %"struct.__gnu_cxx::__ops::_Iter_less_iter"** %6, align 8
  br label %12

12:                                               ; preds = %15, %3
  %13 = call noundef i64 @_ZN9__gnu_cxxmiIPSt4pairIdiESt6vectorIS2_SaIS2_EEEENS_17__normal_iteratorIT_T0_E15difference_typeERKSA_SD_(%"class.__gnu_cxx::__normal_iterator.5"* noundef nonnull align 8 dereferenceable(8) %5, %"class.__gnu_cxx::__normal_iterator.5"* noundef nonnull align 8 dereferenceable(8) %4) #3
  %14 = icmp sgt i64 %13, 1
  br i1 %14, label %15, label %30

15:                                               ; preds = %12
  %16 = call noundef nonnull align 8 dereferenceable(8) %"class.__gnu_cxx::__normal_iterator.5"* @_ZN9__gnu_cxx17__normal_iteratorIPSt4pairIdiESt6vectorIS2_SaIS2_EEEmmEv(%"class.__gnu_cxx::__normal_iterator.5"* noundef nonnull align 8 dereferenceable(8) %5) #3
  %17 = bitcast %"class.__gnu_cxx::__normal_iterator.5"* %7 to i8*
  %18 = bitcast %"class.__gnu_cxx::__normal_iterator.5"* %4 to i8*
  call void @llvm.memcpy.p0i8.p0i8.i64(i8* align 8 %17, i8* align 8 %18, i64 8, i1 false)
  %19 = bitcast %"class.__gnu_cxx::__normal_iterator.5"* %8 to i8*
  %20 = bitcast %"class.__gnu_cxx::__normal_iterator.5"* %5 to i8*
  call void @llvm.memcpy.p0i8.p0i8.i64(i8* align 8 %19, i8* align 8 %20, i64 8, i1 false)
  %21 = bitcast %"class.__gnu_cxx::__normal_iterator.5"* %9 to i8*
  %22 = bitcast %"class.__gnu_cxx::__normal_iterator.5"* %5 to i8*
  call void @llvm.memcpy.p0i8.p0i8.i64(i8* align 8 %21, i8* align 8 %22, i64 8, i1 false)
  %23 = load %"struct.__gnu_cxx::__ops::_Iter_less_iter"*, %"struct.__gnu_cxx::__ops::_Iter_less_iter"** %6, align 8
  %24 = getelementptr inbounds %"class.__gnu_cxx::__normal_iterator.5", %"class.__gnu_cxx::__normal_iterator.5"* %7, i32 0, i32 0
  %25 = load %"struct.std::pair"*, %"struct.std::pair"** %24, align 8
  %26 = getelementptr inbounds %"class.__gnu_cxx::__normal_iterator.5", %"class.__gnu_cxx::__normal_iterator.5"* %8, i32 0, i32 0
  %27 = load %"struct.std::pair"*, %"struct.std::pair"** %26, align 8
  %28 = getelementptr inbounds %"class.__gnu_cxx::__normal_iterator.5", %"class.__gnu_cxx::__normal_iterator.5"* %9, i32 0, i32 0
  %29 = load %"struct.std::pair"*, %"struct.std::pair"** %28, align 8
  call void @_ZSt10__pop_heapIN9__gnu_cxx17__normal_iteratorIPSt4pairIdiESt6vectorIS3_SaIS3_EEEENS0_5__ops15_Iter_less_iterEEvT_SB_SB_RT0_(%"struct.std::pair"* %25, %"struct.std::pair"* %27, %"struct.std::pair"* %29, %"struct.__gnu_cxx::__ops::_Iter_less_iter"* noundef nonnull align 1 dereferenceable(1) %23)
  br label %12, !llvm.loop !12

30:                                               ; preds = %12
  ret void
}

; Function Attrs: mustprogress noinline optnone uwtable
define linkonce_odr dso_local void @_ZSt11__make_heapIN9__gnu_cxx17__normal_iteratorIPSt4pairIdiESt6vectorIS3_SaIS3_EEEENS0_5__ops15_Iter_less_iterEEvT_SB_RT0_(%"struct.std::pair"* %0, %"struct.std::pair"* %1, %"struct.__gnu_cxx::__ops::_Iter_less_iter"* noundef nonnull align 1 dereferenceable(1) %2) #6 comdat {
  %4 = alloca %"class.__gnu_cxx::__normal_iterator.5", align 8
  %5 = alloca %"class.__gnu_cxx::__normal_iterator.5", align 8
  %6 = alloca %"struct.__gnu_cxx::__ops::_Iter_less_iter"*, align 8
  %7 = alloca i64, align 8
  %8 = alloca i64, align 8
  %9 = alloca %"struct.std::pair", align 8
  %10 = alloca %"class.__gnu_cxx::__normal_iterator.5", align 8
  %11 = alloca %"class.__gnu_cxx::__normal_iterator.5", align 8
  %12 = alloca %"struct.std::pair", align 8
  %13 = alloca %"struct.__gnu_cxx::__ops::_Iter_less_iter", align 1
  %14 = getelementptr inbounds %"class.__gnu_cxx::__normal_iterator.5", %"class.__gnu_cxx::__normal_iterator.5"* %4, i32 0, i32 0
  store %"struct.std::pair"* %0, %"struct.std::pair"** %14, align 8
  %15 = getelementptr inbounds %"class.__gnu_cxx::__normal_iterator.5", %"class.__gnu_cxx::__normal_iterator.5"* %5, i32 0, i32 0
  store %"struct.std::pair"* %1, %"struct.std::pair"** %15, align 8
  store %"struct.__gnu_cxx::__ops::_Iter_less_iter"* %2, %"struct.__gnu_cxx::__ops::_Iter_less_iter"** %6, align 8
  %16 = call noundef i64 @_ZN9__gnu_cxxmiIPSt4pairIdiESt6vectorIS2_SaIS2_EEEENS_17__normal_iteratorIT_T0_E15difference_typeERKSA_SD_(%"class.__gnu_cxx::__normal_iterator.5"* noundef nonnull align 8 dereferenceable(8) %5, %"class.__gnu_cxx::__normal_iterator.5"* noundef nonnull align 8 dereferenceable(8) %4) #3
  %17 = icmp slt i64 %16, 2
  br i1 %17, label %18, label %19

18:                                               ; preds = %3
  br label %53

19:                                               ; preds = %3
  %20 = call noundef i64 @_ZN9__gnu_cxxmiIPSt4pairIdiESt6vectorIS2_SaIS2_EEEENS_17__normal_iteratorIT_T0_E15difference_typeERKSA_SD_(%"class.__gnu_cxx::__normal_iterator.5"* noundef nonnull align 8 dereferenceable(8) %5, %"class.__gnu_cxx::__normal_iterator.5"* noundef nonnull align 8 dereferenceable(8) %4) #3
  store i64 %20, i64* %7, align 8
  %21 = load i64, i64* %7, align 8
  %22 = sub nsw i64 %21, 2
  %23 = sdiv i64 %22, 2
  store i64 %23, i64* %8, align 8
  br label %24

24:                                               ; preds = %19, %50
  %25 = load i64, i64* %8, align 8
  %26 = call %"struct.std::pair"* @_ZNK9__gnu_cxx17__normal_iteratorIPSt4pairIdiESt6vectorIS2_SaIS2_EEEplEl(%"class.__gnu_cxx::__normal_iterator.5"* noundef nonnull align 8 dereferenceable(8) %4, i64 noundef %25) #3
  %27 = getelementptr inbounds %"class.__gnu_cxx::__normal_iterator.5", %"class.__gnu_cxx::__normal_iterator.5"* %10, i32 0, i32 0
  store %"struct.std::pair"* %26, %"struct.std::pair"** %27, align 8
  %28 = call noundef nonnull align 8 dereferenceable(12) %"struct.std::pair"* @_ZNK9__gnu_cxx17__normal_iteratorIPSt4pairIdiESt6vectorIS2_SaIS2_EEEdeEv(%"class.__gnu_cxx::__normal_iterator.5"* noundef nonnull align 8 dereferenceable(8) %10) #3
  %29 = call noundef nonnull align 8 dereferenceable(12) %"struct.std::pair"* @_ZSt4moveIRSt4pairIdiEEONSt16remove_referenceIT_E4typeEOS4_(%"struct.std::pair"* noundef nonnull align 8 dereferenceable(12) %28) #3
  %30 = bitcast %"struct.std::pair"* %9 to i8*
  %31 = bitcast %"struct.std::pair"* %29 to i8*
  call void @llvm.memcpy.p0i8.p0i8.i64(i8* align 8 %30, i8* align 8 %31, i64 16, i1 false)
  %32 = bitcast %"class.__gnu_cxx::__normal_iterator.5"* %11 to i8*
  %33 = bitcast %"class.__gnu_cxx::__normal_iterator.5"* %4 to i8*
  call void @llvm.memcpy.p0i8.p0i8.i64(i8* align 8 %32, i8* align 8 %33, i64 8, i1 false)
  %34 = load i64, i64* %8, align 8
  %35 = load i64, i64* %7, align 8
  %36 = call noundef nonnull align 8 dereferenceable(12) %"struct.std::pair"* @_ZSt4moveIRSt4pairIdiEEONSt16remove_referenceIT_E4typeEOS4_(%"struct.std::pair"* noundef nonnull align 8 dereferenceable(12) %9) #3
  %37 = bitcast %"struct.std::pair"* %12 to i8*
  %38 = bitcast %"struct.std::pair"* %36 to i8*
  call void @llvm.memcpy.p0i8.p0i8.i64(i8* align 8 %37, i8* align 8 %38, i64 16, i1 false)
  %39 = load %"struct.__gnu_cxx::__ops::_Iter_less_iter"*, %"struct.__gnu_cxx::__ops::_Iter_less_iter"** %6, align 8
  %40 = getelementptr inbounds %"class.__gnu_cxx::__normal_iterator.5", %"class.__gnu_cxx::__normal_iterator.5"* %11, i32 0, i32 0
  %41 = load %"struct.std::pair"*, %"struct.std::pair"** %40, align 8
  %42 = bitcast %"struct.std::pair"* %12 to { double, i32 }*
  %43 = getelementptr inbounds { double, i32 }, { double, i32 }* %42, i32 0, i32 0
  %44 = load double, double* %43, align 8
  %45 = getelementptr inbounds { double, i32 }, { double, i32 }* %42, i32 0, i32 1
  %46 = load i32, i32* %45, align 8
  call void @_ZSt13__adjust_heapIN9__gnu_cxx17__normal_iteratorIPSt4pairIdiESt6vectorIS3_SaIS3_EEEElS3_NS0_5__ops15_Iter_less_iterEEvT_T0_SC_T1_T2_(%"struct.std::pair"* %41, i64 noundef %34, i64 noundef %35, double %44, i32 %46)
  %47 = load i64, i64* %8, align 8
  %48 = icmp eq i64 %47, 0
  br i1 %48, label %49, label %50

49:                                               ; preds = %24
  br label %53

50:                                               ; preds = %24
  %51 = load i64, i64* %8, align 8
  %52 = add nsw i64 %51, -1
  store i64 %52, i64* %8, align 8
  br label %24, !llvm.loop !13

53:                                               ; preds = %49, %18
  ret void
}

; Function Attrs: mustprogress noinline nounwind optnone uwtable
define linkonce_odr dso_local noundef zeroext i1 @_ZN9__gnu_cxxltIPSt4pairIdiESt6vectorIS2_SaIS2_EEEEbRKNS_17__normal_iteratorIT_T0_EESC_(%"class.__gnu_cxx::__normal_iterator.5"* noundef nonnull align 8 dereferenceable(8) %0, %"class.__gnu_cxx::__normal_iterator.5"* noundef nonnull align 8 dereferenceable(8) %1) #4 comdat {
  %3 = alloca %"class.__gnu_cxx::__normal_iterator.5"*, align 8
  %4 = alloca %"class.__gnu_cxx::__normal_iterator.5"*, align 8
  store %"class.__gnu_cxx::__normal_iterator.5"* %0, %"class.__gnu_cxx::__normal_iterator.5"** %3, align 8
  store %"class.__gnu_cxx::__normal_iterator.5"* %1, %"class.__gnu_cxx::__normal_iterator.5"** %4, align 8
  %5 = load %"class.__gnu_cxx::__normal_iterator.5"*, %"class.__gnu_cxx::__normal_iterator.5"** %3, align 8
  %6 = call noundef nonnull align 8 dereferenceable(8) %"struct.std::pair"** @_ZNK9__gnu_cxx17__normal_iteratorIPSt4pairIdiESt6vectorIS2_SaIS2_EEE4baseEv(%"class.__gnu_cxx::__normal_iterator.5"* noundef nonnull align 8 dereferenceable(8) %5) #3
  %7 = load %"struct.std::pair"*, %"struct.std::pair"** %6, align 8
  %8 = load %"class.__gnu_cxx::__normal_iterator.5"*, %"class.__gnu_cxx::__normal_iterator.5"** %4, align 8
  %9 = call noundef nonnull align 8 dereferenceable(8) %"struct.std::pair"** @_ZNK9__gnu_cxx17__normal_iteratorIPSt4pairIdiESt6vectorIS2_SaIS2_EEE4baseEv(%"class.__gnu_cxx::__normal_iterator.5"* noundef nonnull align 8 dereferenceable(8) %8) #3
  %10 = load %"struct.std::pair"*, %"struct.std::pair"** %9, align 8
  %11 = icmp ult %"struct.std::pair"* %7, %10
  ret i1 %11
}

; Function Attrs: mustprogress noinline nounwind optnone uwtable
define linkonce_odr dso_local noundef zeroext i1 @_ZNK9__gnu_cxx5__ops15_Iter_less_iterclINS_17__normal_iteratorIPSt4pairIdiESt6vectorIS5_SaIS5_EEEESA_EEbT_T0_(%"struct.__gnu_cxx::__ops::_Iter_less_iter"* noundef nonnull align 1 dereferenceable(1) %0, %"struct.std::pair"* %1, %"struct.std::pair"* %2) #4 comdat align 2 {
  %4 = alloca %"class.__gnu_cxx::__normal_iterator.5", align 8
  %5 = alloca %"class.__gnu_cxx::__normal_iterator.5", align 8
  %6 = alloca %"struct.__gnu_cxx::__ops::_Iter_less_iter"*, align 8
  %7 = getelementptr inbounds %"class.__gnu_cxx::__normal_iterator.5", %"class.__gnu_cxx::__normal_iterator.5"* %4, i32 0, i32 0
  store %"struct.std::pair"* %1, %"struct.std::pair"** %7, align 8
  %8 = getelementptr inbounds %"class.__gnu_cxx::__normal_iterator.5", %"class.__gnu_cxx::__normal_iterator.5"* %5, i32 0, i32 0
  store %"struct.std::pair"* %2, %"struct.std::pair"** %8, align 8
  store %"struct.__gnu_cxx::__ops::_Iter_less_iter"* %0, %"struct.__gnu_cxx::__ops::_Iter_less_iter"** %6, align 8
  %9 = load %"struct.__gnu_cxx::__ops::_Iter_less_iter"*, %"struct.__gnu_cxx::__ops::_Iter_less_iter"** %6, align 8
  %10 = call noundef nonnull align 8 dereferenceable(12) %"struct.std::pair"* @_ZNK9__gnu_cxx17__normal_iteratorIPSt4pairIdiESt6vectorIS2_SaIS2_EEEdeEv(%"class.__gnu_cxx::__normal_iterator.5"* noundef nonnull align 8 dereferenceable(8) %4) #3
  %11 = call noundef nonnull align 8 dereferenceable(12) %"struct.std::pair"* @_ZNK9__gnu_cxx17__normal_iteratorIPSt4pairIdiESt6vectorIS2_SaIS2_EEEdeEv(%"class.__gnu_cxx::__normal_iterator.5"* noundef nonnull align 8 dereferenceable(8) %5) #3
  %12 = call noundef zeroext i1 @_ZStltIdiEbRKSt4pairIT_T0_ES5_(%"struct.std::pair"* noundef nonnull align 8 dereferenceable(12) %10, %"struct.std::pair"* noundef nonnull align 8 dereferenceable(12) %11)
  ret i1 %12
}

; Function Attrs: mustprogress noinline optnone uwtable
define linkonce_odr dso_local void @_ZSt10__pop_heapIN9__gnu_cxx17__normal_iteratorIPSt4pairIdiESt6vectorIS3_SaIS3_EEEENS0_5__ops15_Iter_less_iterEEvT_SB_SB_RT0_(%"struct.std::pair"* %0, %"struct.std::pair"* %1, %"struct.std::pair"* %2, %"struct.__gnu_cxx::__ops::_Iter_less_iter"* noundef nonnull align 1 dereferenceable(1) %3) #6 comdat {
  %5 = alloca %"class.__gnu_cxx::__normal_iterator.5", align 8
  %6 = alloca %"class.__gnu_cxx::__normal_iterator.5", align 8
  %7 = alloca %"class.__gnu_cxx::__normal_iterator.5", align 8
  %8 = alloca %"struct.__gnu_cxx::__ops::_Iter_less_iter"*, align 8
  %9 = alloca %"struct.std::pair", align 8
  %10 = alloca %"class.__gnu_cxx::__normal_iterator.5", align 8
  %11 = alloca %"struct.std::pair", align 8
  %12 = alloca %"struct.__gnu_cxx::__ops::_Iter_less_iter", align 1
  %13 = getelementptr inbounds %"class.__gnu_cxx::__normal_iterator.5", %"class.__gnu_cxx::__normal_iterator.5"* %5, i32 0, i32 0
  store %"struct.std::pair"* %0, %"struct.std::pair"** %13, align 8
  %14 = getelementptr inbounds %"class.__gnu_cxx::__normal_iterator.5", %"class.__gnu_cxx::__normal_iterator.5"* %6, i32 0, i32 0
  store %"struct.std::pair"* %1, %"struct.std::pair"** %14, align 8
  %15 = getelementptr inbounds %"class.__gnu_cxx::__normal_iterator.5", %"class.__gnu_cxx::__normal_iterator.5"* %7, i32 0, i32 0
  store %"struct.std::pair"* %2, %"struct.std::pair"** %15, align 8
  store %"struct.__gnu_cxx::__ops::_Iter_less_iter"* %3, %"struct.__gnu_cxx::__ops::_Iter_less_iter"** %8, align 8
  %16 = call noundef nonnull align 8 dereferenceable(12) %"struct.std::pair"* @_ZNK9__gnu_cxx17__normal_iteratorIPSt4pairIdiESt6vectorIS2_SaIS2_EEEdeEv(%"class.__gnu_cxx::__normal_iterator.5"* noundef nonnull align 8 dereferenceable(8) %7) #3
  %17 = call noundef nonnull align 8 dereferenceable(12) %"struct.std::pair"* @_ZSt4moveIRSt4pairIdiEEONSt16remove_referenceIT_E4typeEOS4_(%"struct.std::pair"* noundef nonnull align 8 dereferenceable(12) %16) #3
  %18 = bitcast %"struct.std::pair"* %9 to i8*
  %19 = bitcast %"struct.std::pair"* %17 to i8*
  call void @llvm.memcpy.p0i8.p0i8.i64(i8* align 8 %18, i8* align 8 %19, i64 16, i1 false)
  %20 = call noundef nonnull align 8 dereferenceable(12) %"struct.std::pair"* @_ZNK9__gnu_cxx17__normal_iteratorIPSt4pairIdiESt6vectorIS2_SaIS2_EEEdeEv(%"class.__gnu_cxx::__normal_iterator.5"* noundef nonnull align 8 dereferenceable(8) %5) #3
  %21 = call noundef nonnull align 8 dereferenceable(12) %"struct.std::pair"* @_ZSt4moveIRSt4pairIdiEEONSt16remove_referenceIT_E4typeEOS4_(%"struct.std::pair"* noundef nonnull align 8 dereferenceable(12) %20) #3
  %22 = call noundef nonnull align 8 dereferenceable(12) %"struct.std::pair"* @_ZNK9__gnu_cxx17__normal_iteratorIPSt4pairIdiESt6vectorIS2_SaIS2_EEEdeEv(%"class.__gnu_cxx::__normal_iterator.5"* noundef nonnull align 8 dereferenceable(8) %7) #3
  %23 = call noundef nonnull align 8 dereferenceable(12) %"struct.std::pair"* @_ZNSt4pairIdiEaSEOS0_(%"struct.std::pair"* noundef nonnull align 8 dereferenceable(12) %22, %"struct.std::pair"* noundef nonnull align 8 dereferenceable(12) %21) #3
  %24 = bitcast %"class.__gnu_cxx::__normal_iterator.5"* %10 to i8*
  %25 = bitcast %"class.__gnu_cxx::__normal_iterator.5"* %5 to i8*
  call void @llvm.memcpy.p0i8.p0i8.i64(i8* align 8 %24, i8* align 8 %25, i64 8, i1 false)
  %26 = call noundef i64 @_ZN9__gnu_cxxmiIPSt4pairIdiESt6vectorIS2_SaIS2_EEEENS_17__normal_iteratorIT_T0_E15difference_typeERKSA_SD_(%"class.__gnu_cxx::__normal_iterator.5"* noundef nonnull align 8 dereferenceable(8) %6, %"class.__gnu_cxx::__normal_iterator.5"* noundef nonnull align 8 dereferenceable(8) %5) #3
  %27 = call noundef nonnull align 8 dereferenceable(12) %"struct.std::pair"* @_ZSt4moveIRSt4pairIdiEEONSt16remove_referenceIT_E4typeEOS4_(%"struct.std::pair"* noundef nonnull align 8 dereferenceable(12) %9) #3
  %28 = bitcast %"struct.std::pair"* %11 to i8*
  %29 = bitcast %"struct.std::pair"* %27 to i8*
  call void @llvm.memcpy.p0i8.p0i8.i64(i8* align 8 %28, i8* align 8 %29, i64 16, i1 false)
  %30 = load %"struct.__gnu_cxx::__ops::_Iter_less_iter"*, %"struct.__gnu_cxx::__ops::_Iter_less_iter"** %8, align 8
  %31 = getelementptr inbounds %"class.__gnu_cxx::__normal_iterator.5", %"class.__gnu_cxx::__normal_iterator.5"* %10, i32 0, i32 0
  %32 = load %"struct.std::pair"*, %"struct.std::pair"** %31, align 8
  %33 = bitcast %"struct.std::pair"* %11 to { double, i32 }*
  %34 = getelementptr inbounds { double, i32 }, { double, i32 }* %33, i32 0, i32 0
  %35 = load double, double* %34, align 8
  %36 = getelementptr inbounds { double, i32 }, { double, i32 }* %33, i32 0, i32 1
  %37 = load i32, i32* %36, align 8
  call void @_ZSt13__adjust_heapIN9__gnu_cxx17__normal_iteratorIPSt4pairIdiESt6vectorIS3_SaIS3_EEEElS3_NS0_5__ops15_Iter_less_iterEEvT_T0_SC_T1_T2_(%"struct.std::pair"* %32, i64 noundef 0, i64 noundef %26, double %35, i32 %37)
  ret void
}

; Function Attrs: mustprogress noinline nounwind optnone uwtable
define linkonce_odr dso_local noundef nonnull align 8 dereferenceable(8) %"class.__gnu_cxx::__normal_iterator.5"* @_ZN9__gnu_cxx17__normal_iteratorIPSt4pairIdiESt6vectorIS2_SaIS2_EEEppEv(%"class.__gnu_cxx::__normal_iterator.5"* noundef nonnull align 8 dereferenceable(8) %0) #4 comdat align 2 {
  %2 = alloca %"class.__gnu_cxx::__normal_iterator.5"*, align 8
  store %"class.__gnu_cxx::__normal_iterator.5"* %0, %"class.__gnu_cxx::__normal_iterator.5"** %2, align 8
  %3 = load %"class.__gnu_cxx::__normal_iterator.5"*, %"class.__gnu_cxx::__normal_iterator.5"** %2, align 8
  %4 = getelementptr inbounds %"class.__gnu_cxx::__normal_iterator.5", %"class.__gnu_cxx::__normal_iterator.5"* %3, i32 0, i32 0
  %5 = load %"struct.std::pair"*, %"struct.std::pair"** %4, align 8
  %6 = getelementptr inbounds %"struct.std::pair", %"struct.std::pair"* %5, i32 1
  store %"struct.std::pair"* %6, %"struct.std::pair"** %4, align 8
  ret %"class.__gnu_cxx::__normal_iterator.5"* %3
}

; Function Attrs: mustprogress noinline nounwind optnone uwtable
define linkonce_odr dso_local %"struct.std::pair"* @_ZNK9__gnu_cxx17__normal_iteratorIPSt4pairIdiESt6vectorIS2_SaIS2_EEEplEl(%"class.__gnu_cxx::__normal_iterator.5"* noundef nonnull align 8 dereferenceable(8) %0, i64 noundef %1) #4 comdat align 2 {
  %3 = alloca %"class.__gnu_cxx::__normal_iterator.5", align 8
  %4 = alloca %"class.__gnu_cxx::__normal_iterator.5"*, align 8
  %5 = alloca i64, align 8
  %6 = alloca %"struct.std::pair"*, align 8
  store %"class.__gnu_cxx::__normal_iterator.5"* %0, %"class.__gnu_cxx::__normal_iterator.5"** %4, align 8
  store i64 %1, i64* %5, align 8
  %7 = load %"class.__gnu_cxx::__normal_iterator.5"*, %"class.__gnu_cxx::__normal_iterator.5"** %4, align 8
  %8 = getelementptr inbounds %"class.__gnu_cxx::__normal_iterator.5", %"class.__gnu_cxx::__normal_iterator.5"* %7, i32 0, i32 0
  %9 = load %"struct.std::pair"*, %"struct.std::pair"** %8, align 8
  %10 = load i64, i64* %5, align 8
  %11 = getelementptr inbounds %"struct.std::pair", %"struct.std::pair"* %9, i64 %10
  store %"struct.std::pair"* %11, %"struct.std::pair"** %6, align 8
  call void @_ZN9__gnu_cxx17__normal_iteratorIPSt4pairIdiESt6vectorIS2_SaIS2_EEEC2ERKS3_(%"class.__gnu_cxx::__normal_iterator.5"* noundef nonnull align 8 dereferenceable(8) %3, %"struct.std::pair"** noundef nonnull align 8 dereferenceable(8) %6) #3
  %12 = getelementptr inbounds %"class.__gnu_cxx::__normal_iterator.5", %"class.__gnu_cxx::__normal_iterator.5"* %3, i32 0, i32 0
  %13 = load %"struct.std::pair"*, %"struct.std::pair"** %12, align 8
  ret %"struct.std::pair"* %13
}

; Function Attrs: mustprogress noinline nounwind optnone uwtable
define linkonce_odr dso_local noundef nonnull align 8 dereferenceable(12) %"struct.std::pair"* @_ZNK9__gnu_cxx17__normal_iteratorIPSt4pairIdiESt6vectorIS2_SaIS2_EEEdeEv(%"class.__gnu_cxx::__normal_iterator.5"* noundef nonnull align 8 dereferenceable(8) %0) #4 comdat align 2 {
  %2 = alloca %"class.__gnu_cxx::__normal_iterator.5"*, align 8
  store %"class.__gnu_cxx::__normal_iterator.5"* %0, %"class.__gnu_cxx::__normal_iterator.5"** %2, align 8
  %3 = load %"class.__gnu_cxx::__normal_iterator.5"*, %"class.__gnu_cxx::__normal_iterator.5"** %2, align 8
  %4 = getelementptr inbounds %"class.__gnu_cxx::__normal_iterator.5", %"class.__gnu_cxx::__normal_iterator.5"* %3, i32 0, i32 0
  %5 = load %"struct.std::pair"*, %"struct.std::pair"** %4, align 8
  ret %"struct.std::pair"* %5
}

; Function Attrs: mustprogress noinline optnone uwtable
define linkonce_odr dso_local void @_ZSt13__adjust_heapIN9__gnu_cxx17__normal_iteratorIPSt4pairIdiESt6vectorIS3_SaIS3_EEEElS3_NS0_5__ops15_Iter_less_iterEEvT_T0_SC_T1_T2_(%"struct.std::pair"* %0, i64 noundef %1, i64 noundef %2, double %3, i32 %4) #6 comdat {
  %6 = alloca %"class.__gnu_cxx::__normal_iterator.5", align 8
  %7 = alloca %"struct.std::pair", align 8
  %8 = alloca %"struct.__gnu_cxx::__ops::_Iter_less_iter", align 1
  %9 = alloca i64, align 8
  %10 = alloca i64, align 8
  %11 = alloca i64, align 8
  %12 = alloca i64, align 8
  %13 = alloca %"class.__gnu_cxx::__normal_iterator.5", align 8
  %14 = alloca %"class.__gnu_cxx::__normal_iterator.5", align 8
  %15 = alloca %"class.__gnu_cxx::__normal_iterator.5", align 8
  %16 = alloca %"class.__gnu_cxx::__normal_iterator.5", align 8
  %17 = alloca %"class.__gnu_cxx::__normal_iterator.5", align 8
  %18 = alloca %"class.__gnu_cxx::__normal_iterator.5", align 8
  %19 = alloca %"struct.__gnu_cxx::__ops::_Iter_less_val", align 1
  %20 = alloca %"struct.__gnu_cxx::__ops::_Iter_less_iter", align 1
  %21 = alloca %"class.__gnu_cxx::__normal_iterator.5", align 8
  %22 = alloca %"struct.std::pair", align 8
  %23 = getelementptr inbounds %"class.__gnu_cxx::__normal_iterator.5", %"class.__gnu_cxx::__normal_iterator.5"* %6, i32 0, i32 0
  store %"struct.std::pair"* %0, %"struct.std::pair"** %23, align 8
  %24 = bitcast %"struct.std::pair"* %7 to { double, i32 }*
  %25 = getelementptr inbounds { double, i32 }, { double, i32 }* %24, i32 0, i32 0
  store double %3, double* %25, align 8
  %26 = getelementptr inbounds { double, i32 }, { double, i32 }* %24, i32 0, i32 1
  store i32 %4, i32* %26, align 8
  store i64 %1, i64* %9, align 8
  store i64 %2, i64* %10, align 8
  %27 = load i64, i64* %9, align 8
  store i64 %27, i64* %11, align 8
  %28 = load i64, i64* %9, align 8
  store i64 %28, i64* %12, align 8
  br label %29

29:                                               ; preds = %54, %5
  %30 = load i64, i64* %12, align 8
  %31 = load i64, i64* %10, align 8
  %32 = sub nsw i64 %31, 1
  %33 = sdiv i64 %32, 2
  %34 = icmp slt i64 %30, %33
  br i1 %34, label %35, label %66

35:                                               ; preds = %29
  %36 = load i64, i64* %12, align 8
  %37 = add nsw i64 %36, 1
  %38 = mul nsw i64 2, %37
  store i64 %38, i64* %12, align 8
  %39 = load i64, i64* %12, align 8
  %40 = call %"struct.std::pair"* @_ZNK9__gnu_cxx17__normal_iteratorIPSt4pairIdiESt6vectorIS2_SaIS2_EEEplEl(%"class.__gnu_cxx::__normal_iterator.5"* noundef nonnull align 8 dereferenceable(8) %6, i64 noundef %39) #3
  %41 = getelementptr inbounds %"class.__gnu_cxx::__normal_iterator.5", %"class.__gnu_cxx::__normal_iterator.5"* %13, i32 0, i32 0
  store %"struct.std::pair"* %40, %"struct.std::pair"** %41, align 8
  %42 = load i64, i64* %12, align 8
  %43 = sub nsw i64 %42, 1
  %44 = call %"struct.std::pair"* @_ZNK9__gnu_cxx17__normal_iteratorIPSt4pairIdiESt6vectorIS2_SaIS2_EEEplEl(%"class.__gnu_cxx::__normal_iterator.5"* noundef nonnull align 8 dereferenceable(8) %6, i64 noundef %43) #3
  %45 = getelementptr inbounds %"class.__gnu_cxx::__normal_iterator.5", %"class.__gnu_cxx::__normal_iterator.5"* %14, i32 0, i32 0
  store %"struct.std::pair"* %44, %"struct.std::pair"** %45, align 8
  %46 = getelementptr inbounds %"class.__gnu_cxx::__normal_iterator.5", %"class.__gnu_cxx::__normal_iterator.5"* %13, i32 0, i32 0
  %47 = load %"struct.std::pair"*, %"struct.std::pair"** %46, align 8
  %48 = getelementptr inbounds %"class.__gnu_cxx::__normal_iterator.5", %"class.__gnu_cxx::__normal_iterator.5"* %14, i32 0, i32 0
  %49 = load %"struct.std::pair"*, %"struct.std::pair"** %48, align 8
  %50 = call noundef zeroext i1 @_ZNK9__gnu_cxx5__ops15_Iter_less_iterclINS_17__normal_iteratorIPSt4pairIdiESt6vectorIS5_SaIS5_EEEESA_EEbT_T0_(%"struct.__gnu_cxx::__ops::_Iter_less_iter"* noundef nonnull align 1 dereferenceable(1) %8, %"struct.std::pair"* %47, %"struct.std::pair"* %49)
  br i1 %50, label %51, label %54

51:                                               ; preds = %35
  %52 = load i64, i64* %12, align 8
  %53 = add nsw i64 %52, -1
  store i64 %53, i64* %12, align 8
  br label %54

54:                                               ; preds = %51, %35
  %55 = load i64, i64* %12, align 8
  %56 = call %"struct.std::pair"* @_ZNK9__gnu_cxx17__normal_iteratorIPSt4pairIdiESt6vectorIS2_SaIS2_EEEplEl(%"class.__gnu_cxx::__normal_iterator.5"* noundef nonnull align 8 dereferenceable(8) %6, i64 noundef %55) #3
  %57 = getelementptr inbounds %"class.__gnu_cxx::__normal_iterator.5", %"class.__gnu_cxx::__normal_iterator.5"* %15, i32 0, i32 0
  store %"struct.std::pair"* %56, %"struct.std::pair"** %57, align 8
  %58 = call noundef nonnull align 8 dereferenceable(12) %"struct.std::pair"* @_ZNK9__gnu_cxx17__normal_iteratorIPSt4pairIdiESt6vectorIS2_SaIS2_EEEdeEv(%"class.__gnu_cxx::__normal_iterator.5"* noundef nonnull align 8 dereferenceable(8) %15) #3
  %59 = call noundef nonnull align 8 dereferenceable(12) %"struct.std::pair"* @_ZSt4moveIRSt4pairIdiEEONSt16remove_referenceIT_E4typeEOS4_(%"struct.std::pair"* noundef nonnull align 8 dereferenceable(12) %58) #3
  %60 = load i64, i64* %9, align 8
  %61 = call %"struct.std::pair"* @_ZNK9__gnu_cxx17__normal_iteratorIPSt4pairIdiESt6vectorIS2_SaIS2_EEEplEl(%"class.__gnu_cxx::__normal_iterator.5"* noundef nonnull align 8 dereferenceable(8) %6, i64 noundef %60) #3
  %62 = getelementptr inbounds %"class.__gnu_cxx::__normal_iterator.5", %"class.__gnu_cxx::__normal_iterator.5"* %16, i32 0, i32 0
  store %"struct.std::pair"* %61, %"struct.std::pair"** %62, align 8
  %63 = call noundef nonnull align 8 dereferenceable(12) %"struct.std::pair"* @_ZNK9__gnu_cxx17__normal_iteratorIPSt4pairIdiESt6vectorIS2_SaIS2_EEEdeEv(%"class.__gnu_cxx::__normal_iterator.5"* noundef nonnull align 8 dereferenceable(8) %16) #3
  %64 = call noundef nonnull align 8 dereferenceable(12) %"struct.std::pair"* @_ZNSt4pairIdiEaSEOS0_(%"struct.std::pair"* noundef nonnull align 8 dereferenceable(12) %63, %"struct.std::pair"* noundef nonnull align 8 dereferenceable(12) %59) #3
  %65 = load i64, i64* %12, align 8
  store i64 %65, i64* %9, align 8
  br label %29, !llvm.loop !14

66:                                               ; preds = %29
  %67 = load i64, i64* %10, align 8
  %68 = and i64 %67, 1
  %69 = icmp eq i64 %68, 0
  br i1 %69, label %70, label %93

70:                                               ; preds = %66
  %71 = load i64, i64* %12, align 8
  %72 = load i64, i64* %10, align 8
  %73 = sub nsw i64 %72, 2
  %74 = sdiv i64 %73, 2
  %75 = icmp eq i64 %71, %74
  br i1 %75, label %76, label %93

76:                                               ; preds = %70
  %77 = load i64, i64* %12, align 8
  %78 = add nsw i64 %77, 1
  %79 = mul nsw i64 2, %78
  store i64 %79, i64* %12, align 8
  %80 = load i64, i64* %12, align 8
  %81 = sub nsw i64 %80, 1
  %82 = call %"struct.std::pair"* @_ZNK9__gnu_cxx17__normal_iteratorIPSt4pairIdiESt6vectorIS2_SaIS2_EEEplEl(%"class.__gnu_cxx::__normal_iterator.5"* noundef nonnull align 8 dereferenceable(8) %6, i64 noundef %81) #3
  %83 = getelementptr inbounds %"class.__gnu_cxx::__normal_iterator.5", %"class.__gnu_cxx::__normal_iterator.5"* %17, i32 0, i32 0
  store %"struct.std::pair"* %82, %"struct.std::pair"** %83, align 8
  %84 = call noundef nonnull align 8 dereferenceable(12) %"struct.std::pair"* @_ZNK9__gnu_cxx17__normal_iteratorIPSt4pairIdiESt6vectorIS2_SaIS2_EEEdeEv(%"class.__gnu_cxx::__normal_iterator.5"* noundef nonnull align 8 dereferenceable(8) %17) #3
  %85 = call noundef nonnull align 8 dereferenceable(12) %"struct.std::pair"* @_ZSt4moveIRSt4pairIdiEEONSt16remove_referenceIT_E4typeEOS4_(%"struct.std::pair"* noundef nonnull align 8 dereferenceable(12) %84) #3
  %86 = load i64, i64* %9, align 8
  %87 = call %"struct.std::pair"* @_ZNK9__gnu_cxx17__normal_iteratorIPSt4pairIdiESt6vectorIS2_SaIS2_EEEplEl(%"class.__gnu_cxx::__normal_iterator.5"* noundef nonnull align 8 dereferenceable(8) %6, i64 noundef %86) #3
  %88 = getelementptr inbounds %"class.__gnu_cxx::__normal_iterator.5", %"class.__gnu_cxx::__normal_iterator.5"* %18, i32 0, i32 0
  store %"struct.std::pair"* %87, %"struct.std::pair"** %88, align 8
  %89 = call noundef nonnull align 8 dereferenceable(12) %"struct.std::pair"* @_ZNK9__gnu_cxx17__normal_iteratorIPSt4pairIdiESt6vectorIS2_SaIS2_EEEdeEv(%"class.__gnu_cxx::__normal_iterator.5"* noundef nonnull align 8 dereferenceable(8) %18) #3
  %90 = call noundef nonnull align 8 dereferenceable(12) %"struct.std::pair"* @_ZNSt4pairIdiEaSEOS0_(%"struct.std::pair"* noundef nonnull align 8 dereferenceable(12) %89, %"struct.std::pair"* noundef nonnull align 8 dereferenceable(12) %85) #3
  %91 = load i64, i64* %12, align 8
  %92 = sub nsw i64 %91, 1
  store i64 %92, i64* %9, align 8
  br label %93

93:                                               ; preds = %76, %70, %66
  %94 = call noundef nonnull align 1 dereferenceable(1) %"struct.__gnu_cxx::__ops::_Iter_less_iter"* @_ZSt4moveIRN9__gnu_cxx5__ops15_Iter_less_iterEEONSt16remove_referenceIT_E4typeEOS5_(%"struct.__gnu_cxx::__ops::_Iter_less_iter"* noundef nonnull align 1 dereferenceable(1) %8) #3
  call void @_ZN9__gnu_cxx5__ops14_Iter_less_valC2ENS0_15_Iter_less_iterE(%"struct.__gnu_cxx::__ops::_Iter_less_val"* noundef nonnull align 1 dereferenceable(1) %19)
  %95 = bitcast %"class.__gnu_cxx::__normal_iterator.5"* %21 to i8*
  %96 = bitcast %"class.__gnu_cxx::__normal_iterator.5"* %6 to i8*
  call void @llvm.memcpy.p0i8.p0i8.i64(i8* align 8 %95, i8* align 8 %96, i64 8, i1 false)
  %97 = load i64, i64* %9, align 8
  %98 = load i64, i64* %11, align 8
  %99 = call noundef nonnull align 8 dereferenceable(12) %"struct.std::pair"* @_ZSt4moveIRSt4pairIdiEEONSt16remove_referenceIT_E4typeEOS4_(%"struct.std::pair"* noundef nonnull align 8 dereferenceable(12) %7) #3
  %100 = bitcast %"struct.std::pair"* %22 to i8*
  %101 = bitcast %"struct.std::pair"* %99 to i8*
  call void @llvm.memcpy.p0i8.p0i8.i64(i8* align 8 %100, i8* align 8 %101, i64 16, i1 false)
  %102 = getelementptr inbounds %"class.__gnu_cxx::__normal_iterator.5", %"class.__gnu_cxx::__normal_iterator.5"* %21, i32 0, i32 0
  %103 = load %"struct.std::pair"*, %"struct.std::pair"** %102, align 8
  %104 = bitcast %"struct.std::pair"* %22 to { double, i32 }*
  %105 = getelementptr inbounds { double, i32 }, { double, i32 }* %104, i32 0, i32 0
  %106 = load double, double* %105, align 8
  %107 = getelementptr inbounds { double, i32 }, { double, i32 }* %104, i32 0, i32 1
  %108 = load i32, i32* %107, align 8
  call void @_ZSt11__push_heapIN9__gnu_cxx17__normal_iteratorIPSt4pairIdiESt6vectorIS3_SaIS3_EEEElS3_NS0_5__ops14_Iter_less_valEEvT_T0_SC_T1_RT2_(%"struct.std::pair"* %103, i64 noundef %97, i64 noundef %98, double %106, i32 %108, %"struct.__gnu_cxx::__ops::_Iter_less_val"* noundef nonnull align 1 dereferenceable(1) %19)
  ret void
}

; Function Attrs: mustprogress noinline nounwind optnone uwtable
define linkonce_odr dso_local noundef nonnull align 8 dereferenceable(12) %"struct.std::pair"* @_ZNSt4pairIdiEaSEOS0_(%"struct.std::pair"* noundef nonnull align 8 dereferenceable(12) %0, %"struct.std::pair"* noundef nonnull align 8 dereferenceable(12) %1) #4 comdat align 2 {
  %3 = alloca %"struct.std::pair"*, align 8
  %4 = alloca %"struct.std::pair"*, align 8
  store %"struct.std::pair"* %0, %"struct.std::pair"** %3, align 8
  store %"struct.std::pair"* %1, %"struct.std::pair"** %4, align 8
  %5 = load %"struct.std::pair"*, %"struct.std::pair"** %3, align 8
  %6 = load %"struct.std::pair"*, %"struct.std::pair"** %4, align 8
  %7 = getelementptr inbounds %"struct.std::pair", %"struct.std::pair"* %6, i32 0, i32 0
  %8 = call noundef nonnull align 8 dereferenceable(8) double* @_ZSt7forwardIdEOT_RNSt16remove_referenceIS0_E4typeE(double* noundef nonnull align 8 dereferenceable(8) %7) #3
  %9 = load double, double* %8, align 8
  %10 = getelementptr inbounds %"struct.std::pair", %"struct.std::pair"* %5, i32 0, i32 0
  store double %9, double* %10, align 8
  %11 = load %"struct.std::pair"*, %"struct.std::pair"** %4, align 8
  %12 = getelementptr inbounds %"struct.std::pair", %"struct.std::pair"* %11, i32 0, i32 1
  %13 = call noundef nonnull align 4 dereferenceable(4) i32* @_ZSt7forwardIiEOT_RNSt16remove_referenceIS0_E4typeE(i32* noundef nonnull align 4 dereferenceable(4) %12) #3
  %14 = load i32, i32* %13, align 4
  %15 = getelementptr inbounds %"struct.std::pair", %"struct.std::pair"* %5, i32 0, i32 1
  store i32 %14, i32* %15, align 8
  ret %"struct.std::pair"* %5
}

; Function Attrs: mustprogress noinline nounwind optnone uwtable
define linkonce_odr dso_local noundef nonnull align 1 dereferenceable(1) %"struct.__gnu_cxx::__ops::_Iter_less_iter"* @_ZSt4moveIRN9__gnu_cxx5__ops15_Iter_less_iterEEONSt16remove_referenceIT_E4typeEOS5_(%"struct.__gnu_cxx::__ops::_Iter_less_iter"* noundef nonnull align 1 dereferenceable(1) %0) #4 comdat {
  %2 = alloca %"struct.__gnu_cxx::__ops::_Iter_less_iter"*, align 8
  store %"struct.__gnu_cxx::__ops::_Iter_less_iter"* %0, %"struct.__gnu_cxx::__ops::_Iter_less_iter"** %2, align 8
  %3 = load %"struct.__gnu_cxx::__ops::_Iter_less_iter"*, %"struct.__gnu_cxx::__ops::_Iter_less_iter"** %2, align 8
  ret %"struct.__gnu_cxx::__ops::_Iter_less_iter"* %3
}

; Function Attrs: noinline nounwind optnone uwtable
define linkonce_odr dso_local void @_ZN9__gnu_cxx5__ops14_Iter_less_valC2ENS0_15_Iter_less_iterE(%"struct.__gnu_cxx::__ops::_Iter_less_val"* noundef nonnull align 1 dereferenceable(1) %0) unnamed_addr #7 comdat align 2 {
  %2 = alloca %"struct.__gnu_cxx::__ops::_Iter_less_iter", align 1
  %3 = alloca %"struct.__gnu_cxx::__ops::_Iter_less_val"*, align 8
  store %"struct.__gnu_cxx::__ops::_Iter_less_val"* %0, %"struct.__gnu_cxx::__ops::_Iter_less_val"** %3, align 8
  %4 = load %"struct.__gnu_cxx::__ops::_Iter_less_val"*, %"struct.__gnu_cxx::__ops::_Iter_less_val"** %3, align 8
  ret void
}

; Function Attrs: mustprogress noinline optnone uwtable
define linkonce_odr dso_local void @_ZSt11__push_heapIN9__gnu_cxx17__normal_iteratorIPSt4pairIdiESt6vectorIS3_SaIS3_EEEElS3_NS0_5__ops14_Iter_less_valEEvT_T0_SC_T1_RT2_(%"struct.std::pair"* %0, i64 noundef %1, i64 noundef %2, double %3, i32 %4, %"struct.__gnu_cxx::__ops::_Iter_less_val"* noundef nonnull align 1 dereferenceable(1) %5) #6 comdat {
  %7 = alloca %"class.__gnu_cxx::__normal_iterator.5", align 8
  %8 = alloca %"struct.std::pair", align 8
  %9 = alloca i64, align 8
  %10 = alloca i64, align 8
  %11 = alloca %"struct.__gnu_cxx::__ops::_Iter_less_val"*, align 8
  %12 = alloca i64, align 8
  %13 = alloca %"class.__gnu_cxx::__normal_iterator.5", align 8
  %14 = alloca %"class.__gnu_cxx::__normal_iterator.5", align 8
  %15 = alloca %"class.__gnu_cxx::__normal_iterator.5", align 8
  %16 = alloca %"class.__gnu_cxx::__normal_iterator.5", align 8
  %17 = getelementptr inbounds %"class.__gnu_cxx::__normal_iterator.5", %"class.__gnu_cxx::__normal_iterator.5"* %7, i32 0, i32 0
  store %"struct.std::pair"* %0, %"struct.std::pair"** %17, align 8
  %18 = bitcast %"struct.std::pair"* %8 to { double, i32 }*
  %19 = getelementptr inbounds { double, i32 }, { double, i32 }* %18, i32 0, i32 0
  store double %3, double* %19, align 8
  %20 = getelementptr inbounds { double, i32 }, { double, i32 }* %18, i32 0, i32 1
  store i32 %4, i32* %20, align 8
  store i64 %1, i64* %9, align 8
  store i64 %2, i64* %10, align 8
  store %"struct.__gnu_cxx::__ops::_Iter_less_val"* %5, %"struct.__gnu_cxx::__ops::_Iter_less_val"** %11, align 8
  %21 = load i64, i64* %9, align 8
  %22 = sub nsw i64 %21, 1
  %23 = sdiv i64 %22, 2
  store i64 %23, i64* %12, align 8
  br label %24

24:                                               ; preds = %38, %6
  %25 = load i64, i64* %9, align 8
  %26 = load i64, i64* %10, align 8
  %27 = icmp sgt i64 %25, %26
  br i1 %27, label %28, label %36

28:                                               ; preds = %24
  %29 = load %"struct.__gnu_cxx::__ops::_Iter_less_val"*, %"struct.__gnu_cxx::__ops::_Iter_less_val"** %11, align 8
  %30 = load i64, i64* %12, align 8
  %31 = call %"struct.std::pair"* @_ZNK9__gnu_cxx17__normal_iteratorIPSt4pairIdiESt6vectorIS2_SaIS2_EEEplEl(%"class.__gnu_cxx::__normal_iterator.5"* noundef nonnull align 8 dereferenceable(8) %7, i64 noundef %30) #3
  %32 = getelementptr inbounds %"class.__gnu_cxx::__normal_iterator.5", %"class.__gnu_cxx::__normal_iterator.5"* %13, i32 0, i32 0
  store %"struct.std::pair"* %31, %"struct.std::pair"** %32, align 8
  %33 = getelementptr inbounds %"class.__gnu_cxx::__normal_iterator.5", %"class.__gnu_cxx::__normal_iterator.5"* %13, i32 0, i32 0
  %34 = load %"struct.std::pair"*, %"struct.std::pair"** %33, align 8
  %35 = call noundef zeroext i1 @_ZNK9__gnu_cxx5__ops14_Iter_less_valclINS_17__normal_iteratorIPSt4pairIdiESt6vectorIS5_SaIS5_EEEES5_EEbT_RT0_(%"struct.__gnu_cxx::__ops::_Iter_less_val"* noundef nonnull align 1 dereferenceable(1) %29, %"struct.std::pair"* %34, %"struct.std::pair"* noundef nonnull align 8 dereferenceable(12) %8)
  br label %36

36:                                               ; preds = %28, %24
  %37 = phi i1 [ false, %24 ], [ %35, %28 ]
  br i1 %37, label %38, label %53

38:                                               ; preds = %36
  %39 = load i64, i64* %12, align 8
  %40 = call %"struct.std::pair"* @_ZNK9__gnu_cxx17__normal_iteratorIPSt4pairIdiESt6vectorIS2_SaIS2_EEEplEl(%"class.__gnu_cxx::__normal_iterator.5"* noundef nonnull align 8 dereferenceable(8) %7, i64 noundef %39) #3
  %41 = getelementptr inbounds %"class.__gnu_cxx::__normal_iterator.5", %"class.__gnu_cxx::__normal_iterator.5"* %14, i32 0, i32 0
  store %"struct.std::pair"* %40, %"struct.std::pair"** %41, align 8
  %42 = call noundef nonnull align 8 dereferenceable(12) %"struct.std::pair"* @_ZNK9__gnu_cxx17__normal_iteratorIPSt4pairIdiESt6vectorIS2_SaIS2_EEEdeEv(%"class.__gnu_cxx::__normal_iterator.5"* noundef nonnull align 8 dereferenceable(8) %14) #3
  %43 = call noundef nonnull align 8 dereferenceable(12) %"struct.std::pair"* @_ZSt4moveIRSt4pairIdiEEONSt16remove_referenceIT_E4typeEOS4_(%"struct.std::pair"* noundef nonnull align 8 dereferenceable(12) %42) #3
  %44 = load i64, i64* %9, align 8
  %45 = call %"struct.std::pair"* @_ZNK9__gnu_cxx17__normal_iteratorIPSt4pairIdiESt6vectorIS2_SaIS2_EEEplEl(%"class.__gnu_cxx::__normal_iterator.5"* noundef nonnull align 8 dereferenceable(8) %7, i64 noundef %44) #3
  %46 = getelementptr inbounds %"class.__gnu_cxx::__normal_iterator.5", %"class.__gnu_cxx::__normal_iterator.5"* %15, i32 0, i32 0
  store %"struct.std::pair"* %45, %"struct.std::pair"** %46, align 8
  %47 = call noundef nonnull align 8 dereferenceable(12) %"struct.std::pair"* @_ZNK9__gnu_cxx17__normal_iteratorIPSt4pairIdiESt6vectorIS2_SaIS2_EEEdeEv(%"class.__gnu_cxx::__normal_iterator.5"* noundef nonnull align 8 dereferenceable(8) %15) #3
  %48 = call noundef nonnull align 8 dereferenceable(12) %"struct.std::pair"* @_ZNSt4pairIdiEaSEOS0_(%"struct.std::pair"* noundef nonnull align 8 dereferenceable(12) %47, %"struct.std::pair"* noundef nonnull align 8 dereferenceable(12) %43) #3
  %49 = load i64, i64* %12, align 8
  store i64 %49, i64* %9, align 8
  %50 = load i64, i64* %9, align 8
  %51 = sub nsw i64 %50, 1
  %52 = sdiv i64 %51, 2
  store i64 %52, i64* %12, align 8
  br label %24, !llvm.loop !15

53:                                               ; preds = %36
  %54 = call noundef nonnull align 8 dereferenceable(12) %"struct.std::pair"* @_ZSt4moveIRSt4pairIdiEEONSt16remove_referenceIT_E4typeEOS4_(%"struct.std::pair"* noundef nonnull align 8 dereferenceable(12) %8) #3
  %55 = load i64, i64* %9, align 8
  %56 = call %"struct.std::pair"* @_ZNK9__gnu_cxx17__normal_iteratorIPSt4pairIdiESt6vectorIS2_SaIS2_EEEplEl(%"class.__gnu_cxx::__normal_iterator.5"* noundef nonnull align 8 dereferenceable(8) %7, i64 noundef %55) #3
  %57 = getelementptr inbounds %"class.__gnu_cxx::__normal_iterator.5", %"class.__gnu_cxx::__normal_iterator.5"* %16, i32 0, i32 0
  store %"struct.std::pair"* %56, %"struct.std::pair"** %57, align 8
  %58 = call noundef nonnull align 8 dereferenceable(12) %"struct.std::pair"* @_ZNK9__gnu_cxx17__normal_iteratorIPSt4pairIdiESt6vectorIS2_SaIS2_EEEdeEv(%"class.__gnu_cxx::__normal_iterator.5"* noundef nonnull align 8 dereferenceable(8) %16) #3
  %59 = call noundef nonnull align 8 dereferenceable(12) %"struct.std::pair"* @_ZNSt4pairIdiEaSEOS0_(%"struct.std::pair"* noundef nonnull align 8 dereferenceable(12) %58, %"struct.std::pair"* noundef nonnull align 8 dereferenceable(12) %54) #3
  ret void
}

; Function Attrs: mustprogress noinline nounwind optnone uwtable
define linkonce_odr dso_local noundef nonnull align 8 dereferenceable(8) double* @_ZSt7forwardIdEOT_RNSt16remove_referenceIS0_E4typeE(double* noundef nonnull align 8 dereferenceable(8) %0) #4 comdat {
  %2 = alloca double*, align 8
  store double* %0, double** %2, align 8
  %3 = load double*, double** %2, align 8
  ret double* %3
}

; Function Attrs: mustprogress noinline nounwind optnone uwtable
define linkonce_odr dso_local noundef nonnull align 4 dereferenceable(4) i32* @_ZSt7forwardIiEOT_RNSt16remove_referenceIS0_E4typeE(i32* noundef nonnull align 4 dereferenceable(4) %0) #4 comdat {
  %2 = alloca i32*, align 8
  store i32* %0, i32** %2, align 8
  %3 = load i32*, i32** %2, align 8
  ret i32* %3
}

; Function Attrs: mustprogress noinline optnone uwtable
define linkonce_odr dso_local noundef zeroext i1 @_ZNK9__gnu_cxx5__ops14_Iter_less_valclINS_17__normal_iteratorIPSt4pairIdiESt6vectorIS5_SaIS5_EEEES5_EEbT_RT0_(%"struct.__gnu_cxx::__ops::_Iter_less_val"* noundef nonnull align 1 dereferenceable(1) %0, %"struct.std::pair"* %1, %"struct.std::pair"* noundef nonnull align 8 dereferenceable(12) %2) #6 comdat align 2 {
  %4 = alloca %"class.__gnu_cxx::__normal_iterator.5", align 8
  %5 = alloca %"struct.__gnu_cxx::__ops::_Iter_less_val"*, align 8
  %6 = alloca %"struct.std::pair"*, align 8
  %7 = getelementptr inbounds %"class.__gnu_cxx::__normal_iterator.5", %"class.__gnu_cxx::__normal_iterator.5"* %4, i32 0, i32 0
  store %"struct.std::pair"* %1, %"struct.std::pair"** %7, align 8
  store %"struct.__gnu_cxx::__ops::_Iter_less_val"* %0, %"struct.__gnu_cxx::__ops::_Iter_less_val"** %5, align 8
  store %"struct.std::pair"* %2, %"struct.std::pair"** %6, align 8
  %8 = load %"struct.__gnu_cxx::__ops::_Iter_less_val"*, %"struct.__gnu_cxx::__ops::_Iter_less_val"** %5, align 8
  %9 = call noundef nonnull align 8 dereferenceable(12) %"struct.std::pair"* @_ZNK9__gnu_cxx17__normal_iteratorIPSt4pairIdiESt6vectorIS2_SaIS2_EEEdeEv(%"class.__gnu_cxx::__normal_iterator.5"* noundef nonnull align 8 dereferenceable(8) %4) #3
  %10 = load %"struct.std::pair"*, %"struct.std::pair"** %6, align 8
  %11 = call noundef zeroext i1 @_ZStltIdiEbRKSt4pairIT_T0_ES5_(%"struct.std::pair"* noundef nonnull align 8 dereferenceable(12) %9, %"struct.std::pair"* noundef nonnull align 8 dereferenceable(12) %10)
  ret i1 %11
}

; Function Attrs: mustprogress noinline nounwind optnone uwtable
define linkonce_odr dso_local noundef zeroext i1 @_ZStltIdiEbRKSt4pairIT_T0_ES5_(%"struct.std::pair"* noundef nonnull align 8 dereferenceable(12) %0, %"struct.std::pair"* noundef nonnull align 8 dereferenceable(12) %1) #4 comdat {
  %3 = alloca %"struct.std::pair"*, align 8
  %4 = alloca %"struct.std::pair"*, align 8
  store %"struct.std::pair"* %0, %"struct.std::pair"** %3, align 8
  store %"struct.std::pair"* %1, %"struct.std::pair"** %4, align 8
  %5 = load %"struct.std::pair"*, %"struct.std::pair"** %3, align 8
  %6 = getelementptr inbounds %"struct.std::pair", %"struct.std::pair"* %5, i32 0, i32 0
  %7 = load double, double* %6, align 8
  %8 = load %"struct.std::pair"*, %"struct.std::pair"** %4, align 8
  %9 = getelementptr inbounds %"struct.std::pair", %"struct.std::pair"* %8, i32 0, i32 0
  %10 = load double, double* %9, align 8
  %11 = fcmp olt double %7, %10
  br i1 %11, label %30, label %12

12:                                               ; preds = %2
  %13 = load %"struct.std::pair"*, %"struct.std::pair"** %4, align 8
  %14 = getelementptr inbounds %"struct.std::pair", %"struct.std::pair"* %13, i32 0, i32 0
  %15 = load double, double* %14, align 8
  %16 = load %"struct.std::pair"*, %"struct.std::pair"** %3, align 8
  %17 = getelementptr inbounds %"struct.std::pair", %"struct.std::pair"* %16, i32 0, i32 0
  %18 = load double, double* %17, align 8
  %19 = fcmp olt double %15, %18
  br i1 %19, label %28, label %20

20:                                               ; preds = %12
  %21 = load %"struct.std::pair"*, %"struct.std::pair"** %3, align 8
  %22 = getelementptr inbounds %"struct.std::pair", %"struct.std::pair"* %21, i32 0, i32 1
  %23 = load i32, i32* %22, align 8
  %24 = load %"struct.std::pair"*, %"struct.std::pair"** %4, align 8
  %25 = getelementptr inbounds %"struct.std::pair", %"struct.std::pair"* %24, i32 0, i32 1
  %26 = load i32, i32* %25, align 8
  %27 = icmp slt i32 %23, %26
  br label %28

28:                                               ; preds = %20, %12
  %29 = phi i1 [ false, %12 ], [ %27, %20 ]
  br label %30

30:                                               ; preds = %28, %2
  %31 = phi i1 [ true, %2 ], [ %29, %28 ]
  ret i1 %31
}

; Function Attrs: mustprogress noinline nounwind optnone uwtable
define linkonce_odr dso_local noundef nonnull align 8 dereferenceable(8) %"class.__gnu_cxx::__normal_iterator.5"* @_ZN9__gnu_cxx17__normal_iteratorIPSt4pairIdiESt6vectorIS2_SaIS2_EEEmmEv(%"class.__gnu_cxx::__normal_iterator.5"* noundef nonnull align 8 dereferenceable(8) %0) #4 comdat align 2 {
  %2 = alloca %"class.__gnu_cxx::__normal_iterator.5"*, align 8
  store %"class.__gnu_cxx::__normal_iterator.5"* %0, %"class.__gnu_cxx::__normal_iterator.5"** %2, align 8
  %3 = load %"class.__gnu_cxx::__normal_iterator.5"*, %"class.__gnu_cxx::__normal_iterator.5"** %2, align 8
  %4 = getelementptr inbounds %"class.__gnu_cxx::__normal_iterator.5", %"class.__gnu_cxx::__normal_iterator.5"* %3, i32 0, i32 0
  %5 = load %"struct.std::pair"*, %"struct.std::pair"** %4, align 8
  %6 = getelementptr inbounds %"struct.std::pair", %"struct.std::pair"* %5, i32 -1
  store %"struct.std::pair"* %6, %"struct.std::pair"** %4, align 8
  ret %"class.__gnu_cxx::__normal_iterator.5"* %3
}

; Function Attrs: mustprogress noinline optnone uwtable
define linkonce_odr dso_local void @_ZSt22__move_median_to_firstIN9__gnu_cxx17__normal_iteratorIPSt4pairIdiESt6vectorIS3_SaIS3_EEEENS0_5__ops15_Iter_less_iterEEvT_SB_SB_SB_T0_(%"struct.std::pair"* %0, %"struct.std::pair"* %1, %"struct.std::pair"* %2, %"struct.std::pair"* %3) #6 comdat {
  %5 = alloca %"class.__gnu_cxx::__normal_iterator.5", align 8
  %6 = alloca %"class.__gnu_cxx::__normal_iterator.5", align 8
  %7 = alloca %"class.__gnu_cxx::__normal_iterator.5", align 8
  %8 = alloca %"class.__gnu_cxx::__normal_iterator.5", align 8
  %9 = alloca %"struct.__gnu_cxx::__ops::_Iter_less_iter", align 1
  %10 = alloca %"class.__gnu_cxx::__normal_iterator.5", align 8
  %11 = alloca %"class.__gnu_cxx::__normal_iterator.5", align 8
  %12 = alloca %"class.__gnu_cxx::__normal_iterator.5", align 8
  %13 = alloca %"class.__gnu_cxx::__normal_iterator.5", align 8
  %14 = alloca %"class.__gnu_cxx::__normal_iterator.5", align 8
  %15 = alloca %"class.__gnu_cxx::__normal_iterator.5", align 8
  %16 = alloca %"class.__gnu_cxx::__normal_iterator.5", align 8
  %17 = alloca %"class.__gnu_cxx::__normal_iterator.5", align 8
  %18 = alloca %"class.__gnu_cxx::__normal_iterator.5", align 8
  %19 = alloca %"class.__gnu_cxx::__normal_iterator.5", align 8
  %20 = alloca %"class.__gnu_cxx::__normal_iterator.5", align 8
  %21 = alloca %"class.__gnu_cxx::__normal_iterator.5", align 8
  %22 = alloca %"class.__gnu_cxx::__normal_iterator.5", align 8
  %23 = alloca %"class.__gnu_cxx::__normal_iterator.5", align 8
  %24 = alloca %"class.__gnu_cxx::__normal_iterator.5", align 8
  %25 = alloca %"class.__gnu_cxx::__normal_iterator.5", align 8
  %26 = alloca %"class.__gnu_cxx::__normal_iterator.5", align 8
  %27 = alloca %"class.__gnu_cxx::__normal_iterator.5", align 8
  %28 = alloca %"class.__gnu_cxx::__normal_iterator.5", align 8
  %29 = alloca %"class.__gnu_cxx::__normal_iterator.5", align 8
  %30 = alloca %"class.__gnu_cxx::__normal_iterator.5", align 8
  %31 = alloca %"class.__gnu_cxx::__normal_iterator.5", align 8
  %32 = getelementptr inbounds %"class.__gnu_cxx::__normal_iterator.5", %"class.__gnu_cxx::__normal_iterator.5"* %5, i32 0, i32 0
  store %"struct.std::pair"* %0, %"struct.std::pair"** %32, align 8
  %33 = getelementptr inbounds %"class.__gnu_cxx::__normal_iterator.5", %"class.__gnu_cxx::__normal_iterator.5"* %6, i32 0, i32 0
  store %"struct.std::pair"* %1, %"struct.std::pair"** %33, align 8
  %34 = getelementptr inbounds %"class.__gnu_cxx::__normal_iterator.5", %"class.__gnu_cxx::__normal_iterator.5"* %7, i32 0, i32 0
  store %"struct.std::pair"* %2, %"struct.std::pair"** %34, align 8
  %35 = getelementptr inbounds %"class.__gnu_cxx::__normal_iterator.5", %"class.__gnu_cxx::__normal_iterator.5"* %8, i32 0, i32 0
  store %"struct.std::pair"* %3, %"struct.std::pair"** %35, align 8
  %36 = bitcast %"class.__gnu_cxx::__normal_iterator.5"* %10 to i8*
  %37 = bitcast %"class.__gnu_cxx::__normal_iterator.5"* %6 to i8*
  call void @llvm.memcpy.p0i8.p0i8.i64(i8* align 8 %36, i8* align 8 %37, i64 8, i1 false)
  %38 = bitcast %"class.__gnu_cxx::__normal_iterator.5"* %11 to i8*
  %39 = bitcast %"class.__gnu_cxx::__normal_iterator.5"* %7 to i8*
  call void @llvm.memcpy.p0i8.p0i8.i64(i8* align 8 %38, i8* align 8 %39, i64 8, i1 false)
  %40 = getelementptr inbounds %"class.__gnu_cxx::__normal_iterator.5", %"class.__gnu_cxx::__normal_iterator.5"* %10, i32 0, i32 0
  %41 = load %"struct.std::pair"*, %"struct.std::pair"** %40, align 8
  %42 = getelementptr inbounds %"class.__gnu_cxx::__normal_iterator.5", %"class.__gnu_cxx::__normal_iterator.5"* %11, i32 0, i32 0
  %43 = load %"struct.std::pair"*, %"struct.std::pair"** %42, align 8
  %44 = call noundef zeroext i1 @_ZNK9__gnu_cxx5__ops15_Iter_less_iterclINS_17__normal_iteratorIPSt4pairIdiESt6vectorIS5_SaIS5_EEEESA_EEbT_T0_(%"struct.__gnu_cxx::__ops::_Iter_less_iter"* noundef nonnull align 1 dereferenceable(1) %9, %"struct.std::pair"* %41, %"struct.std::pair"* %43)
  br i1 %44, label %45, label %94

45:                                               ; preds = %4
  %46 = bitcast %"class.__gnu_cxx::__normal_iterator.5"* %12 to i8*
  %47 = bitcast %"class.__gnu_cxx::__normal_iterator.5"* %7 to i8*
  call void @llvm.memcpy.p0i8.p0i8.i64(i8* align 8 %46, i8* align 8 %47, i64 8, i1 false)
  %48 = bitcast %"class.__gnu_cxx::__normal_iterator.5"* %13 to i8*
  %49 = bitcast %"class.__gnu_cxx::__normal_iterator.5"* %8 to i8*
  call void @llvm.memcpy.p0i8.p0i8.i64(i8* align 8 %48, i8* align 8 %49, i64 8, i1 false)
  %50 = getelementptr inbounds %"class.__gnu_cxx::__normal_iterator.5", %"class.__gnu_cxx::__normal_iterator.5"* %12, i32 0, i32 0
  %51 = load %"struct.std::pair"*, %"struct.std::pair"** %50, align 8
  %52 = getelementptr inbounds %"class.__gnu_cxx::__normal_iterator.5", %"class.__gnu_cxx::__normal_iterator.5"* %13, i32 0, i32 0
  %53 = load %"struct.std::pair"*, %"struct.std::pair"** %52, align 8
  %54 = call noundef zeroext i1 @_ZNK9__gnu_cxx5__ops15_Iter_less_iterclINS_17__normal_iteratorIPSt4pairIdiESt6vectorIS5_SaIS5_EEEESA_EEbT_T0_(%"struct.__gnu_cxx::__ops::_Iter_less_iter"* noundef nonnull align 1 dereferenceable(1) %9, %"struct.std::pair"* %51, %"struct.std::pair"* %53)
  br i1 %54, label %55, label %64

55:                                               ; preds = %45
  %56 = bitcast %"class.__gnu_cxx::__normal_iterator.5"* %14 to i8*
  %57 = bitcast %"class.__gnu_cxx::__normal_iterator.5"* %5 to i8*
  call void @llvm.memcpy.p0i8.p0i8.i64(i8* align 8 %56, i8* align 8 %57, i64 8, i1 false)
  %58 = bitcast %"class.__gnu_cxx::__normal_iterator.5"* %15 to i8*
  %59 = bitcast %"class.__gnu_cxx::__normal_iterator.5"* %7 to i8*
  call void @llvm.memcpy.p0i8.p0i8.i64(i8* align 8 %58, i8* align 8 %59, i64 8, i1 false)
  %60 = getelementptr inbounds %"class.__gnu_cxx::__normal_iterator.5", %"class.__gnu_cxx::__normal_iterator.5"* %14, i32 0, i32 0
  %61 = load %"struct.std::pair"*, %"struct.std::pair"** %60, align 8
  %62 = getelementptr inbounds %"class.__gnu_cxx::__normal_iterator.5", %"class.__gnu_cxx::__normal_iterator.5"* %15, i32 0, i32 0
  %63 = load %"struct.std::pair"*, %"struct.std::pair"** %62, align 8
  call void @_ZSt9iter_swapIN9__gnu_cxx17__normal_iteratorIPSt4pairIdiESt6vectorIS3_SaIS3_EEEES8_EvT_T0_(%"struct.std::pair"* %61, %"struct.std::pair"* %63)
  br label %93

64:                                               ; preds = %45
  %65 = bitcast %"class.__gnu_cxx::__normal_iterator.5"* %16 to i8*
  %66 = bitcast %"class.__gnu_cxx::__normal_iterator.5"* %6 to i8*
  call void @llvm.memcpy.p0i8.p0i8.i64(i8* align 8 %65, i8* align 8 %66, i64 8, i1 false)
  %67 = bitcast %"class.__gnu_cxx::__normal_iterator.5"* %17 to i8*
  %68 = bitcast %"class.__gnu_cxx::__normal_iterator.5"* %8 to i8*
  call void @llvm.memcpy.p0i8.p0i8.i64(i8* align 8 %67, i8* align 8 %68, i64 8, i1 false)
  %69 = getelementptr inbounds %"class.__gnu_cxx::__normal_iterator.5", %"class.__gnu_cxx::__normal_iterator.5"* %16, i32 0, i32 0
  %70 = load %"struct.std::pair"*, %"struct.std::pair"** %69, align 8
  %71 = getelementptr inbounds %"class.__gnu_cxx::__normal_iterator.5", %"class.__gnu_cxx::__normal_iterator.5"* %17, i32 0, i32 0
  %72 = load %"struct.std::pair"*, %"struct.std::pair"** %71, align 8
  %73 = call noundef zeroext i1 @_ZNK9__gnu_cxx5__ops15_Iter_less_iterclINS_17__normal_iteratorIPSt4pairIdiESt6vectorIS5_SaIS5_EEEESA_EEbT_T0_(%"struct.__gnu_cxx::__ops::_Iter_less_iter"* noundef nonnull align 1 dereferenceable(1) %9, %"struct.std::pair"* %70, %"struct.std::pair"* %72)
  br i1 %73, label %74, label %83

74:                                               ; preds = %64
  %75 = bitcast %"class.__gnu_cxx::__normal_iterator.5"* %18 to i8*
  %76 = bitcast %"class.__gnu_cxx::__normal_iterator.5"* %5 to i8*
  call void @llvm.memcpy.p0i8.p0i8.i64(i8* align 8 %75, i8* align 8 %76, i64 8, i1 false)
  %77 = bitcast %"class.__gnu_cxx::__normal_iterator.5"* %19 to i8*
  %78 = bitcast %"class.__gnu_cxx::__normal_iterator.5"* %8 to i8*
  call void @llvm.memcpy.p0i8.p0i8.i64(i8* align 8 %77, i8* align 8 %78, i64 8, i1 false)
  %79 = getelementptr inbounds %"class.__gnu_cxx::__normal_iterator.5", %"class.__gnu_cxx::__normal_iterator.5"* %18, i32 0, i32 0
  %80 = load %"struct.std::pair"*, %"struct.std::pair"** %79, align 8
  %81 = getelementptr inbounds %"class.__gnu_cxx::__normal_iterator.5", %"class.__gnu_cxx::__normal_iterator.5"* %19, i32 0, i32 0
  %82 = load %"struct.std::pair"*, %"struct.std::pair"** %81, align 8
  call void @_ZSt9iter_swapIN9__gnu_cxx17__normal_iteratorIPSt4pairIdiESt6vectorIS3_SaIS3_EEEES8_EvT_T0_(%"struct.std::pair"* %80, %"struct.std::pair"* %82)
  br label %92

83:                                               ; preds = %64
  %84 = bitcast %"class.__gnu_cxx::__normal_iterator.5"* %20 to i8*
  %85 = bitcast %"class.__gnu_cxx::__normal_iterator.5"* %5 to i8*
  call void @llvm.memcpy.p0i8.p0i8.i64(i8* align 8 %84, i8* align 8 %85, i64 8, i1 false)
  %86 = bitcast %"class.__gnu_cxx::__normal_iterator.5"* %21 to i8*
  %87 = bitcast %"class.__gnu_cxx::__normal_iterator.5"* %6 to i8*
  call void @llvm.memcpy.p0i8.p0i8.i64(i8* align 8 %86, i8* align 8 %87, i64 8, i1 false)
  %88 = getelementptr inbounds %"class.__gnu_cxx::__normal_iterator.5", %"class.__gnu_cxx::__normal_iterator.5"* %20, i32 0, i32 0
  %89 = load %"struct.std::pair"*, %"struct.std::pair"** %88, align 8
  %90 = getelementptr inbounds %"class.__gnu_cxx::__normal_iterator.5", %"class.__gnu_cxx::__normal_iterator.5"* %21, i32 0, i32 0
  %91 = load %"struct.std::pair"*, %"struct.std::pair"** %90, align 8
  call void @_ZSt9iter_swapIN9__gnu_cxx17__normal_iteratorIPSt4pairIdiESt6vectorIS3_SaIS3_EEEES8_EvT_T0_(%"struct.std::pair"* %89, %"struct.std::pair"* %91)
  br label %92

92:                                               ; preds = %83, %74
  br label %93

93:                                               ; preds = %92, %55
  br label %143

94:                                               ; preds = %4
  %95 = bitcast %"class.__gnu_cxx::__normal_iterator.5"* %22 to i8*
  %96 = bitcast %"class.__gnu_cxx::__normal_iterator.5"* %6 to i8*
  call void @llvm.memcpy.p0i8.p0i8.i64(i8* align 8 %95, i8* align 8 %96, i64 8, i1 false)
  %97 = bitcast %"class.__gnu_cxx::__normal_iterator.5"* %23 to i8*
  %98 = bitcast %"class.__gnu_cxx::__normal_iterator.5"* %8 to i8*
  call void @llvm.memcpy.p0i8.p0i8.i64(i8* align 8 %97, i8* align 8 %98, i64 8, i1 false)
  %99 = getelementptr inbounds %"class.__gnu_cxx::__normal_iterator.5", %"class.__gnu_cxx::__normal_iterator.5"* %22, i32 0, i32 0
  %100 = load %"struct.std::pair"*, %"struct.std::pair"** %99, align 8
  %101 = getelementptr inbounds %"class.__gnu_cxx::__normal_iterator.5", %"class.__gnu_cxx::__normal_iterator.5"* %23, i32 0, i32 0
  %102 = load %"struct.std::pair"*, %"struct.std::pair"** %101, align 8
  %103 = call noundef zeroext i1 @_ZNK9__gnu_cxx5__ops15_Iter_less_iterclINS_17__normal_iteratorIPSt4pairIdiESt6vectorIS5_SaIS5_EEEESA_EEbT_T0_(%"struct.__gnu_cxx::__ops::_Iter_less_iter"* noundef nonnull align 1 dereferenceable(1) %9, %"struct.std::pair"* %100, %"struct.std::pair"* %102)
  br i1 %103, label %104, label %113

104:                                              ; preds = %94
  %105 = bitcast %"class.__gnu_cxx::__normal_iterator.5"* %24 to i8*
  %106 = bitcast %"class.__gnu_cxx::__normal_iterator.5"* %5 to i8*
  call void @llvm.memcpy.p0i8.p0i8.i64(i8* align 8 %105, i8* align 8 %106, i64 8, i1 false)
  %107 = bitcast %"class.__gnu_cxx::__normal_iterator.5"* %25 to i8*
  %108 = bitcast %"class.__gnu_cxx::__normal_iterator.5"* %6 to i8*
  call void @llvm.memcpy.p0i8.p0i8.i64(i8* align 8 %107, i8* align 8 %108, i64 8, i1 false)
  %109 = getelementptr inbounds %"class.__gnu_cxx::__normal_iterator.5", %"class.__gnu_cxx::__normal_iterator.5"* %24, i32 0, i32 0
  %110 = load %"struct.std::pair"*, %"struct.std::pair"** %109, align 8
  %111 = getelementptr inbounds %"class.__gnu_cxx::__normal_iterator.5", %"class.__gnu_cxx::__normal_iterator.5"* %25, i32 0, i32 0
  %112 = load %"struct.std::pair"*, %"struct.std::pair"** %111, align 8
  call void @_ZSt9iter_swapIN9__gnu_cxx17__normal_iteratorIPSt4pairIdiESt6vectorIS3_SaIS3_EEEES8_EvT_T0_(%"struct.std::pair"* %110, %"struct.std::pair"* %112)
  br label %142

113:                                              ; preds = %94
  %114 = bitcast %"class.__gnu_cxx::__normal_iterator.5"* %26 to i8*
  %115 = bitcast %"class.__gnu_cxx::__normal_iterator.5"* %7 to i8*
  call void @llvm.memcpy.p0i8.p0i8.i64(i8* align 8 %114, i8* align 8 %115, i64 8, i1 false)
  %116 = bitcast %"class.__gnu_cxx::__normal_iterator.5"* %27 to i8*
  %117 = bitcast %"class.__gnu_cxx::__normal_iterator.5"* %8 to i8*
  call void @llvm.memcpy.p0i8.p0i8.i64(i8* align 8 %116, i8* align 8 %117, i64 8, i1 false)
  %118 = getelementptr inbounds %"class.__gnu_cxx::__normal_iterator.5", %"class.__gnu_cxx::__normal_iterator.5"* %26, i32 0, i32 0
  %119 = load %"struct.std::pair"*, %"struct.std::pair"** %118, align 8
  %120 = getelementptr inbounds %"class.__gnu_cxx::__normal_iterator.5", %"class.__gnu_cxx::__normal_iterator.5"* %27, i32 0, i32 0
  %121 = load %"struct.std::pair"*, %"struct.std::pair"** %120, align 8
  %122 = call noundef zeroext i1 @_ZNK9__gnu_cxx5__ops15_Iter_less_iterclINS_17__normal_iteratorIPSt4pairIdiESt6vectorIS5_SaIS5_EEEESA_EEbT_T0_(%"struct.__gnu_cxx::__ops::_Iter_less_iter"* noundef nonnull align 1 dereferenceable(1) %9, %"struct.std::pair"* %119, %"struct.std::pair"* %121)
  br i1 %122, label %123, label %132

123:                                              ; preds = %113
  %124 = bitcast %"class.__gnu_cxx::__normal_iterator.5"* %28 to i8*
  %125 = bitcast %"class.__gnu_cxx::__normal_iterator.5"* %5 to i8*
  call void @llvm.memcpy.p0i8.p0i8.i64(i8* align 8 %124, i8* align 8 %125, i64 8, i1 false)
  %126 = bitcast %"class.__gnu_cxx::__normal_iterator.5"* %29 to i8*
  %127 = bitcast %"class.__gnu_cxx::__normal_iterator.5"* %8 to i8*
  call void @llvm.memcpy.p0i8.p0i8.i64(i8* align 8 %126, i8* align 8 %127, i64 8, i1 false)
  %128 = getelementptr inbounds %"class.__gnu_cxx::__normal_iterator.5", %"class.__gnu_cxx::__normal_iterator.5"* %28, i32 0, i32 0
  %129 = load %"struct.std::pair"*, %"struct.std::pair"** %128, align 8
  %130 = getelementptr inbounds %"class.__gnu_cxx::__normal_iterator.5", %"class.__gnu_cxx::__normal_iterator.5"* %29, i32 0, i32 0
  %131 = load %"struct.std::pair"*, %"struct.std::pair"** %130, align 8
  call void @_ZSt9iter_swapIN9__gnu_cxx17__normal_iteratorIPSt4pairIdiESt6vectorIS3_SaIS3_EEEES8_EvT_T0_(%"struct.std::pair"* %129, %"struct.std::pair"* %131)
  br label %141

132:                                              ; preds = %113
  %133 = bitcast %"class.__gnu_cxx::__normal_iterator.5"* %30 to i8*
  %134 = bitcast %"class.__gnu_cxx::__normal_iterator.5"* %5 to i8*
  call void @llvm.memcpy.p0i8.p0i8.i64(i8* align 8 %133, i8* align 8 %134, i64 8, i1 false)
  %135 = bitcast %"class.__gnu_cxx::__normal_iterator.5"* %31 to i8*
  %136 = bitcast %"class.__gnu_cxx::__normal_iterator.5"* %7 to i8*
  call void @llvm.memcpy.p0i8.p0i8.i64(i8* align 8 %135, i8* align 8 %136, i64 8, i1 false)
  %137 = getelementptr inbounds %"class.__gnu_cxx::__normal_iterator.5", %"class.__gnu_cxx::__normal_iterator.5"* %30, i32 0, i32 0
  %138 = load %"struct.std::pair"*, %"struct.std::pair"** %137, align 8
  %139 = getelementptr inbounds %"class.__gnu_cxx::__normal_iterator.5", %"class.__gnu_cxx::__normal_iterator.5"* %31, i32 0, i32 0
  %140 = load %"struct.std::pair"*, %"struct.std::pair"** %139, align 8
  call void @_ZSt9iter_swapIN9__gnu_cxx17__normal_iteratorIPSt4pairIdiESt6vectorIS3_SaIS3_EEEES8_EvT_T0_(%"struct.std::pair"* %138, %"struct.std::pair"* %140)
  br label %141

141:                                              ; preds = %132, %123
  br label %142

142:                                              ; preds = %141, %104
  br label %143

143:                                              ; preds = %142, %93
  ret void
}

; Function Attrs: mustprogress noinline nounwind optnone uwtable
define linkonce_odr dso_local %"struct.std::pair"* @_ZNK9__gnu_cxx17__normal_iteratorIPSt4pairIdiESt6vectorIS2_SaIS2_EEEmiEl(%"class.__gnu_cxx::__normal_iterator.5"* noundef nonnull align 8 dereferenceable(8) %0, i64 noundef %1) #4 comdat align 2 {
  %3 = alloca %"class.__gnu_cxx::__normal_iterator.5", align 8
  %4 = alloca %"class.__gnu_cxx::__normal_iterator.5"*, align 8
  %5 = alloca i64, align 8
  %6 = alloca %"struct.std::pair"*, align 8
  store %"class.__gnu_cxx::__normal_iterator.5"* %0, %"class.__gnu_cxx::__normal_iterator.5"** %4, align 8
  store i64 %1, i64* %5, align 8
  %7 = load %"class.__gnu_cxx::__normal_iterator.5"*, %"class.__gnu_cxx::__normal_iterator.5"** %4, align 8
