; ModuleID = 'source.cpp'
source_filename = "source.cpp"
target datalayout = "e-m:e-p270:32:32-p271:32:32-p272:64:64-i64:64-f80:128-n8:16:32:64-S128"
target triple = "x86_64-pc-linux-gnu"

%"class.std::ios_base::Init" = type { i8 }
%"class.std::basic_ostream" = type { i32 (...)**, %"class.std::basic_ios" }
%"class.std::basic_ios" = type { %"class.std::ios_base", %"class.std::basic_ostream"*, i8, i8, %"class.std::basic_streambuf"*, %"class.std::ctype"*, %"class.std::num_put"*, %"class.std::num_get"* }
%"class.std::ios_base" = type { i32 (...)**, i64, i64, i32, i32, i32, %"struct.std::ios_base::_Callback_list"*, %"struct.std::ios_base::_Words", [8 x %"struct.std::ios_base::_Words"], i32, %"struct.std::ios_base::_Words"*, %"class.std::locale" }
%"struct.std::ios_base::_Callback_list" = type { %"struct.std::ios_base::_Callback_list"*, void (i32, %"class.std::ios_base"*, i32)*, i32, i32 }
%"struct.std::ios_base::_Words" = type { i8*, i64 }
%"class.std::locale" = type { %"class.std::locale::_Impl"* }
%"class.std::locale::_Impl" = type { i32, %"class.std::locale::facet"**, i64, %"class.std::locale::facet"**, i8** }
%"class.std::locale::facet" = type <{ i32 (...)**, i32, [4 x i8] }>
%"class.std::basic_streambuf" = type { i32 (...)**, i8*, i8*, i8*, i8*, i8*, i8*, %"class.std::locale" }
%"class.std::ctype" = type <{ %"class.std::locale::facet.base", [4 x i8], %struct.__locale_struct*, i8, [7 x i8], i32*, i32*, i16*, i8, [256 x i8], [256 x i8], i8, [6 x i8] }>
%"class.std::locale::facet.base" = type <{ i32 (...)**, i32 }>
%struct.__locale_struct = type { [13 x %struct.__locale_data*], i16*, i32*, i32*, [13 x i8*] }
%struct.__locale_data = type opaque
%"class.std::num_put" = type { %"class.std::locale::facet.base", [4 x i8] }
%"class.std::num_get" = type { %"class.std::locale::facet.base", [4 x i8] }
%"class.std::vector" = type { %"struct.std::_Vector_base.4" }
%"struct.std::_Vector_base.4" = type { %"struct.std::_Vector_base<DataPoint, std::allocator<DataPoint>>::_Vector_impl" }
%"struct.std::_Vector_base<DataPoint, std::allocator<DataPoint>>::_Vector_impl" = type { %"struct.std::_Vector_base<DataPoint, std::allocator<DataPoint>>::_Vector_impl_data" }
%"struct.std::_Vector_base<DataPoint, std::allocator<DataPoint>>::_Vector_impl_data" = type { %struct.DataPoint*, %struct.DataPoint*, %struct.DataPoint* }
%struct.DataPoint = type { %"class.std::vector.0", %"class.std::__cxx11::basic_string" }
%"class.std::vector.0" = type { %"struct.std::_Vector_base" }
%"struct.std::_Vector_base" = type { %"struct.std::_Vector_base<std::__cxx11::basic_string<char>, std::allocator<std::__cxx11::basic_string<char>>>::_Vector_impl" }
%"struct.std::_Vector_base<std::__cxx11::basic_string<char>, std::allocator<std::__cxx11::basic_string<char>>>::_Vector_impl" = type { %"struct.std::_Vector_base<std::__cxx11::basic_string<char>, std::allocator<std::__cxx11::basic_string<char>>>::_Vector_impl_data" }
%"struct.std::_Vector_base<std::__cxx11::basic_string<char>, std::allocator<std::__cxx11::basic_string<char>>>::_Vector_impl_data" = type { %"class.std::__cxx11::basic_string"*, %"class.std::__cxx11::basic_string"*, %"class.std::__cxx11::basic_string"* }
%"class.std::__cxx11::basic_string" = type { %"struct.std::__cxx11::basic_string<char>::_Alloc_hider", i64, %union.anon }
%"struct.std::__cxx11::basic_string<char>::_Alloc_hider" = type { i8* }
%union.anon = type { i64, [8 x i8] }
%"class.std::basic_ifstream" = type { %"class.std::basic_istream.base", %"class.std::basic_filebuf", %"class.std::basic_ios" }
%"class.std::basic_istream.base" = type { i32 (...)**, i64 }
%"class.std::basic_filebuf" = type { %"class.std::basic_streambuf", %union.pthread_mutex_t, %"class.std::__basic_file", i32, %struct.__mbstate_t, %struct.__mbstate_t, %struct.__mbstate_t, i8*, i64, i8, i8, i8, i8, i8*, i8*, i8, %"class.std::codecvt"*, i8*, i64, i8*, i8* }
%union.pthread_mutex_t = type { %struct.__pthread_mutex_s }
%struct.__pthread_mutex_s = type { i32, i32, i32, i32, i32, i16, i16, %struct.__pthread_internal_list }
%struct.__pthread_internal_list = type { %struct.__pthread_internal_list*, %struct.__pthread_internal_list* }
%"class.std::__basic_file" = type <{ %struct._IO_FILE*, i8, [7 x i8] }>
%struct._IO_FILE = type { i32, i8*, i8*, i8*, i8*, i8*, i8*, i8*, i8*, i8*, i8*, i8*, %struct._IO_marker*, %struct._IO_FILE*, i32, i32, i64, i16, i8, [1 x i8], i8*, i64, %struct._IO_codecvt*, %struct._IO_wide_data*, %struct._IO_FILE*, i8*, i64, i32, [20 x i8] }
%struct._IO_marker = type opaque
%struct._IO_codecvt = type opaque
%struct._IO_wide_data = type opaque
%struct.__mbstate_t = type { i32, %union.anon.8 }
%union.anon.8 = type { i32 }
%"class.std::codecvt" = type { %"class.std::__codecvt_abstract_base.base", %struct.__locale_struct* }
%"class.std::__codecvt_abstract_base.base" = type { %"class.std::locale::facet.base" }
%"class.std::__cxx11::basic_istringstream" = type { %"class.std::basic_istream.base", %"class.std::__cxx11::basic_stringbuf", %"class.std::basic_ios" }
%"class.std::__cxx11::basic_stringbuf" = type { %"class.std::basic_streambuf", i32, %"class.std::__cxx11::basic_string" }
%"class.std::basic_istream" = type { i32 (...)**, i64, %"class.std::basic_ios" }
%"class.std::allocator.5" = type { i8 }

$_ZNSt6vectorINSt7__cxx1112basic_stringIcSt11char_traitsIcESaIcEEESaIS5_EED2Ev = comdat any

$_ZNSt6vectorI9DataPointSaIS0_EED2Ev = comdat any

$__clang_call_terminate = comdat any

$_ZNSt6vectorINSt7__cxx1112basic_stringIcSt11char_traitsIcESaIcEEESaIS5_EE17_M_realloc_insertIJRKS5_EEEvN9__gnu_cxx17__normal_iteratorIPS5_S7_EEDpOT_ = comdat any

$_ZNSt6vectorI9DataPointSaIS0_EE17_M_realloc_insertIJRS_INSt7__cxx1112basic_stringIcSt11char_traitsIcESaIcEEESaIS9_EERS9_EEEvN9__gnu_cxx17__normal_iteratorIPS0_S2_EEDpOT_ = comdat any

$_ZN9DataPointC2ERKSt6vectorINSt7__cxx1112basic_stringIcSt11char_traitsIcESaIcEEESaIS6_EERKS6_ = comdat any

$_ZNSt20__uninitialized_copyILb0EE13__uninit_copyIN9__gnu_cxx17__normal_iteratorIPKNSt7__cxx1112basic_stringIcSt11char_traitsIcESaIcEEESt6vectorIS9_SaIS9_EEEEPS9_EET0_T_SI_SH_ = comdat any

$_ZNSt16allocator_traitsISaI9DataPointEE7destroyIS0_EEvRS1_PT_ = comdat any

@_ZStL8__ioinit = internal global %"class.std::ios_base::Init" zeroinitializer, align 1
@__dso_handle = external hidden global i8
@.str = private unnamed_addr constant [139 x i8] c"/mnt/c/Users/Asus/Desktop/CSE425/Project/Enhanced-IR-Code-for-Compilation-Efficiency-with-LLVM-Clang/Decision-Tree/data/sample_dataset.csv\00", align 1
@_ZSt4cerr = external global %"class.std::basic_ostream", align 8
@.str.1 = private unnamed_addr constant [32 x i8] c"Error opening the dataset file.\00", align 1
@.str.2 = private unnamed_addr constant [6 x i8] c"unacc\00", align 1
@_ZSt4cout = external global %"class.std::basic_ostream", align 8
@.str.3 = private unnamed_addr constant [17 x i8] c"Model accuracy: \00", align 1
@_ZTTSt14basic_ifstreamIcSt11char_traitsIcEE = external unnamed_addr constant [4 x i8*], align 8
@_ZTVSt15basic_streambufIcSt11char_traitsIcEE = external unnamed_addr constant { [16 x i8*] }, align 8
@_ZTTNSt7__cxx1119basic_istringstreamIcSt11char_traitsIcESaIcEEE = external unnamed_addr constant [4 x i8*], align 8
@_ZTVNSt7__cxx1115basic_stringbufIcSt11char_traitsIcESaIcEEE = external unnamed_addr constant { [16 x i8*] }, align 8
@.str.5 = private unnamed_addr constant [26 x i8] c"vector::_M_realloc_insert\00", align 1
@llvm.global_ctors = appending global [1 x { i32, void ()*, i8* }] [{ i32, void ()*, i8* } { i32 65535, void ()* @_GLOBAL__sub_I_source.cpp, i8* null }]

declare void @_ZNSt8ios_base4InitC1Ev(%"class.std::ios_base::Init"* noundef nonnull align 1 dereferenceable(1)) unnamed_addr #0

; Function Attrs: nounwind
declare void @_ZNSt8ios_base4InitD1Ev(%"class.std::ios_base::Init"* noundef nonnull align 1 dereferenceable(1)) unnamed_addr #1

; Function Attrs: nofree nounwind
declare i32 @__cxa_atexit(void (i8*)*, i8*, i8*) local_unnamed_addr #2

; Function Attrs: mustprogress nounwind uwtable
define dso_local noundef double @_Z26decisionTreeClassificationRKSt6vectorI9DataPointSaIS0_EERKS0_(%"class.std::vector"* nocapture nonnull readnone align 1 %0, %struct.DataPoint* nocapture nonnull readnone align 8 %1) local_unnamed_addr #3 {
  %3 = tail call i32 @rand() #16
  %4 = srem i32 %3, 2
  %5 = sitofp i32 %4 to double
  ret double %5
}

; Function Attrs: nounwind
declare i32 @rand() local_unnamed_addr #1

; Function Attrs: norecurse uwtable
define dso_local noundef i32 @main() local_unnamed_addr #4 personality i8* bitcast (i32 (...)* @__gxx_personality_v0 to i8*) {
  %1 = alloca i64, align 8
  %2 = alloca %"class.std::basic_ifstream", align 8
  %3 = alloca %"class.std::vector", align 8
  %4 = alloca %"class.std::vector", align 8
  %5 = alloca %"class.std::__cxx11::basic_string", align 8
  %6 = alloca %"class.std::__cxx11::basic_istringstream", align 8
  %7 = alloca %"class.std::__cxx11::basic_string", align 8
  %8 = alloca %"class.std::vector.0", align 8
  %9 = alloca %"class.std::__cxx11::basic_string", align 8
  %10 = bitcast %"class.std::basic_ifstream"* %2 to i8*
  call void @llvm.lifetime.start.p0i8(i64 520, i8* nonnull %10) #16
  call void @_ZNSt14basic_ifstreamIcSt11char_traitsIcEEC1EPKcSt13_Ios_Openmode(%"class.std::basic_ifstream"* noundef nonnull align 8 dereferenceable(256) %2, i8* noundef getelementptr inbounds ([139 x i8], [139 x i8]* @.str, i64 0, i64 0), i32 noundef 8)
  %11 = getelementptr inbounds %"class.std::basic_ifstream", %"class.std::basic_ifstream"* %2, i64 0, i32 1, i32 2
  %12 = call noundef zeroext i1 @_ZNKSt12__basic_fileIcE7is_openEv(%"class.std::__basic_file"* noundef nonnull align 8 dereferenceable(9) %11) #17
  br i1 %12, label %48, label %13

13:                                               ; preds = %0
  %14 = invoke noundef nonnull align 8 dereferenceable(8) %"class.std::basic_ostream"* @_ZSt16__ostream_insertIcSt11char_traitsIcEERSt13basic_ostreamIT_T0_ES6_PKS3_l(%"class.std::basic_ostream"* noundef nonnull align 8 dereferenceable(8) @_ZSt4cerr, i8* noundef nonnull getelementptr inbounds ([32 x i8], [32 x i8]* @.str.1, i64 0, i64 0), i64 noundef 31)
          to label %15 unwind label %46

15:                                               ; preds = %13
  %16 = load i8*, i8** bitcast (%"class.std::basic_ostream"* @_ZSt4cerr to i8**), align 8, !tbaa !5
  %17 = getelementptr i8, i8* %16, i64 -24
  %18 = bitcast i8* %17 to i64*
  %19 = load i64, i64* %18, align 8
  %20 = getelementptr inbounds i8, i8* bitcast (%"class.std::basic_ostream"* @_ZSt4cerr to i8*), i64 %19
  %21 = getelementptr inbounds i8, i8* %20, i64 240
  %22 = bitcast i8* %21 to %"class.std::ctype"**
  %23 = load %"class.std::ctype"*, %"class.std::ctype"** %22, align 8, !tbaa !8
  %24 = icmp eq %"class.std::ctype"* %23, null
  br i1 %24, label %25, label %27

25:                                               ; preds = %15
  invoke void @_ZSt16__throw_bad_castv() #18
          to label %26 unwind label %46

26:                                               ; preds = %25
  unreachable

27:                                               ; preds = %15
  %28 = getelementptr inbounds %"class.std::ctype", %"class.std::ctype"* %23, i64 0, i32 8
  %29 = load i8, i8* %28, align 8, !tbaa !13
  %30 = icmp eq i8 %29, 0
  br i1 %30, label %34, label %31

31:                                               ; preds = %27
  %32 = getelementptr inbounds %"class.std::ctype", %"class.std::ctype"* %23, i64 0, i32 9, i64 10
  %33 = load i8, i8* %32, align 1, !tbaa !15
  br label %41

34:                                               ; preds = %27
  invoke void @_ZNKSt5ctypeIcE13_M_widen_initEv(%"class.std::ctype"* noundef nonnull align 8 dereferenceable(570) %23)
          to label %35 unwind label %46

35:                                               ; preds = %34
  %36 = bitcast %"class.std::ctype"* %23 to i8 (%"class.std::ctype"*, i8)***
  %37 = load i8 (%"class.std::ctype"*, i8)**, i8 (%"class.std::ctype"*, i8)*** %36, align 8, !tbaa !5
  %38 = getelementptr inbounds i8 (%"class.std::ctype"*, i8)*, i8 (%"class.std::ctype"*, i8)** %37, i64 6
  %39 = load i8 (%"class.std::ctype"*, i8)*, i8 (%"class.std::ctype"*, i8)** %38, align 8
  %40 = invoke noundef signext i8 %39(%"class.std::ctype"* noundef nonnull align 8 dereferenceable(570) %23, i8 noundef signext 10)
          to label %41 unwind label %46

41:                                               ; preds = %35, %31
  %42 = phi i8 [ %33, %31 ], [ %40, %35 ]
  %43 = invoke noundef nonnull align 8 dereferenceable(8) %"class.std::basic_ostream"* @_ZNSo3putEc(%"class.std::basic_ostream"* noundef nonnull align 8 dereferenceable(8) @_ZSt4cerr, i8 noundef signext %42)
          to label %44 unwind label %46

44:                                               ; preds = %41
  %45 = invoke noundef nonnull align 8 dereferenceable(8) %"class.std::basic_ostream"* @_ZNSo5flushEv(%"class.std::basic_ostream"* noundef nonnull align 8 dereferenceable(8) %43)
          to label %501 unwind label %46

46:                                               ; preds = %44, %41, %35, %34, %25, %13
  %47 = landingpad { i8*, i32 }
          cleanup
  br label %521

48:                                               ; preds = %0
  %49 = bitcast %"class.std::vector"* %3 to i8*
  call void @llvm.lifetime.start.p0i8(i64 24, i8* nonnull %49) #16
  call void @llvm.memset.p0i8.i64(i8* noundef nonnull align 8 dereferenceable(24) %49, i8 0, i64 24, i1 false) #16
  %50 = bitcast %"class.std::vector"* %4 to i8*
  call void @llvm.lifetime.start.p0i8(i64 24, i8* nonnull %50) #16
  call void @llvm.memset.p0i8.i64(i8* noundef nonnull align 8 dereferenceable(24) %50, i8 0, i64 24, i1 false) #16
  %51 = bitcast %"class.std::__cxx11::basic_string"* %5 to i8*
  call void @llvm.lifetime.start.p0i8(i64 32, i8* nonnull %51) #16
  %52 = getelementptr inbounds %"class.std::__cxx11::basic_string", %"class.std::__cxx11::basic_string"* %5, i64 0, i32 2
  %53 = bitcast %"class.std::__cxx11::basic_string"* %5 to %union.anon**
  store %union.anon* %52, %union.anon** %53, align 8, !tbaa !16
  %54 = getelementptr inbounds %"class.std::__cxx11::basic_string", %"class.std::__cxx11::basic_string"* %5, i64 0, i32 1
  store i64 0, i64* %54, align 8, !tbaa !18
  %55 = bitcast %union.anon* %52 to i8*
  store i8 0, i8* %55, align 8, !tbaa !15
  %56 = bitcast %"class.std::basic_ifstream"* %2 to %"class.std::basic_istream"*
  %57 = bitcast %"class.std::basic_ifstream"* %2 to i8**
  %58 = load i8*, i8** %57, align 8, !tbaa !5
  %59 = getelementptr i8, i8* %58, i64 -24
  %60 = bitcast i8* %59 to i64*
  %61 = load i64, i64* %60, align 8
  %62 = getelementptr inbounds i8, i8* %10, i64 %61
  %63 = getelementptr inbounds i8, i8* %62, i64 240
  %64 = bitcast i8* %63 to %"class.std::ctype"**
  %65 = load %"class.std::ctype"*, %"class.std::ctype"** %64, align 8, !tbaa !8
  %66 = icmp eq %"class.std::ctype"* %65, null
  br i1 %66, label %67, label %69

67:                                               ; preds = %48
  invoke void @_ZSt16__throw_bad_castv() #18
          to label %68 unwind label %195

68:                                               ; preds = %67
  unreachable

69:                                               ; preds = %48
  %70 = getelementptr inbounds %"class.std::ctype", %"class.std::ctype"* %65, i64 0, i32 8
  %71 = load i8, i8* %70, align 8, !tbaa !13
  %72 = icmp eq i8 %71, 0
  br i1 %72, label %76, label %73

73:                                               ; preds = %69
  %74 = getelementptr inbounds %"class.std::ctype", %"class.std::ctype"* %65, i64 0, i32 9, i64 10
  %75 = load i8, i8* %74, align 1, !tbaa !15
  br label %83

76:                                               ; preds = %69
  invoke void @_ZNKSt5ctypeIcE13_M_widen_initEv(%"class.std::ctype"* noundef nonnull align 8 dereferenceable(570) %65)
          to label %77 unwind label %195

77:                                               ; preds = %76
  %78 = bitcast %"class.std::ctype"* %65 to i8 (%"class.std::ctype"*, i8)***
  %79 = load i8 (%"class.std::ctype"*, i8)**, i8 (%"class.std::ctype"*, i8)*** %78, align 8, !tbaa !5
  %80 = getelementptr inbounds i8 (%"class.std::ctype"*, i8)*, i8 (%"class.std::ctype"*, i8)** %79, i64 6
  %81 = load i8 (%"class.std::ctype"*, i8)*, i8 (%"class.std::ctype"*, i8)** %80, align 8
  %82 = invoke noundef signext i8 %81(%"class.std::ctype"* noundef nonnull align 8 dereferenceable(570) %65, i8 noundef signext 10)
          to label %83 unwind label %195

83:                                               ; preds = %77, %73
  %84 = phi i8 [ %75, %73 ], [ %82, %77 ]
  %85 = invoke noundef nonnull align 8 dereferenceable(16) %"class.std::basic_istream"* @_ZSt7getlineIcSt11char_traitsIcESaIcEERSt13basic_istreamIT_T0_ES7_RNSt7__cxx1112basic_stringIS4_S5_T1_EES4_(%"class.std::basic_istream"* noundef nonnull align 8 dereferenceable(16) %56, %"class.std::__cxx11::basic_string"* noundef nonnull align 8 dereferenceable(32) %5, i8 noundef signext %84)
          to label %86 unwind label %195

86:                                               ; preds = %83
  %87 = load i8*, i8** %57, align 8, !tbaa !5
  %88 = getelementptr i8, i8* %87, i64 -24
  %89 = bitcast i8* %88 to i64*
  %90 = load i64, i64* %89, align 8
  %91 = getelementptr inbounds i8, i8* %10, i64 %90
  %92 = getelementptr inbounds i8, i8* %91, i64 240
  %93 = bitcast i8* %92 to %"class.std::ctype"**
  %94 = load %"class.std::ctype"*, %"class.std::ctype"** %93, align 8, !tbaa !8
  %95 = icmp eq %"class.std::ctype"* %94, null
  br i1 %95, label %138, label %96

96:                                               ; preds = %86
  %97 = bitcast %"class.std::__cxx11::basic_istringstream"* %6 to i8*
  %98 = bitcast %"class.std::__cxx11::basic_string"* %7 to i8*
  %99 = getelementptr inbounds %"class.std::__cxx11::basic_string", %"class.std::__cxx11::basic_string"* %7, i64 0, i32 2
  %100 = bitcast %"class.std::__cxx11::basic_string"* %7 to %union.anon**
  %101 = getelementptr inbounds %"class.std::__cxx11::basic_string", %"class.std::__cxx11::basic_string"* %7, i64 0, i32 1
  %102 = bitcast %union.anon* %99 to i8*
  %103 = bitcast %"class.std::vector.0"* %8 to i8*
  %104 = bitcast %"class.std::__cxx11::basic_string"* %9 to i8*
  %105 = getelementptr inbounds %"class.std::__cxx11::basic_string", %"class.std::__cxx11::basic_string"* %9, i64 0, i32 2
  %106 = bitcast %"class.std::__cxx11::basic_string"* %9 to %union.anon**
  %107 = getelementptr inbounds %"class.std::__cxx11::basic_string", %"class.std::__cxx11::basic_string"* %9, i64 0, i32 1
  %108 = bitcast %union.anon* %105 to i8*
  %109 = bitcast %"class.std::__cxx11::basic_istringstream"* %6 to %"class.std::basic_istream"*
  %110 = getelementptr inbounds %"class.std::vector.0", %"class.std::vector.0"* %8, i64 0, i32 0, i32 0, i32 0, i32 1
  %111 = getelementptr inbounds %"class.std::vector.0", %"class.std::vector.0"* %8, i64 0, i32 0, i32 0, i32 0, i32 2
  %112 = getelementptr inbounds %"class.std::__cxx11::basic_string", %"class.std::__cxx11::basic_string"* %7, i64 0, i32 0, i32 0
  %113 = bitcast i64* %1 to i8*
  %114 = getelementptr inbounds %"class.std::vector", %"class.std::vector"* %3, i64 0, i32 0, i32 0, i32 0, i32 1
  %115 = getelementptr inbounds %"class.std::vector", %"class.std::vector"* %3, i64 0, i32 0, i32 0, i32 0, i32 2
  %116 = getelementptr inbounds %"class.std::vector", %"class.std::vector"* %4, i64 0, i32 0, i32 0, i32 0, i32 1
  %117 = getelementptr inbounds %"class.std::vector", %"class.std::vector"* %4, i64 0, i32 0, i32 0, i32 0, i32 2
  %118 = getelementptr inbounds %"class.std::__cxx11::basic_string", %"class.std::__cxx11::basic_string"* %9, i64 0, i32 0, i32 0
  %119 = getelementptr inbounds %"class.std::vector.0", %"class.std::vector.0"* %8, i64 0, i32 0, i32 0, i32 0, i32 0
  %120 = load i32 (...)**, i32 (...)*** bitcast ([4 x i8*]* @_ZTTNSt7__cxx1119basic_istringstreamIcSt11char_traitsIcESaIcEEE to i32 (...)***), align 8
  %121 = getelementptr inbounds %"class.std::__cxx11::basic_istringstream", %"class.std::__cxx11::basic_istringstream"* %6, i64 0, i32 0, i32 0
  %122 = load i32 (...)**, i32 (...)*** bitcast (i8** getelementptr inbounds ([4 x i8*], [4 x i8*]* @_ZTTNSt7__cxx1119basic_istringstreamIcSt11char_traitsIcESaIcEEE, i64 0, i64 3) to i32 (...)***), align 8
  %123 = getelementptr i32 (...)*, i32 (...)** %120, i64 -3
  %124 = bitcast i32 (...)** %123 to i64*
  %125 = getelementptr inbounds %"class.std::__cxx11::basic_istringstream", %"class.std::__cxx11::basic_istringstream"* %6, i64 0, i32 1, i32 0, i32 0
  %126 = getelementptr inbounds %"class.std::__cxx11::basic_istringstream", %"class.std::__cxx11::basic_istringstream"* %6, i64 0, i32 1, i32 2, i32 0, i32 0
  %127 = getelementptr inbounds %"class.std::__cxx11::basic_istringstream", %"class.std::__cxx11::basic_istringstream"* %6, i64 0, i32 1, i32 2, i32 2
  %128 = bitcast %union.anon* %127 to i8*
  %129 = getelementptr inbounds %"class.std::__cxx11::basic_istringstream", %"class.std::__cxx11::basic_istringstream"* %6, i64 0, i32 1, i32 0, i32 7
  %130 = load i32 (...)**, i32 (...)*** bitcast (i8** getelementptr inbounds ([4 x i8*], [4 x i8*]* @_ZTTNSt7__cxx1119basic_istringstreamIcSt11char_traitsIcESaIcEEE, i64 0, i64 1) to i32 (...)***), align 8
  %131 = load i32 (...)**, i32 (...)*** bitcast (i8** getelementptr inbounds ([4 x i8*], [4 x i8*]* @_ZTTNSt7__cxx1119basic_istringstreamIcSt11char_traitsIcESaIcEEE, i64 0, i64 2) to i32 (...)***), align 8
  %132 = getelementptr i32 (...)*, i32 (...)** %130, i64 -3
  %133 = bitcast i32 (...)** %132 to i64*
  %134 = getelementptr inbounds %"class.std::__cxx11::basic_istringstream", %"class.std::__cxx11::basic_istringstream"* %6, i64 0, i32 0, i32 1
  %135 = getelementptr inbounds %"class.std::__cxx11::basic_istringstream", %"class.std::__cxx11::basic_istringstream"* %6, i64 0, i32 2, i32 0
  %136 = getelementptr inbounds %"class.std::basic_ifstream", %"class.std::basic_ifstream"* %2, i64 0, i32 1, i32 19
  %137 = bitcast i8** %136 to i8*
  br label %140

138:                                              ; preds = %295, %86
  invoke void @_ZSt16__throw_bad_castv() #18
          to label %139 unwind label %195

139:                                              ; preds = %138
  unreachable

140:                                              ; preds = %96, %295
  %141 = phi %"class.std::ctype"* [ %94, %96 ], [ %305, %295 ]
  %142 = getelementptr inbounds %"class.std::ctype", %"class.std::ctype"* %141, i64 0, i32 8
  %143 = load i8, i8* %142, align 8, !tbaa !13
  %144 = icmp eq i8 %143, 0
  br i1 %144, label %148, label %145

145:                                              ; preds = %140
  %146 = getelementptr inbounds %"class.std::ctype", %"class.std::ctype"* %141, i64 0, i32 9, i64 10
  %147 = load i8, i8* %146, align 1, !tbaa !15
  br label %155

148:                                              ; preds = %140
  invoke void @_ZNKSt5ctypeIcE13_M_widen_initEv(%"class.std::ctype"* noundef nonnull align 8 dereferenceable(570) %141)
          to label %149 unwind label %193

149:                                              ; preds = %148
  %150 = bitcast %"class.std::ctype"* %141 to i8 (%"class.std::ctype"*, i8)***
  %151 = load i8 (%"class.std::ctype"*, i8)**, i8 (%"class.std::ctype"*, i8)*** %150, align 8, !tbaa !5
  %152 = getelementptr inbounds i8 (%"class.std::ctype"*, i8)*, i8 (%"class.std::ctype"*, i8)** %151, i64 6
  %153 = load i8 (%"class.std::ctype"*, i8)*, i8 (%"class.std::ctype"*, i8)** %152, align 8
  %154 = invoke noundef signext i8 %153(%"class.std::ctype"* noundef nonnull align 8 dereferenceable(570) %141, i8 noundef signext 10)
          to label %155 unwind label %193

155:                                              ; preds = %149, %145
  %156 = phi i8 [ %147, %145 ], [ %154, %149 ]
  %157 = invoke noundef nonnull align 8 dereferenceable(16) %"class.std::basic_istream"* @_ZSt7getlineIcSt11char_traitsIcESaIcEERSt13basic_istreamIT_T0_ES7_RNSt7__cxx1112basic_stringIS4_S5_T1_EES4_(%"class.std::basic_istream"* noundef nonnull align 8 dereferenceable(16) %56, %"class.std::__cxx11::basic_string"* noundef nonnull align 8 dereferenceable(32) %5, i8 noundef signext %156)
          to label %158 unwind label %193

158:                                              ; preds = %155
  %159 = bitcast %"class.std::basic_istream"* %157 to i8**
  %160 = load i8*, i8** %159, align 8, !tbaa !5
  %161 = getelementptr i8, i8* %160, i64 -24
  %162 = bitcast i8* %161 to i64*
  %163 = load i64, i64* %162, align 8
  %164 = getelementptr inbounds %"class.std::basic_istream", %"class.std::basic_istream"* %157, i64 0, i32 2, i32 0, i32 2
  %165 = bitcast i64* %164 to i8*
  %166 = getelementptr inbounds i8, i8* %165, i64 %163
  %167 = bitcast i8* %166 to i32*
  %168 = load i32, i32* %167, align 8, !tbaa !21
  %169 = and i32 %168, 5
  %170 = icmp eq i32 %169, 0
  br i1 %170, label %171, label %319

171:                                              ; preds = %158
  call void @llvm.lifetime.start.p0i8(i64 384, i8* nonnull %97) #16
  invoke void @_ZNSt7__cxx1119basic_istringstreamIcSt11char_traitsIcESaIcEEC1ERKNS_12basic_stringIcS2_S3_EESt13_Ios_Openmode(%"class.std::__cxx11::basic_istringstream"* noundef nonnull align 8 dereferenceable(120) %6, %"class.std::__cxx11::basic_string"* noundef nonnull align 8 dereferenceable(32) %5, i32 noundef 8)
          to label %172 unwind label %197

172:                                              ; preds = %171
  call void @llvm.lifetime.start.p0i8(i64 32, i8* nonnull %98) #16
  store %union.anon* %99, %union.anon** %100, align 8, !tbaa !16
  store i64 0, i64* %101, align 8, !tbaa !18
  store i8 0, i8* %102, align 8, !tbaa !15
  call void @llvm.lifetime.start.p0i8(i64 24, i8* nonnull %103) #16
  call void @llvm.memset.p0i8.i64(i8* noundef nonnull align 8 dereferenceable(24) %103, i8 0, i64 24, i1 false) #16
  call void @llvm.lifetime.start.p0i8(i64 32, i8* nonnull %104) #16
  store %union.anon* %105, %union.anon** %106, align 8, !tbaa !16
  store i64 0, i64* %107, align 8, !tbaa !18
  store i8 0, i8* %108, align 8, !tbaa !15
  br label %173

173:                                              ; preds = %238, %172
  %174 = phi i32 [ 0, %172 ], [ %239, %238 ]
  %175 = invoke noundef nonnull align 8 dereferenceable(16) %"class.std::basic_istream"* @_ZSt7getlineIcSt11char_traitsIcESaIcEERSt13basic_istreamIT_T0_ES7_RNSt7__cxx1112basic_stringIS4_S5_T1_EES4_(%"class.std::basic_istream"* noundef nonnull align 8 dereferenceable(16) %109, %"class.std::__cxx11::basic_string"* noundef nonnull align 8 dereferenceable(32) %7, i8 noundef signext 44)
          to label %176 unwind label %199

176:                                              ; preds = %173
  %177 = bitcast %"class.std::basic_istream"* %175 to i8**
  %178 = load i8*, i8** %177, align 8, !tbaa !5
  %179 = getelementptr i8, i8* %178, i64 -24
  %180 = bitcast i8* %179 to i64*
  %181 = load i64, i64* %180, align 8
  %182 = getelementptr inbounds %"class.std::basic_istream", %"class.std::basic_istream"* %175, i64 0, i32 2, i32 0, i32 2
  %183 = bitcast i64* %182 to i8*
  %184 = getelementptr inbounds i8, i8* %183, i64 %181
  %185 = bitcast i8* %184 to i32*
  %186 = load i32, i32* %185, align 8, !tbaa !21
  %187 = and i32 %186, 5
  %188 = icmp eq i32 %187, 0
  br i1 %188, label %201, label %189

189:                                              ; preds = %176
  %190 = call i32 @rand() #16
  %191 = srem i32 %190, 3
  %192 = icmp eq i32 %191, 0
  br i1 %192, label %248, label %240

193:                                              ; preds = %148, %149, %155
  %194 = landingpad { i8*, i32 }
          cleanup
  br label %494

195:                                              ; preds = %67, %76, %77, %83, %138
  %196 = landingpad { i8*, i32 }
          cleanup
  br label %494

197:                                              ; preds = %171
  %198 = landingpad { i8*, i32 }
          cleanup
  br label %317

199:                                              ; preds = %237, %234, %215, %173
  %200 = landingpad { i8*, i32 }
          cleanup
  br label %307

201:                                              ; preds = %176
  %202 = icmp ult i32 %174, 6
  br i1 %202, label %203, label %235

203:                                              ; preds = %201
  %204 = load %"class.std::__cxx11::basic_string"*, %"class.std::__cxx11::basic_string"** %110, align 8, !tbaa !28
  %205 = load %"class.std::__cxx11::basic_string"*, %"class.std::__cxx11::basic_string"** %111, align 8, !tbaa !30
  %206 = icmp eq %"class.std::__cxx11::basic_string"* %204, %205
  br i1 %206, label %234, label %207

207:                                              ; preds = %203
  %208 = getelementptr inbounds %"class.std::__cxx11::basic_string", %"class.std::__cxx11::basic_string"* %204, i64 0, i32 2
  %209 = bitcast %"class.std::__cxx11::basic_string"* %204 to %union.anon**
  store %union.anon* %208, %union.anon** %209, align 8, !tbaa !16
  %210 = load i8*, i8** %112, align 8, !tbaa !31
  %211 = load i64, i64* %101, align 8, !tbaa !18
  call void @llvm.lifetime.start.p0i8(i64 8, i8* nonnull %113) #16
  store i64 %211, i64* %1, align 8, !tbaa !32
  %212 = icmp ugt i64 %211, 15
  br i1 %212, label %215, label %213

213:                                              ; preds = %207
  %214 = bitcast %union.anon* %208 to i8*
  br label %221

215:                                              ; preds = %207
  %216 = invoke noundef i8* @_ZNSt7__cxx1112basic_stringIcSt11char_traitsIcESaIcEE9_M_createERmm(%"class.std::__cxx11::basic_string"* noundef nonnull align 8 dereferenceable(32) %204, i64* noundef nonnull align 8 dereferenceable(8) %1, i64 noundef 0)
          to label %217 unwind label %199

217:                                              ; preds = %215
  %218 = getelementptr inbounds %"class.std::__cxx11::basic_string", %"class.std::__cxx11::basic_string"* %204, i64 0, i32 0, i32 0
  store i8* %216, i8** %218, align 8, !tbaa !31
  %219 = load i64, i64* %1, align 8, !tbaa !32
  %220 = getelementptr inbounds %"class.std::__cxx11::basic_string", %"class.std::__cxx11::basic_string"* %204, i64 0, i32 2, i32 0
  store i64 %219, i64* %220, align 8, !tbaa !15
  br label %221

221:                                              ; preds = %217, %213
  %222 = phi i8* [ %214, %213 ], [ %216, %217 ]
  switch i64 %211, label %225 [
    i64 1, label %223
    i64 0, label %226
  ]

223:                                              ; preds = %221
  %224 = load i8, i8* %210, align 1, !tbaa !15
  store i8 %224, i8* %222, align 1, !tbaa !15
  br label %226

225:                                              ; preds = %221
  call void @llvm.memcpy.p0i8.p0i8.i64(i8* align 1 %222, i8* align 1 %210, i64 %211, i1 false) #16
  br label %226

226:                                              ; preds = %225, %223, %221
  %227 = getelementptr inbounds %"class.std::__cxx11::basic_string", %"class.std::__cxx11::basic_string"* %204, i64 0, i32 0, i32 0
  %228 = load i64, i64* %1, align 8, !tbaa !32
  %229 = getelementptr inbounds %"class.std::__cxx11::basic_string", %"class.std::__cxx11::basic_string"* %204, i64 0, i32 1
  store i64 %228, i64* %229, align 8, !tbaa !18
  %230 = load i8*, i8** %227, align 8, !tbaa !31
  %231 = getelementptr inbounds i8, i8* %230, i64 %228
  store i8 0, i8* %231, align 1, !tbaa !15
  call void @llvm.lifetime.end.p0i8(i64 8, i8* nonnull %113) #16
  %232 = load %"class.std::__cxx11::basic_string"*, %"class.std::__cxx11::basic_string"** %110, align 8, !tbaa !28
  %233 = getelementptr inbounds %"class.std::__cxx11::basic_string", %"class.std::__cxx11::basic_string"* %232, i64 1
  store %"class.std::__cxx11::basic_string"* %233, %"class.std::__cxx11::basic_string"** %110, align 8, !tbaa !28
  br label %238

234:                                              ; preds = %203
  invoke void @_ZNSt6vectorINSt7__cxx1112basic_stringIcSt11char_traitsIcESaIcEEESaIS5_EE17_M_realloc_insertIJRKS5_EEEvN9__gnu_cxx17__normal_iteratorIPS5_S7_EEDpOT_(%"class.std::vector.0"* noundef nonnull align 8 dereferenceable(24) %8, %"class.std::__cxx11::basic_string"* %204, %"class.std::__cxx11::basic_string"* noundef nonnull align 8 dereferenceable(32) %7)
          to label %238 unwind label %199

235:                                              ; preds = %201
  %236 = icmp eq i32 %174, 6
  br i1 %236, label %237, label %238

237:                                              ; preds = %235
  invoke void @_ZNSt7__cxx1112basic_stringIcSt11char_traitsIcESaIcEE9_M_assignERKS4_(%"class.std::__cxx11::basic_string"* noundef nonnull align 8 dereferenceable(32) %9, %"class.std::__cxx11::basic_string"* noundef nonnull align 8 dereferenceable(32) %7)
          to label %238 unwind label %199

238:                                              ; preds = %237, %226, %234, %235
  %239 = add nuw nsw i32 %174, 1
  br label %173, !llvm.loop !33

240:                                              ; preds = %189
  %241 = load %struct.DataPoint*, %struct.DataPoint** %114, align 8, !tbaa !35
  %242 = load %struct.DataPoint*, %struct.DataPoint** %115, align 8, !tbaa !37
  %243 = icmp eq %struct.DataPoint* %241, %242
  br i1 %243, label %245, label %244

244:                                              ; preds = %240
  invoke void @_ZN9DataPointC2ERKSt6vectorINSt7__cxx1112basic_stringIcSt11char_traitsIcESaIcEEESaIS6_EERKS6_(%struct.DataPoint* noundef nonnull align 8 dereferenceable(56) %241, %"class.std::vector.0"* noundef nonnull align 8 dereferenceable(24) %8, %"class.std::__cxx11::basic_string"* noundef nonnull align 8 dereferenceable(32) %9)
          to label %254 unwind label %246

245:                                              ; preds = %240
  invoke void @_ZNSt6vectorI9DataPointSaIS0_EE17_M_realloc_insertIJRS_INSt7__cxx1112basic_stringIcSt11char_traitsIcESaIcEEESaIS9_EERS9_EEEvN9__gnu_cxx17__normal_iteratorIPS0_S2_EEDpOT_(%"class.std::vector"* noundef nonnull align 8 dereferenceable(24) %3, %struct.DataPoint* %241, %"class.std::vector.0"* noundef nonnull align 8 dereferenceable(24) %8, %"class.std::__cxx11::basic_string"* noundef nonnull align 8 dereferenceable(32) %9)
          to label %258 unwind label %246

246:                                              ; preds = %253, %252, %245, %244
  %247 = landingpad { i8*, i32 }
          cleanup
  br label %307

248:                                              ; preds = %189
  %249 = load %struct.DataPoint*, %struct.DataPoint** %116, align 8, !tbaa !35
  %250 = load %struct.DataPoint*, %struct.DataPoint** %117, align 8, !tbaa !37
  %251 = icmp eq %struct.DataPoint* %249, %250
  br i1 %251, label %253, label %252

252:                                              ; preds = %248
  invoke void @_ZN9DataPointC2ERKSt6vectorINSt7__cxx1112basic_stringIcSt11char_traitsIcESaIcEEESaIS6_EERKS6_(%struct.DataPoint* noundef nonnull align 8 dereferenceable(56) %249, %"class.std::vector.0"* noundef nonnull align 8 dereferenceable(24) %8, %"class.std::__cxx11::basic_string"* noundef nonnull align 8 dereferenceable(32) %9)
          to label %254 unwind label %246

253:                                              ; preds = %248
  invoke void @_ZNSt6vectorI9DataPointSaIS0_EE17_M_realloc_insertIJRS_INSt7__cxx1112basic_stringIcSt11char_traitsIcESaIcEEESaIS9_EERS9_EEEvN9__gnu_cxx17__normal_iteratorIPS0_S2_EEDpOT_(%"class.std::vector"* noundef nonnull align 8 dereferenceable(24) %4, %struct.DataPoint* %249, %"class.std::vector.0"* noundef nonnull align 8 dereferenceable(24) %8, %"class.std::__cxx11::basic_string"* noundef nonnull align 8 dereferenceable(32) %9)
          to label %258 unwind label %246

254:                                              ; preds = %252, %244
  %255 = phi %struct.DataPoint** [ %114, %244 ], [ %116, %252 ]
  %256 = load %struct.DataPoint*, %struct.DataPoint** %255, align 8, !tbaa !35
  %257 = getelementptr inbounds %struct.DataPoint, %struct.DataPoint* %256, i64 1
  store %struct.DataPoint* %257, %struct.DataPoint** %255, align 8, !tbaa !35
  br label %258

258:                                              ; preds = %254, %253, %245
  %259 = load i8*, i8** %118, align 8, !tbaa !31
  %260 = icmp eq i8* %259, %108
  br i1 %260, label %262, label %261

261:                                              ; preds = %258
  call void @_ZdlPv(i8* noundef %259) #16
  br label %262

262:                                              ; preds = %258, %261
  call void @llvm.lifetime.end.p0i8(i64 32, i8* nonnull %104) #16
  %263 = load %"class.std::__cxx11::basic_string"*, %"class.std::__cxx11::basic_string"** %119, align 8, !tbaa !38
  %264 = load %"class.std::__cxx11::basic_string"*, %"class.std::__cxx11::basic_string"** %110, align 8, !tbaa !28
  %265 = icmp eq %"class.std::__cxx11::basic_string"* %263, %264
  br i1 %265, label %279, label %266

266:                                              ; preds = %262, %274
  %267 = phi %"class.std::__cxx11::basic_string"* [ %275, %274 ], [ %263, %262 ]
  %268 = getelementptr inbounds %"class.std::__cxx11::basic_string", %"class.std::__cxx11::basic_string"* %267, i64 0, i32 0, i32 0
  %269 = load i8*, i8** %268, align 8, !tbaa !31
  %270 = getelementptr inbounds %"class.std::__cxx11::basic_string", %"class.std::__cxx11::basic_string"* %267, i64 0, i32 2
  %271 = bitcast %union.anon* %270 to i8*
  %272 = icmp eq i8* %269, %271
  br i1 %272, label %274, label %273

273:                                              ; preds = %266
  call void @_ZdlPv(i8* noundef %269) #16
  br label %274

274:                                              ; preds = %273, %266
  %275 = getelementptr inbounds %"class.std::__cxx11::basic_string", %"class.std::__cxx11::basic_string"* %267, i64 1
  %276 = icmp eq %"class.std::__cxx11::basic_string"* %275, %264
  br i1 %276, label %277, label %266, !llvm.loop !39

277:                                              ; preds = %274
  %278 = load %"class.std::__cxx11::basic_string"*, %"class.std::__cxx11::basic_string"** %119, align 8, !tbaa !38
  br label %279

279:                                              ; preds = %277, %262
  %280 = phi %"class.std::__cxx11::basic_string"* [ %278, %277 ], [ %263, %262 ]
  %281 = icmp eq %"class.std::__cxx11::basic_string"* %280, null
  br i1 %281, label %284, label %282

282:                                              ; preds = %279
  %283 = bitcast %"class.std::__cxx11::basic_string"* %280 to i8*
  call void @_ZdlPv(i8* noundef nonnull %283) #16
  br label %284

284:                                              ; preds = %279, %282
  call void @llvm.lifetime.end.p0i8(i64 24, i8* nonnull %103) #16
  %285 = load i8*, i8** %112, align 8, !tbaa !31
  %286 = icmp eq i8* %285, %102
  br i1 %286, label %288, label %287

287:                                              ; preds = %284
  call void @_ZdlPv(i8* noundef %285) #16
  br label %288

288:                                              ; preds = %284, %287
  call void @llvm.lifetime.end.p0i8(i64 32, i8* nonnull %98) #16
  store i32 (...)** %120, i32 (...)*** %121, align 8, !tbaa !5
  %289 = load i64, i64* %124, align 8
  %290 = getelementptr inbounds i8, i8* %97, i64 %289
  %291 = bitcast i8* %290 to i32 (...)***
  store i32 (...)** %122, i32 (...)*** %291, align 8, !tbaa !5
  store i32 (...)** bitcast (i8** getelementptr inbounds ({ [16 x i8*] }, { [16 x i8*] }* @_ZTVNSt7__cxx1115basic_stringbufIcSt11char_traitsIcESaIcEEE, i64 0, inrange i32 0, i64 2) to i32 (...)**), i32 (...)*** %125, align 8, !tbaa !5
  %292 = load i8*, i8** %126, align 8, !tbaa !31
  %293 = icmp eq i8* %292, %128
  br i1 %293, label %295, label %294

294:                                              ; preds = %288
  call void @_ZdlPv(i8* noundef %292) #16
  br label %295

295:                                              ; preds = %288, %294
  store i32 (...)** bitcast (i8** getelementptr inbounds ({ [16 x i8*] }, { [16 x i8*] }* @_ZTVSt15basic_streambufIcSt11char_traitsIcEE, i64 0, inrange i32 0, i64 2) to i32 (...)**), i32 (...)*** %125, align 8, !tbaa !5
  call void @_ZNSt6localeD1Ev(%"class.std::locale"* noundef nonnull align 8 dereferenceable(8) %129) #16
  store i32 (...)** %130, i32 (...)*** %121, align 8, !tbaa !5
  %296 = load i64, i64* %133, align 8
  %297 = getelementptr inbounds i8, i8* %97, i64 %296
  %298 = bitcast i8* %297 to i32 (...)***
  store i32 (...)** %131, i32 (...)*** %298, align 8, !tbaa !5
  store i64 0, i64* %134, align 8, !tbaa !40
  call void @_ZNSt8ios_baseD2Ev(%"class.std::ios_base"* noundef nonnull align 8 dereferenceable(216) %135) #16
  call void @llvm.lifetime.end.p0i8(i64 384, i8* nonnull %97) #16
  %299 = load i8*, i8** %57, align 8, !tbaa !5
  %300 = getelementptr i8, i8* %299, i64 -24
  %301 = bitcast i8* %300 to i64*
  %302 = load i64, i64* %301, align 8
  %303 = getelementptr inbounds i8, i8* %137, i64 %302
  %304 = bitcast i8* %303 to %"class.std::ctype"**
  %305 = load %"class.std::ctype"*, %"class.std::ctype"** %304, align 8, !tbaa !8
  %306 = icmp eq %"class.std::ctype"* %305, null
  br i1 %306, label %138, label %140, !llvm.loop !42

307:                                              ; preds = %246, %199
  %308 = phi { i8*, i32 } [ %200, %199 ], [ %247, %246 ]
  %309 = load i8*, i8** %118, align 8, !tbaa !31
  %310 = icmp eq i8* %309, %108
  br i1 %310, label %312, label %311

311:                                              ; preds = %307
  call void @_ZdlPv(i8* noundef %309) #16
  br label %312

312:                                              ; preds = %307, %311
  call void @llvm.lifetime.end.p0i8(i64 32, i8* nonnull %104) #16
  call void @_ZNSt6vectorINSt7__cxx1112basic_stringIcSt11char_traitsIcESaIcEEESaIS5_EED2Ev(%"class.std::vector.0"* noundef nonnull align 8 dereferenceable(24) %8) #16
  call void @llvm.lifetime.end.p0i8(i64 24, i8* nonnull %103) #16
  %313 = load i8*, i8** %112, align 8, !tbaa !31
  %314 = icmp eq i8* %313, %102
  br i1 %314, label %316, label %315

315:                                              ; preds = %312
  call void @_ZdlPv(i8* noundef %313) #16
  br label %316

316:                                              ; preds = %312, %315
  call void @llvm.lifetime.end.p0i8(i64 32, i8* nonnull %98) #16
  call void @_ZNSt7__cxx1119basic_istringstreamIcSt11char_traitsIcESaIcEED1Ev(%"class.std::__cxx11::basic_istringstream"* noundef nonnull align 8 dereferenceable(120) %6) #16
  br label %317

317:                                              ; preds = %316, %197
  %318 = phi { i8*, i32 } [ %308, %316 ], [ %198, %197 ]
  call void @llvm.lifetime.end.p0i8(i64 384, i8* nonnull %97) #16
  br label %494

319:                                              ; preds = %158
  %320 = getelementptr inbounds %"class.std::vector", %"class.std::vector"* %4, i64 0, i32 0, i32 0, i32 0, i32 0
  %321 = load %struct.DataPoint*, %struct.DataPoint** %320, align 8, !tbaa !43
  %322 = load %struct.DataPoint*, %struct.DataPoint** %116, align 8, !tbaa !43
  %323 = icmp eq %struct.DataPoint* %321, %322
  br i1 %323, label %327, label %332

324:                                              ; preds = %347
  %325 = load %struct.DataPoint*, %struct.DataPoint** %116, align 8, !tbaa !35
  %326 = load %struct.DataPoint*, %struct.DataPoint** %320, align 8, !tbaa !44
  br label %327

327:                                              ; preds = %324, %319
  %328 = phi %struct.DataPoint* [ %321, %319 ], [ %326, %324 ]
  %329 = phi %struct.DataPoint* [ %321, %319 ], [ %325, %324 ]
  %330 = phi i32 [ 0, %319 ], [ %348, %324 ]
  %331 = invoke noundef nonnull align 8 dereferenceable(8) %"class.std::basic_ostream"* @_ZSt16__ostream_insertIcSt11char_traitsIcEERSt13basic_ostreamIT_T0_ES6_PKS3_l(%"class.std::basic_ostream"* noundef nonnull align 8 dereferenceable(8) @_ZSt4cout, i8* noundef nonnull getelementptr inbounds ([17 x i8], [17 x i8]* @.str.3, i64 0, i64 0), i64 noundef 16)
          to label %351 unwind label %492

332:                                              ; preds = %319, %347
  %333 = phi i32 [ %348, %347 ], [ 0, %319 ]
  %334 = phi %struct.DataPoint* [ %349, %347 ], [ %321, %319 ]
  %335 = call i32 @rand() #16
  %336 = srem i32 %335, 2
  switch i32 %336, label %347 [
    i32 0, label %337
    i32 1, label %341
  ]

337:                                              ; preds = %332
  %338 = getelementptr inbounds %struct.DataPoint, %struct.DataPoint* %334, i64 0, i32 1
  %339 = call noundef i32 @_ZNKSt7__cxx1112basic_stringIcSt11char_traitsIcESaIcEE7compareEPKc(%"class.std::__cxx11::basic_string"* noundef nonnull align 8 dereferenceable(32) %338, i8* noundef getelementptr inbounds ([6 x i8], [6 x i8]* @.str.2, i64 0, i64 0)) #16
  %340 = icmp eq i32 %339, 0
  br i1 %340, label %345, label %347

341:                                              ; preds = %332
  %342 = getelementptr inbounds %struct.DataPoint, %struct.DataPoint* %334, i64 0, i32 1
  %343 = call noundef i32 @_ZNKSt7__cxx1112basic_stringIcSt11char_traitsIcESaIcEE7compareEPKc(%"class.std::__cxx11::basic_string"* noundef nonnull align 8 dereferenceable(32) %342, i8* noundef getelementptr inbounds ([6 x i8], [6 x i8]* @.str.2, i64 0, i64 0)) #16
  %344 = icmp eq i32 %343, 0
  br i1 %344, label %347, label %345

345:                                              ; preds = %341, %337
  %346 = add nsw i32 %333, 1
  br label %347

347:                                              ; preds = %337, %332, %345, %341
  %348 = phi i32 [ %346, %345 ], [ %333, %341 ], [ %333, %332 ], [ %333, %337 ]
  %349 = getelementptr inbounds %struct.DataPoint, %struct.DataPoint* %334, i64 1
  %350 = icmp eq %struct.DataPoint* %349, %322
  br i1 %350, label %324, label %332

351:                                              ; preds = %327
  %352 = ptrtoint %struct.DataPoint* %329 to i64
  %353 = ptrtoint %struct.DataPoint* %328 to i64
  %354 = sub i64 %352, %353
  %355 = sdiv exact i64 %354, 56
  %356 = sitofp i32 %330 to double
  %357 = uitofp i64 %355 to double
  %358 = fdiv double %356, %357
  %359 = invoke noundef nonnull align 8 dereferenceable(8) %"class.std::basic_ostream"* @_ZNSo9_M_insertIdEERSoT_(%"class.std::basic_ostream"* noundef nonnull align 8 dereferenceable(8) @_ZSt4cout, double noundef %358)
          to label %360 unwind label %492

360:                                              ; preds = %351
  %361 = bitcast %"class.std::basic_ostream"* %359 to i8**
  %362 = load i8*, i8** %361, align 8, !tbaa !5
  %363 = getelementptr i8, i8* %362, i64 -24
  %364 = bitcast i8* %363 to i64*
  %365 = load i64, i64* %364, align 8
  %366 = bitcast %"class.std::basic_ostream"* %359 to i8*
  %367 = getelementptr inbounds i8, i8* %366, i64 %365
  %368 = getelementptr inbounds i8, i8* %367, i64 240
  %369 = bitcast i8* %368 to %"class.std::ctype"**
  %370 = load %"class.std::ctype"*, %"class.std::ctype"** %369, align 8, !tbaa !8
  %371 = icmp eq %"class.std::ctype"* %370, null
  br i1 %371, label %372, label %374

372:                                              ; preds = %360
  invoke void @_ZSt16__throw_bad_castv() #18
          to label %373 unwind label %492

373:                                              ; preds = %372
  unreachable

374:                                              ; preds = %360
  %375 = getelementptr inbounds %"class.std::ctype", %"class.std::ctype"* %370, i64 0, i32 8
  %376 = load i8, i8* %375, align 8, !tbaa !13
  %377 = icmp eq i8 %376, 0
  br i1 %377, label %381, label %378

378:                                              ; preds = %374
  %379 = getelementptr inbounds %"class.std::ctype", %"class.std::ctype"* %370, i64 0, i32 9, i64 10
  %380 = load i8, i8* %379, align 1, !tbaa !15
  br label %388

381:                                              ; preds = %374
  invoke void @_ZNKSt5ctypeIcE13_M_widen_initEv(%"class.std::ctype"* noundef nonnull align 8 dereferenceable(570) %370)
          to label %382 unwind label %492

382:                                              ; preds = %381
  %383 = bitcast %"class.std::ctype"* %370 to i8 (%"class.std::ctype"*, i8)***
  %384 = load i8 (%"class.std::ctype"*, i8)**, i8 (%"class.std::ctype"*, i8)*** %383, align 8, !tbaa !5
  %385 = getelementptr inbounds i8 (%"class.std::ctype"*, i8)*, i8 (%"class.std::ctype"*, i8)** %384, i64 6
  %386 = load i8 (%"class.std::ctype"*, i8)*, i8 (%"class.std::ctype"*, i8)** %385, align 8
  %387 = invoke noundef signext i8 %386(%"class.std::ctype"* noundef nonnull align 8 dereferenceable(570) %370, i8 noundef signext 10)
          to label %388 unwind label %492

388:                                              ; preds = %382, %378
  %389 = phi i8 [ %380, %378 ], [ %387, %382 ]
  %390 = invoke noundef nonnull align 8 dereferenceable(8) %"class.std::basic_ostream"* @_ZNSo3putEc(%"class.std::basic_ostream"* noundef nonnull align 8 dereferenceable(8) %359, i8 noundef signext %389)
          to label %391 unwind label %492

391:                                              ; preds = %388
  %392 = invoke noundef nonnull align 8 dereferenceable(8) %"class.std::basic_ostream"* @_ZNSo5flushEv(%"class.std::basic_ostream"* noundef nonnull align 8 dereferenceable(8) %390)
          to label %393 unwind label %492

393:                                              ; preds = %391
  %394 = getelementptr inbounds %"class.std::__cxx11::basic_string", %"class.std::__cxx11::basic_string"* %5, i64 0, i32 0, i32 0
  %395 = load i8*, i8** %394, align 8, !tbaa !31
  %396 = icmp eq i8* %395, %55
  br i1 %396, label %398, label %397

397:                                              ; preds = %393
  call void @_ZdlPv(i8* noundef %395) #16
  br label %398

398:                                              ; preds = %393, %397
  call void @llvm.lifetime.end.p0i8(i64 32, i8* nonnull %51) #16
  %399 = load %struct.DataPoint*, %struct.DataPoint** %320, align 8, !tbaa !44
  %400 = load %struct.DataPoint*, %struct.DataPoint** %116, align 8, !tbaa !35
  %401 = icmp eq %struct.DataPoint* %399, %400
  br i1 %401, label %439, label %402

402:                                              ; preds = %398, %434
  %403 = phi %struct.DataPoint* [ %435, %434 ], [ %399, %398 ]
  %404 = getelementptr inbounds %struct.DataPoint, %struct.DataPoint* %403, i64 0, i32 1, i32 0, i32 0
  %405 = load i8*, i8** %404, align 8, !tbaa !31
  %406 = getelementptr inbounds %struct.DataPoint, %struct.DataPoint* %403, i64 0, i32 1, i32 2
  %407 = bitcast %union.anon* %406 to i8*
  %408 = icmp eq i8* %405, %407
  br i1 %408, label %410, label %409

409:                                              ; preds = %402
  call void @_ZdlPv(i8* noundef %405) #16
  br label %410

410:                                              ; preds = %409, %402
  %411 = getelementptr inbounds %struct.DataPoint, %struct.DataPoint* %403, i64 0, i32 0, i32 0, i32 0, i32 0, i32 0
  %412 = load %"class.std::__cxx11::basic_string"*, %"class.std::__cxx11::basic_string"** %411, align 8, !tbaa !38
  %413 = getelementptr inbounds %struct.DataPoint, %struct.DataPoint* %403, i64 0, i32 0, i32 0, i32 0, i32 0, i32 1
  %414 = load %"class.std::__cxx11::basic_string"*, %"class.std::__cxx11::basic_string"** %413, align 8, !tbaa !28
  %415 = icmp eq %"class.std::__cxx11::basic_string"* %412, %414
  br i1 %415, label %429, label %416

416:                                              ; preds = %410, %424
  %417 = phi %"class.std::__cxx11::basic_string"* [ %425, %424 ], [ %412, %410 ]
  %418 = getelementptr inbounds %"class.std::__cxx11::basic_string", %"class.std::__cxx11::basic_string"* %417, i64 0, i32 0, i32 0
  %419 = load i8*, i8** %418, align 8, !tbaa !31
  %420 = getelementptr inbounds %"class.std::__cxx11::basic_string", %"class.std::__cxx11::basic_string"* %417, i64 0, i32 2
  %421 = bitcast %union.anon* %420 to i8*
  %422 = icmp eq i8* %419, %421
  br i1 %422, label %424, label %423

423:                                              ; preds = %416
  call void @_ZdlPv(i8* noundef %419) #16
  br label %424

424:                                              ; preds = %423, %416
  %425 = getelementptr inbounds %"class.std::__cxx11::basic_string", %"class.std::__cxx11::basic_string"* %417, i64 1
  %426 = icmp eq %"class.std::__cxx11::basic_string"* %425, %414
  br i1 %426, label %427, label %416, !llvm.loop !39

427:                                              ; preds = %424
  %428 = load %"class.std::__cxx11::basic_string"*, %"class.std::__cxx11::basic_string"** %411, align 8, !tbaa !38
  br label %429

429:                                              ; preds = %427, %410
  %430 = phi %"class.std::__cxx11::basic_string"* [ %428, %427 ], [ %412, %410 ]
  %431 = icmp eq %"class.std::__cxx11::basic_string"* %430, null
  br i1 %431, label %434, label %432

432:                                              ; preds = %429
  %433 = bitcast %"class.std::__cxx11::basic_string"* %430 to i8*
  call void @_ZdlPv(i8* noundef nonnull %433) #16
  br label %434

434:                                              ; preds = %432, %429
  %435 = getelementptr inbounds %struct.DataPoint, %struct.DataPoint* %403, i64 1
  %436 = icmp eq %struct.DataPoint* %435, %400
  br i1 %436, label %437, label %402, !llvm.loop !45

437:                                              ; preds = %434
  %438 = load %struct.DataPoint*, %struct.DataPoint** %320, align 8, !tbaa !44
  br label %439

439:                                              ; preds = %437, %398
  %440 = phi %struct.DataPoint* [ %438, %437 ], [ %399, %398 ]
  %441 = icmp eq %struct.DataPoint* %440, null
  br i1 %441, label %444, label %442

442:                                              ; preds = %439
  %443 = bitcast %struct.DataPoint* %440 to i8*
  call void @_ZdlPv(i8* noundef nonnull %443) #16
  br label %444

444:                                              ; preds = %439, %442
  call void @llvm.lifetime.end.p0i8(i64 24, i8* nonnull %50) #16
  %445 = getelementptr inbounds %"class.std::vector", %"class.std::vector"* %3, i64 0, i32 0, i32 0, i32 0, i32 0
  %446 = load %struct.DataPoint*, %struct.DataPoint** %445, align 8, !tbaa !44
  %447 = load %struct.DataPoint*, %struct.DataPoint** %114, align 8, !tbaa !35
  %448 = icmp eq %struct.DataPoint* %446, %447
  br i1 %448, label %486, label %449

449:                                              ; preds = %444, %481
  %450 = phi %struct.DataPoint* [ %482, %481 ], [ %446, %444 ]
  %451 = getelementptr inbounds %struct.DataPoint, %struct.DataPoint* %450, i64 0, i32 1, i32 0, i32 0
  %452 = load i8*, i8** %451, align 8, !tbaa !31
  %453 = getelementptr inbounds %struct.DataPoint, %struct.DataPoint* %450, i64 0, i32 1, i32 2
  %454 = bitcast %union.anon* %453 to i8*
  %455 = icmp eq i8* %452, %454
  br i1 %455, label %457, label %456

456:                                              ; preds = %449
  call void @_ZdlPv(i8* noundef %452) #16
  br label %457

457:                                              ; preds = %456, %449
  %458 = getelementptr inbounds %struct.DataPoint, %struct.DataPoint* %450, i64 0, i32 0, i32 0, i32 0, i32 0, i32 0
  %459 = load %"class.std::__cxx11::basic_string"*, %"class.std::__cxx11::basic_string"** %458, align 8, !tbaa !38
  %460 = getelementptr inbounds %struct.DataPoint, %struct.DataPoint* %450, i64 0, i32 0, i32 0, i32 0, i32 0, i32 1
  %461 = load %"class.std::__cxx11::basic_string"*, %"class.std::__cxx11::basic_string"** %460, align 8, !tbaa !28
  %462 = icmp eq %"class.std::__cxx11::basic_string"* %459, %461
  br i1 %462, label %476, label %463

463:                                              ; preds = %457, %471
  %464 = phi %"class.std::__cxx11::basic_string"* [ %472, %471 ], [ %459, %457 ]
  %465 = getelementptr inbounds %"class.std::__cxx11::basic_string", %"class.std::__cxx11::basic_string"* %464, i64 0, i32 0, i32 0
  %466 = load i8*, i8** %465, align 8, !tbaa !31
  %467 = getelementptr inbounds %"class.std::__cxx11::basic_string", %"class.std::__cxx11::basic_string"* %464, i64 0, i32 2
  %468 = bitcast %union.anon* %467 to i8*
  %469 = icmp eq i8* %466, %468
  br i1 %469, label %471, label %470

470:                                              ; preds = %463
  call void @_ZdlPv(i8* noundef %466) #16
  br label %471

471:                                              ; preds = %470, %463
  %472 = getelementptr inbounds %"class.std::__cxx11::basic_string", %"class.std::__cxx11::basic_string"* %464, i64 1
  %473 = icmp eq %"class.std::__cxx11::basic_string"* %472, %461
  br i1 %473, label %474, label %463, !llvm.loop !39

474:                                              ; preds = %471
  %475 = load %"class.std::__cxx11::basic_string"*, %"class.std::__cxx11::basic_string"** %458, align 8, !tbaa !38
  br label %476

476:                                              ; preds = %474, %457
  %477 = phi %"class.std::__cxx11::basic_string"* [ %475, %474 ], [ %459, %457 ]
  %478 = icmp eq %"class.std::__cxx11::basic_string"* %477, null
  br i1 %478, label %481, label %479

479:                                              ; preds = %476
  %480 = bitcast %"class.std::__cxx11::basic_string"* %477 to i8*
  call void @_ZdlPv(i8* noundef nonnull %480) #16
  br label %481

481:                                              ; preds = %479, %476
  %482 = getelementptr inbounds %struct.DataPoint, %struct.DataPoint* %450, i64 1
  %483 = icmp eq %struct.DataPoint* %482, %447
  br i1 %483, label %484, label %449, !llvm.loop !45

484:                                              ; preds = %481
  %485 = load %struct.DataPoint*, %struct.DataPoint** %445, align 8, !tbaa !44
  br label %486

486:                                              ; preds = %484, %444
  %487 = phi %struct.DataPoint* [ %485, %484 ], [ %446, %444 ]
  %488 = icmp eq %struct.DataPoint* %487, null
  br i1 %488, label %491, label %489

489:                                              ; preds = %486
  %490 = bitcast %struct.DataPoint* %487 to i8*
  call void @_ZdlPv(i8* noundef nonnull %490) #16
  br label %491

491:                                              ; preds = %486, %489
  call void @llvm.lifetime.end.p0i8(i64 24, i8* nonnull %49) #16
  br label %501

492:                                              ; preds = %391, %388, %382, %381, %372, %351, %327
  %493 = landingpad { i8*, i32 }
          cleanup
  br label %494

494:                                              ; preds = %193, %195, %492, %317
  %495 = phi { i8*, i32 } [ %318, %317 ], [ %493, %492 ], [ %194, %193 ], [ %196, %195 ]
  %496 = getelementptr inbounds %"class.std::__cxx11::basic_string", %"class.std::__cxx11::basic_string"* %5, i64 0, i32 0, i32 0
  %497 = load i8*, i8** %496, align 8, !tbaa !31
  %498 = icmp eq i8* %497, %55
  br i1 %498, label %500, label %499

499:                                              ; preds = %494
  call void @_ZdlPv(i8* noundef %497) #16
  br label %500

500:                                              ; preds = %494, %499
  call void @llvm.lifetime.end.p0i8(i64 32, i8* nonnull %51) #16
  call void @_ZNSt6vectorI9DataPointSaIS0_EED2Ev(%"class.std::vector"* noundef nonnull align 8 dereferenceable(24) %4) #16
  call void @llvm.lifetime.end.p0i8(i64 24, i8* nonnull %50) #16
  call void @_ZNSt6vectorI9DataPointSaIS0_EED2Ev(%"class.std::vector"* noundef nonnull align 8 dereferenceable(24) %3) #16
  call void @llvm.lifetime.end.p0i8(i64 24, i8* nonnull %49) #16
  br label %521

501:                                              ; preds = %44, %491
  %502 = phi i32 [ 0, %491 ], [ 1, %44 ]
  %503 = load i32 (...)**, i32 (...)*** bitcast ([4 x i8*]* @_ZTTSt14basic_ifstreamIcSt11char_traitsIcEE to i32 (...)***), align 8
  %504 = getelementptr inbounds %"class.std::basic_ifstream", %"class.std::basic_ifstream"* %2, i64 0, i32 0, i32 0
  store i32 (...)** %503, i32 (...)*** %504, align 8, !tbaa !5
  %505 = load i32 (...)**, i32 (...)*** bitcast (i8** getelementptr inbounds ([4 x i8*], [4 x i8*]* @_ZTTSt14basic_ifstreamIcSt11char_traitsIcEE, i64 0, i64 3) to i32 (...)***), align 8
  %506 = getelementptr i32 (...)*, i32 (...)** %503, i64 -3
  %507 = bitcast i32 (...)** %506 to i64*
  %508 = load i64, i64* %507, align 8
  %509 = getelementptr inbounds i8, i8* %10, i64 %508
  %510 = bitcast i8* %509 to i32 (...)***
  store i32 (...)** %505, i32 (...)*** %510, align 8, !tbaa !5
  %511 = getelementptr inbounds %"class.std::basic_ifstream", %"class.std::basic_ifstream"* %2, i64 0, i32 1
  call void @_ZNSt13basic_filebufIcSt11char_traitsIcEED2Ev(%"class.std::basic_filebuf"* noundef nonnull align 8 dereferenceable(240) %511) #16
  %512 = load i32 (...)**, i32 (...)*** bitcast (i8** getelementptr inbounds ([4 x i8*], [4 x i8*]* @_ZTTSt14basic_ifstreamIcSt11char_traitsIcEE, i64 0, i64 1) to i32 (...)***), align 8
  store i32 (...)** %512, i32 (...)*** %504, align 8, !tbaa !5
  %513 = load i32 (...)**, i32 (...)*** bitcast (i8** getelementptr inbounds ([4 x i8*], [4 x i8*]* @_ZTTSt14basic_ifstreamIcSt11char_traitsIcEE, i64 0, i64 2) to i32 (...)***), align 8
  %514 = getelementptr i32 (...)*, i32 (...)** %512, i64 -3
  %515 = bitcast i32 (...)** %514 to i64*
  %516 = load i64, i64* %515, align 8
  %517 = getelementptr inbounds i8, i8* %10, i64 %516
  %518 = bitcast i8* %517 to i32 (...)***
  store i32 (...)** %513, i32 (...)*** %518, align 8, !tbaa !5
  %519 = getelementptr inbounds %"class.std::basic_ifstream", %"class.std::basic_ifstream"* %2, i64 0, i32 0, i32 1
  store i64 0, i64* %519, align 8, !tbaa !40
  %520 = getelementptr inbounds %"class.std::basic_ifstream", %"class.std::basic_ifstream"* %2, i64 0, i32 2, i32 0
  call void @_ZNSt8ios_baseD2Ev(%"class.std::ios_base"* noundef nonnull align 8 dereferenceable(216) %520) #16
  call void @llvm.lifetime.end.p0i8(i64 520, i8* nonnull %10) #16
  ret i32 %502

521:                                              ; preds = %500, %46
  %522 = phi { i8*, i32 } [ %495, %500 ], [ %47, %46 ]
  call void @_ZNSt14basic_ifstreamIcSt11char_traitsIcEED1Ev(%"class.std::basic_ifstream"* noundef nonnull align 8 dereferenceable(256) %2) #16
  call void @llvm.lifetime.end.p0i8(i64 520, i8* nonnull %10) #16
  resume { i8*, i32 } %522
}

; Function Attrs: argmemonly mustprogress nofree nosync nounwind willreturn
declare void @llvm.lifetime.start.p0i8(i64 immarg, i8* nocapture) #5

; Function Attrs: uwtable
declare void @_ZNSt14basic_ifstreamIcSt11char_traitsIcEEC1EPKcSt13_Ios_Openmode(%"class.std::basic_ifstream"* noundef nonnull align 8 dereferenceable(256), i8* noundef, i32 noundef) unnamed_addr #6 align 2

declare i32 @__gxx_personality_v0(...)

; Function Attrs: uwtable
declare void @_ZNSt7__cxx1119basic_istringstreamIcSt11char_traitsIcESaIcEEC1ERKNS_12basic_stringIcS2_S3_EESt13_Ios_Openmode(%"class.std::__cxx11::basic_istringstream"* noundef nonnull align 8 dereferenceable(120), %"class.std::__cxx11::basic_string"* noundef nonnull align 8 dereferenceable(32), i32 noundef) unnamed_addr #6 align 2

declare noundef nonnull align 8 dereferenceable(16) %"class.std::basic_istream"* @_ZSt7getlineIcSt11char_traitsIcESaIcEERSt13basic_istreamIT_T0_ES7_RNSt7__cxx1112basic_stringIS4_S5_T1_EES4_(%"class.std::basic_istream"* noundef nonnull align 8 dereferenceable(16), %"class.std::__cxx11::basic_string"* noundef nonnull align 8 dereferenceable(32), i8 noundef signext) local_unnamed_addr #0

; Function Attrs: argmemonly mustprogress nofree nosync nounwind willreturn
declare void @llvm.lifetime.end.p0i8(i64 immarg, i8* nocapture) #5

; Function Attrs: nounwind uwtable
define linkonce_odr dso_local void @_ZNSt6vectorINSt7__cxx1112basic_stringIcSt11char_traitsIcESaIcEEESaIS5_EED2Ev(%"class.std::vector.0"* noundef nonnull align 8 dereferenceable(24) %0) unnamed_addr #7 comdat align 2 personality i8* bitcast (i32 (...)* @__gxx_personality_v0 to i8*) {
  %2 = getelementptr inbounds %"class.std::vector.0", %"class.std::vector.0"* %0, i64 0, i32 0, i32 0, i32 0, i32 0
  %3 = load %"class.std::__cxx11::basic_string"*, %"class.std::__cxx11::basic_string"** %2, align 8, !tbaa !38
  %4 = getelementptr inbounds %"class.std::vector.0", %"class.std::vector.0"* %0, i64 0, i32 0, i32 0, i32 0, i32 1
  %5 = load %"class.std::__cxx11::basic_string"*, %"class.std::__cxx11::basic_string"** %4, align 8, !tbaa !28
  %6 = icmp eq %"class.std::__cxx11::basic_string"* %3, %5
  br i1 %6, label %20, label %7

7:                                                ; preds = %1, %15
  %8 = phi %"class.std::__cxx11::basic_string"* [ %16, %15 ], [ %3, %1 ]
  %9 = getelementptr inbounds %"class.std::__cxx11::basic_string", %"class.std::__cxx11::basic_string"* %8, i64 0, i32 0, i32 0
  %10 = load i8*, i8** %9, align 8, !tbaa !31
  %11 = getelementptr inbounds %"class.std::__cxx11::basic_string", %"class.std::__cxx11::basic_string"* %8, i64 0, i32 2
  %12 = bitcast %union.anon* %11 to i8*
  %13 = icmp eq i8* %10, %12
  br i1 %13, label %15, label %14

14:                                               ; preds = %7
  tail call void @_ZdlPv(i8* noundef %10) #16
  br label %15

15:                                               ; preds = %14, %7
  %16 = getelementptr inbounds %"class.std::__cxx11::basic_string", %"class.std::__cxx11::basic_string"* %8, i64 1
  %17 = icmp eq %"class.std::__cxx11::basic_string"* %16, %5
  br i1 %17, label %18, label %7, !llvm.loop !39

18:                                               ; preds = %15
  %19 = load %"class.std::__cxx11::basic_string"*, %"class.std::__cxx11::basic_string"** %2, align 8, !tbaa !38
  br label %20

20:                                               ; preds = %18, %1
  %21 = phi %"class.std::__cxx11::basic_string"* [ %19, %18 ], [ %3, %1 ]
  %22 = icmp eq %"class.std::__cxx11::basic_string"* %21, null
  br i1 %22, label %25, label %23

23:                                               ; preds = %20
  %24 = bitcast %"class.std::__cxx11::basic_string"* %21 to i8*
  tail call void @_ZdlPv(i8* noundef nonnull %24) #16
  br label %25

25:                                               ; preds = %20, %23
  ret void
}

; Function Attrs: nounwind uwtable
declare void @_ZNSt7__cxx1119basic_istringstreamIcSt11char_traitsIcESaIcEED1Ev(%"class.std::__cxx11::basic_istringstream"* noundef nonnull align 8 dereferenceable(120)) unnamed_addr #7 align 2

; Function Attrs: nounwind uwtable
define linkonce_odr dso_local void @_ZNSt6vectorI9DataPointSaIS0_EED2Ev(%"class.std::vector"* noundef nonnull align 8 dereferenceable(24) %0) unnamed_addr #7 comdat align 2 personality i8* bitcast (i32 (...)* @__gxx_personality_v0 to i8*) {
  %2 = getelementptr inbounds %"class.std::vector", %"class.std::vector"* %0, i64 0, i32 0, i32 0, i32 0, i32 0
  %3 = load %struct.DataPoint*, %struct.DataPoint** %2, align 8, !tbaa !44
  %4 = getelementptr inbounds %"class.std::vector", %"class.std::vector"* %0, i64 0, i32 0, i32 0, i32 0, i32 1
  %5 = load %struct.DataPoint*, %struct.DataPoint** %4, align 8, !tbaa !35
  %6 = icmp eq %struct.DataPoint* %3, %5
  br i1 %6, label %44, label %7

7:                                                ; preds = %1, %39
  %8 = phi %struct.DataPoint* [ %40, %39 ], [ %3, %1 ]
  %9 = getelementptr inbounds %struct.DataPoint, %struct.DataPoint* %8, i64 0, i32 1, i32 0, i32 0
  %10 = load i8*, i8** %9, align 8, !tbaa !31
  %11 = getelementptr inbounds %struct.DataPoint, %struct.DataPoint* %8, i64 0, i32 1, i32 2
  %12 = bitcast %union.anon* %11 to i8*
  %13 = icmp eq i8* %10, %12
  br i1 %13, label %15, label %14

14:                                               ; preds = %7
  tail call void @_ZdlPv(i8* noundef %10) #16
  br label %15

15:                                               ; preds = %14, %7
  %16 = getelementptr inbounds %struct.DataPoint, %struct.DataPoint* %8, i64 0, i32 0, i32 0, i32 0, i32 0, i32 0
  %17 = load %"class.std::__cxx11::basic_string"*, %"class.std::__cxx11::basic_string"** %16, align 8, !tbaa !38
  %18 = getelementptr inbounds %struct.DataPoint, %struct.DataPoint* %8, i64 0, i32 0, i32 0, i32 0, i32 0, i32 1
  %19 = load %"class.std::__cxx11::basic_string"*, %"class.std::__cxx11::basic_string"** %18, align 8, !tbaa !28
  %20 = icmp eq %"class.std::__cxx11::basic_string"* %17, %19
  br i1 %20, label %34, label %21

21:                                               ; preds = %15, %29
  %22 = phi %"class.std::__cxx11::basic_string"* [ %30, %29 ], [ %17, %15 ]
  %23 = getelementptr inbounds %"class.std::__cxx11::basic_string", %"class.std::__cxx11::basic_string"* %22, i64 0, i32 0, i32 0
  %24 = load i8*, i8** %23, align 8, !tbaa !31
  %25 = getelementptr inbounds %"class.std::__cxx11::basic_string", %"class.std::__cxx11::basic_string"* %22, i64 0, i32 2
  %26 = bitcast %union.anon* %25 to i8*
  %27 = icmp eq i8* %24, %26
  br i1 %27, label %29, label %28

28:                                               ; preds = %21
  tail call void @_ZdlPv(i8* noundef %24) #16
  br label %29

29:                                               ; preds = %28, %21
  %30 = getelementptr inbounds %"class.std::__cxx11::basic_string", %"class.std::__cxx11::basic_string"* %22, i64 1
  %31 = icmp eq %"class.std::__cxx11::basic_string"* %30, %19
  br i1 %31, label %32, label %21, !llvm.loop !39

32:                                               ; preds = %29
  %33 = load %"class.std::__cxx11::basic_string"*, %"class.std::__cxx11::basic_string"** %16, align 8, !tbaa !38
  br label %34

34:                                               ; preds = %32, %15
  %35 = phi %"class.std::__cxx11::basic_string"* [ %33, %32 ], [ %17, %15 ]
  %36 = icmp eq %"class.std::__cxx11::basic_string"* %35, null
  br i1 %36, label %39, label %37

37:                                               ; preds = %34
  %38 = bitcast %"class.std::__cxx11::basic_string"* %35 to i8*
  tail call void @_ZdlPv(i8* noundef nonnull %38) #16
  br label %39

39:                                               ; preds = %37, %34
  %40 = getelementptr inbounds %struct.DataPoint, %struct.DataPoint* %8, i64 1
  %41 = icmp eq %struct.DataPoint* %40, %5
  br i1 %41, label %42, label %7, !llvm.loop !45

42:                                               ; preds = %39
  %43 = load %struct.DataPoint*, %struct.DataPoint** %2, align 8, !tbaa !44
  br label %44

44:                                               ; preds = %42, %1
  %45 = phi %struct.DataPoint* [ %43, %42 ], [ %3, %1 ]
  %46 = icmp eq %struct.DataPoint* %45, null
  br i1 %46, label %49, label %47

47:                                               ; preds = %44
  %48 = bitcast %struct.DataPoint* %45 to i8*
  tail call void @_ZdlPv(i8* noundef nonnull %48) #16
  br label %49

49:                                               ; preds = %44, %47
  ret void
}

; Function Attrs: nounwind uwtable
declare void @_ZNSt14basic_ifstreamIcSt11char_traitsIcEED1Ev(%"class.std::basic_ifstream"* noundef nonnull align 8 dereferenceable(256)) unnamed_addr #7 align 2

; Function Attrs: noinline noreturn nounwind
define linkonce_odr hidden void @__clang_call_terminate(i8* %0) local_unnamed_addr #8 comdat {
  %2 = tail call i8* @__cxa_begin_catch(i8* %0) #16
  tail call void @_ZSt9terminatev() #19
  unreachable
}

declare i8* @__cxa_begin_catch(i8*) local_unnamed_addr

declare void @_ZSt9terminatev() local_unnamed_addr

; Function Attrs: nobuiltin nounwind
declare void @_ZdlPv(i8* noundef) local_unnamed_addr #9

; Function Attrs: nounwind uwtable
declare void @_ZNSt13basic_filebufIcSt11char_traitsIcEED2Ev(%"class.std::basic_filebuf"* noundef nonnull align 8 dereferenceable(240)) unnamed_addr #7 align 2

declare void @__cxa_end_catch() local_unnamed_addr

; Function Attrs: nounwind
declare void @_ZNSt6localeD1Ev(%"class.std::locale"* noundef nonnull align 8 dereferenceable(8)) unnamed_addr #1

; Function Attrs: nounwind
declare void @_ZNSt8ios_baseD2Ev(%"class.std::ios_base"* noundef nonnull align 8 dereferenceable(216)) unnamed_addr #1

; Function Attrs: mustprogress nofree nounwind readonly willreturn
declare noundef zeroext i1 @_ZNKSt12__basic_fileIcE7is_openEv(%"class.std::__basic_file"* noundef nonnull align 8 dereferenceable(9)) local_unnamed_addr #10

declare noundef nonnull align 8 dereferenceable(8) %"class.std::basic_ostream"* @_ZSt16__ostream_insertIcSt11char_traitsIcEERSt13basic_ostreamIT_T0_ES6_PKS3_l(%"class.std::basic_ostream"* noundef nonnull align 8 dereferenceable(8), i8* noundef, i64 noundef) local_unnamed_addr #0

declare noundef nonnull align 8 dereferenceable(8) %"class.std::basic_ostream"* @_ZNSo3putEc(%"class.std::basic_ostream"* noundef nonnull align 8 dereferenceable(8), i8 noundef signext) local_unnamed_addr #0

declare noundef nonnull align 8 dereferenceable(8) %"class.std::basic_ostream"* @_ZNSo5flushEv(%"class.std::basic_ostream"* noundef nonnull align 8 dereferenceable(8)) local_unnamed_addr #0

; Function Attrs: noreturn
declare void @_ZSt16__throw_bad_castv() local_unnamed_addr #11

declare void @_ZNKSt5ctypeIcE13_M_widen_initEv(%"class.std::ctype"* noundef nonnull align 8 dereferenceable(570)) local_unnamed_addr #0

declare noundef i8* @_ZNSt7__cxx1112basic_stringIcSt11char_traitsIcESaIcEE9_M_createERmm(%"class.std::__cxx11::basic_string"* noundef nonnull align 8 dereferenceable(32), i64* noundef nonnull align 8 dereferenceable(8), i64 noundef) local_unnamed_addr #0

; Function Attrs: argmemonly mustprogress nofree nounwind willreturn
declare void @llvm.memcpy.p0i8.p0i8.i64(i8* noalias nocapture writeonly, i8* noalias nocapture readonly, i64, i1 immarg) #12

; Function Attrs: uwtable
define linkonce_odr dso_local void @_ZNSt6vectorINSt7__cxx1112basic_stringIcSt11char_traitsIcESaIcEEESaIS5_EE17_M_realloc_insertIJRKS5_EEEvN9__gnu_cxx17__normal_iteratorIPS5_S7_EEDpOT_(%"class.std::vector.0"* noundef nonnull align 8 dereferenceable(24) %0, %"class.std::__cxx11::basic_string"* %1, %"class.std::__cxx11::basic_string"* noundef nonnull align 8 dereferenceable(32) %2) local_unnamed_addr #6 comdat align 2 personality i8* bitcast (i32 (...)* @__gxx_personality_v0 to i8*) {
  %4 = alloca i64, align 8
  %5 = getelementptr inbounds %"class.std::vector.0", %"class.std::vector.0"* %0, i64 0, i32 0, i32 0, i32 0, i32 1
  %6 = load %"class.std::__cxx11::basic_string"*, %"class.std::__cxx11::basic_string"** %5, align 8, !tbaa !28
  %7 = getelementptr inbounds %"class.std::vector.0", %"class.std::vector.0"* %0, i64 0, i32 0, i32 0, i32 0, i32 0
  %8 = load %"class.std::__cxx11::basic_string"*, %"class.std::__cxx11::basic_string"** %7, align 8, !tbaa !38
  %9 = ptrtoint %"class.std::__cxx11::basic_string"* %6 to i64
  %10 = ptrtoint %"class.std::__cxx11::basic_string"* %8 to i64
  %11 = sub i64 %9, %10
  %12 = ashr exact i64 %11, 5
  %13 = icmp eq i64 %11, 9223372036854775776
  br i1 %13, label %14, label %15

14:                                               ; preds = %3
  tail call void @_ZSt20__throw_length_errorPKc(i8* noundef getelementptr inbounds ([26 x i8], [26 x i8]* @.str.5, i64 0, i64 0)) #18
  unreachable

15:                                               ; preds = %3
  %16 = icmp eq i64 %11, 0
  %17 = select i1 %16, i64 1, i64 %12
  %18 = add nsw i64 %17, %12
  %19 = icmp ult i64 %18, %12
  %20 = icmp ugt i64 %18, 288230376151711743
  %21 = or i1 %19, %20
  %22 = select i1 %21, i64 288230376151711743, i64 %18
  %23 = ptrtoint %"class.std::__cxx11::basic_string"* %1 to i64
  %24 = sub i64 %23, %10
  %25 = ashr exact i64 %24, 5
  %26 = icmp eq i64 %22, 0
  br i1 %26, label %31, label %27

27:                                               ; preds = %15
  %28 = shl nuw nsw i64 %22, 5
  %29 = tail call noalias noundef nonnull i8* @_Znwm(i64 noundef %28) #20
  %30 = bitcast i8* %29 to %"class.std::__cxx11::basic_string"*
  br label %31

31:                                               ; preds = %15, %27
  %32 = phi %"class.std::__cxx11::basic_string"* [ %30, %27 ], [ null, %15 ]
  %33 = getelementptr inbounds %"class.std::__cxx11::basic_string", %"class.std::__cxx11::basic_string"* %32, i64 %25
  %34 = getelementptr inbounds %"class.std::__cxx11::basic_string", %"class.std::__cxx11::basic_string"* %32, i64 %25, i32 2
  %35 = bitcast %"class.std::__cxx11::basic_string"* %33 to %union.anon**
  store %union.anon* %34, %union.anon** %35, align 8, !tbaa !16
  %36 = getelementptr inbounds %"class.std::__cxx11::basic_string", %"class.std::__cxx11::basic_string"* %2, i64 0, i32 0, i32 0
  %37 = load i8*, i8** %36, align 8, !tbaa !31
  %38 = getelementptr inbounds %"class.std::__cxx11::basic_string", %"class.std::__cxx11::basic_string"* %2, i64 0, i32 1
  %39 = load i64, i64* %38, align 8, !tbaa !18
  %40 = bitcast i64* %4 to i8*
  call void @llvm.lifetime.start.p0i8(i64 8, i8* nonnull %40) #16
  store i64 %39, i64* %4, align 8, !tbaa !32
  %41 = icmp ugt i64 %39, 15
  br i1 %41, label %44, label %42

42:                                               ; preds = %31
  %43 = bitcast %union.anon* %34 to i8*
  br label %50

44:                                               ; preds = %31
  %45 = invoke noundef i8* @_ZNSt7__cxx1112basic_stringIcSt11char_traitsIcESaIcEE9_M_createERmm(%"class.std::__cxx11::basic_string"* noundef nonnull align 8 dereferenceable(32) %33, i64* noundef nonnull align 8 dereferenceable(8) %4, i64 noundef 0)
          to label %46 unwind label %126

46:                                               ; preds = %44
  %47 = getelementptr inbounds %"class.std::__cxx11::basic_string", %"class.std::__cxx11::basic_string"* %33, i64 0, i32 0, i32 0
  store i8* %45, i8** %47, align 8, !tbaa !31
  %48 = load i64, i64* %4, align 8, !tbaa !32
  %49 = getelementptr inbounds %"class.std::__cxx11::basic_string", %"class.std::__cxx11::basic_string"* %32, i64 %25, i32 2, i32 0
  store i64 %48, i64* %49, align 8, !tbaa !15
  br label %50

50:                                               ; preds = %46, %42
  %51 = phi i8* [ %43, %42 ], [ %45, %46 ]
  switch i64 %39, label %54 [
    i64 1, label %52
    i64 0, label %55
  ]

52:                                               ; preds = %50
  %53 = load i8, i8* %37, align 1, !tbaa !15
  store i8 %53, i8* %51, align 1, !tbaa !15
  br label %55

54:                                               ; preds = %50
  call void @llvm.memcpy.p0i8.p0i8.i64(i8* align 1 %51, i8* align 1 %37, i64 %39, i1 false) #16
  br label %55

55:                                               ; preds = %54, %52, %50
  %56 = getelementptr inbounds %"class.std::__cxx11::basic_string", %"class.std::__cxx11::basic_string"* %33, i64 0, i32 0, i32 0
  %57 = load i64, i64* %4, align 8, !tbaa !32
  %58 = getelementptr inbounds %"class.std::__cxx11::basic_string", %"class.std::__cxx11::basic_string"* %32, i64 %25, i32 1
  store i64 %57, i64* %58, align 8, !tbaa !18
  %59 = load i8*, i8** %56, align 8, !tbaa !31
  %60 = getelementptr inbounds i8, i8* %59, i64 %57
  store i8 0, i8* %60, align 1, !tbaa !15
  call void @llvm.lifetime.end.p0i8(i64 8, i8* nonnull %40) #16
  %61 = icmp eq %"class.std::__cxx11::basic_string"* %8, %1
  br i1 %61, label %87, label %62

62:                                               ; preds = %55, %79
  %63 = phi %"class.std::__cxx11::basic_string"* [ %85, %79 ], [ %32, %55 ]
  %64 = phi %"class.std::__cxx11::basic_string"* [ %84, %79 ], [ %8, %55 ]
  call void @llvm.experimental.noalias.scope.decl(metadata !46) #16
  call void @llvm.experimental.noalias.scope.decl(metadata !49) #16
  %65 = getelementptr inbounds %"class.std::__cxx11::basic_string", %"class.std::__cxx11::basic_string"* %63, i64 0, i32 2
  %66 = bitcast %"class.std::__cxx11::basic_string"* %63 to %union.anon**
  store %union.anon* %65, %union.anon** %66, align 8, !tbaa !16, !alias.scope !46, !noalias !49
  %67 = getelementptr inbounds %"class.std::__cxx11::basic_string", %"class.std::__cxx11::basic_string"* %64, i64 0, i32 0, i32 0
  %68 = load i8*, i8** %67, align 8, !tbaa !31, !alias.scope !49, !noalias !46
  %69 = getelementptr inbounds %"class.std::__cxx11::basic_string", %"class.std::__cxx11::basic_string"* %64, i64 0, i32 2
  %70 = bitcast %union.anon* %69 to i8*
  %71 = icmp eq i8* %68, %70
  br i1 %71, label %72, label %74

72:                                               ; preds = %62
  %73 = bitcast %union.anon* %65 to i8*
  call void @llvm.memcpy.p0i8.p0i8.i64(i8* noundef nonnull align 8 dereferenceable(16) %73, i8* noundef nonnull align 8 dereferenceable(16) %68, i64 16, i1 false) #16
  br label %79

74:                                               ; preds = %62
  %75 = getelementptr inbounds %"class.std::__cxx11::basic_string", %"class.std::__cxx11::basic_string"* %63, i64 0, i32 0, i32 0
  store i8* %68, i8** %75, align 8, !tbaa !31, !alias.scope !46, !noalias !49
  %76 = getelementptr inbounds %"class.std::__cxx11::basic_string", %"class.std::__cxx11::basic_string"* %64, i64 0, i32 2, i32 0
  %77 = load i64, i64* %76, align 8, !tbaa !15, !alias.scope !49, !noalias !46
  %78 = getelementptr inbounds %"class.std::__cxx11::basic_string", %"class.std::__cxx11::basic_string"* %63, i64 0, i32 2, i32 0
  store i64 %77, i64* %78, align 8, !tbaa !15, !alias.scope !46, !noalias !49
  br label %79

79:                                               ; preds = %74, %72
  %80 = getelementptr inbounds %"class.std::__cxx11::basic_string", %"class.std::__cxx11::basic_string"* %64, i64 0, i32 1
  %81 = load i64, i64* %80, align 8, !tbaa !18, !alias.scope !49, !noalias !46
  %82 = getelementptr inbounds %"class.std::__cxx11::basic_string", %"class.std::__cxx11::basic_string"* %63, i64 0, i32 1
  store i64 %81, i64* %82, align 8, !tbaa !18, !alias.scope !46, !noalias !49
  %83 = bitcast %"class.std::__cxx11::basic_string"* %64 to %union.anon**
  store %union.anon* %69, %union.anon** %83, align 8, !tbaa !31, !alias.scope !49, !noalias !46
  store i64 0, i64* %80, align 8, !tbaa !18, !alias.scope !49, !noalias !46
  store i8 0, i8* %70, align 8, !tbaa !15, !alias.scope !49, !noalias !46
  %84 = getelementptr inbounds %"class.std::__cxx11::basic_string", %"class.std::__cxx11::basic_string"* %64, i64 1
  %85 = getelementptr inbounds %"class.std::__cxx11::basic_string", %"class.std::__cxx11::basic_string"* %63, i64 1
  %86 = icmp eq %"class.std::__cxx11::basic_string"* %84, %1
  br i1 %86, label %87, label %62, !llvm.loop !51

87:                                               ; preds = %79, %55
  %88 = phi %"class.std::__cxx11::basic_string"* [ %32, %55 ], [ %85, %79 ]
  %89 = getelementptr inbounds %"class.std::__cxx11::basic_string", %"class.std::__cxx11::basic_string"* %88, i64 1
  %90 = icmp eq %"class.std::__cxx11::basic_string"* %6, %1
  br i1 %90, label %116, label %91

91:                                               ; preds = %87, %108
  %92 = phi %"class.std::__cxx11::basic_string"* [ %114, %108 ], [ %89, %87 ]
  %93 = phi %"class.std::__cxx11::basic_string"* [ %113, %108 ], [ %1, %87 ]
  call void @llvm.experimental.noalias.scope.decl(metadata !52) #16
  call void @llvm.experimental.noalias.scope.decl(metadata !55) #16
  %94 = getelementptr inbounds %"class.std::__cxx11::basic_string", %"class.std::__cxx11::basic_string"* %92, i64 0, i32 2
  %95 = bitcast %"class.std::__cxx11::basic_string"* %92 to %union.anon**
  store %union.anon* %94, %union.anon** %95, align 8, !tbaa !16, !alias.scope !52, !noalias !55
  %96 = getelementptr inbounds %"class.std::__cxx11::basic_string", %"class.std::__cxx11::basic_string"* %93, i64 0, i32 0, i32 0
  %97 = load i8*, i8** %96, align 8, !tbaa !31, !alias.scope !55, !noalias !52
  %98 = getelementptr inbounds %"class.std::__cxx11::basic_string", %"class.std::__cxx11::basic_string"* %93, i64 0, i32 2
  %99 = bitcast %union.anon* %98 to i8*
  %100 = icmp eq i8* %97, %99
  br i1 %100, label %101, label %103

101:                                              ; preds = %91
  %102 = bitcast %union.anon* %94 to i8*
  call void @llvm.memcpy.p0i8.p0i8.i64(i8* noundef nonnull align 8 dereferenceable(16) %102, i8* noundef nonnull align 8 dereferenceable(16) %97, i64 16, i1 false) #16
  br label %108

103:                                              ; preds = %91
  %104 = getelementptr inbounds %"class.std::__cxx11::basic_string", %"class.std::__cxx11::basic_string"* %92, i64 0, i32 0, i32 0
  store i8* %97, i8** %104, align 8, !tbaa !31, !alias.scope !52, !noalias !55
  %105 = getelementptr inbounds %"class.std::__cxx11::basic_string", %"class.std::__cxx11::basic_string"* %93, i64 0, i32 2, i32 0
  %106 = load i64, i64* %105, align 8, !tbaa !15, !alias.scope !55, !noalias !52
  %107 = getelementptr inbounds %"class.std::__cxx11::basic_string", %"class.std::__cxx11::basic_string"* %92, i64 0, i32 2, i32 0
  store i64 %106, i64* %107, align 8, !tbaa !15, !alias.scope !52, !noalias !55
  br label %108

108:                                              ; preds = %103, %101
  %109 = getelementptr inbounds %"class.std::__cxx11::basic_string", %"class.std::__cxx11::basic_string"* %93, i64 0, i32 1
  %110 = load i64, i64* %109, align 8, !tbaa !18, !alias.scope !55, !noalias !52
  %111 = getelementptr inbounds %"class.std::__cxx11::basic_string", %"class.std::__cxx11::basic_string"* %92, i64 0, i32 1
  store i64 %110, i64* %111, align 8, !tbaa !18, !alias.scope !52, !noalias !55
  %112 = bitcast %"class.std::__cxx11::basic_string"* %93 to %union.anon**
  store %union.anon* %98, %union.anon** %112, align 8, !tbaa !31, !alias.scope !55, !noalias !52
  store i64 0, i64* %109, align 8, !tbaa !18, !alias.scope !55, !noalias !52
  store i8 0, i8* %99, align 8, !tbaa !15, !alias.scope !55, !noalias !52
  %113 = getelementptr inbounds %"class.std::__cxx11::basic_string", %"class.std::__cxx11::basic_string"* %93, i64 1
  %114 = getelementptr inbounds %"class.std::__cxx11::basic_string", %"class.std::__cxx11::basic_string"* %92, i64 1
  %115 = icmp eq %"class.std::__cxx11::basic_string"* %113, %6
  br i1 %115, label %116, label %91, !llvm.loop !51

116:                                              ; preds = %108, %87
  %117 = phi %"class.std::__cxx11::basic_string"* [ %89, %87 ], [ %114, %108 ]
  %118 = icmp eq %"class.std::__cxx11::basic_string"* %8, null
  br i1 %118, label %121, label %119

119:                                              ; preds = %116
  %120 = bitcast %"class.std::__cxx11::basic_string"* %8 to i8*
  call void @_ZdlPv(i8* noundef nonnull %120) #16
  br label %121

121:                                              ; preds = %116, %119
  %122 = getelementptr inbounds %"class.std::vector.0", %"class.std::vector.0"* %0, i64 0, i32 0, i32 0, i32 0, i32 2
  store %"class.std::__cxx11::basic_string"* %32, %"class.std::__cxx11::basic_string"** %7, align 8, !tbaa !38
  store %"class.std::__cxx11::basic_string"* %117, %"class.std::__cxx11::basic_string"** %5, align 8, !tbaa !28
  %123 = getelementptr inbounds %"class.std::__cxx11::basic_string", %"class.std::__cxx11::basic_string"* %32, i64 %22
  store %"class.std::__cxx11::basic_string"* %123, %"class.std::__cxx11::basic_string"** %122, align 8, !tbaa !30
  ret void

124:                                              ; preds = %126
  %125 = landingpad { i8*, i32 }
          cleanup
  invoke void @__cxa_end_catch()
          to label %131 unwind label %132

126:                                              ; preds = %44
  %127 = landingpad { i8*, i32 }
          catch i8* null
  %128 = extractvalue { i8*, i32 } %127, 0
  %129 = call i8* @__cxa_begin_catch(i8* %128) #16
  %130 = bitcast %"class.std::__cxx11::basic_string"* %32 to i8*
  call void @_ZdlPv(i8* noundef nonnull %130) #16
  invoke void @__cxa_rethrow() #18
          to label %135 unwind label %124

131:                                              ; preds = %124
  resume { i8*, i32 } %125

132:                                              ; preds = %124
  %133 = landingpad { i8*, i32 }
          catch i8* null
  %134 = extractvalue { i8*, i32 } %133, 0
  call void @__clang_call_terminate(i8* %134) #19
  unreachable

135:                                              ; preds = %126
  unreachable
}

declare void @__cxa_rethrow() local_unnamed_addr

; Function Attrs: noreturn
declare void @_ZSt20__throw_length_errorPKc(i8* noundef) local_unnamed_addr #11

; Function Attrs: noreturn
declare void @_ZSt28__throw_bad_array_new_lengthv() local_unnamed_addr #11

; Function Attrs: nobuiltin allocsize(0)
declare noundef nonnull i8* @_Znwm(i64 noundef) local_unnamed_addr #13

declare void @_ZNSt7__cxx1112basic_stringIcSt11char_traitsIcESaIcEE9_M_assignERKS4_(%"class.std::__cxx11::basic_string"* noundef nonnull align 8 dereferenceable(32), %"class.std::__cxx11::basic_string"* noundef nonnull align 8 dereferenceable(32)) local_unnamed_addr #0

; Function Attrs: uwtable
define linkonce_odr dso_local void @_ZNSt6vectorI9DataPointSaIS0_EE17_M_realloc_insertIJRS_INSt7__cxx1112basic_stringIcSt11char_traitsIcESaIcEEESaIS9_EERS9_EEEvN9__gnu_cxx17__normal_iteratorIPS0_S2_EEDpOT_(%"class.std::vector"* noundef nonnull align 8 dereferenceable(24) %0, %struct.DataPoint* %1, %"class.std::vector.0"* noundef nonnull align 8 dereferenceable(24) %2, %"class.std::__cxx11::basic_string"* noundef nonnull align 8 dereferenceable(32) %3) local_unnamed_addr #6 comdat align 2 personality i8* bitcast (i32 (...)* @__gxx_personality_v0 to i8*) {
  %5 = getelementptr inbounds %"class.std::vector", %"class.std::vector"* %0, i64 0, i32 0, i32 0, i32 0, i32 1
  %6 = load %struct.DataPoint*, %struct.DataPoint** %5, align 8, !tbaa !35
  %7 = getelementptr inbounds %"class.std::vector", %"class.std::vector"* %0, i64 0, i32 0, i32 0, i32 0, i32 0
  %8 = load %struct.DataPoint*, %struct.DataPoint** %7, align 8, !tbaa !44
  %9 = ptrtoint %struct.DataPoint* %6 to i64
  %10 = ptrtoint %struct.DataPoint* %8 to i64
  %11 = sub i64 %9, %10
  %12 = sdiv exact i64 %11, 56
  %13 = icmp eq i64 %11, 9223372036854775800
  br i1 %13, label %14, label %15

14:                                               ; preds = %4
  tail call void @_ZSt20__throw_length_errorPKc(i8* noundef getelementptr inbounds ([26 x i8], [26 x i8]* @.str.5, i64 0, i64 0)) #18
  unreachable

15:                                               ; preds = %4
  %16 = icmp eq i64 %11, 0
  %17 = select i1 %16, i64 1, i64 %12
  %18 = add nsw i64 %17, %12
  %19 = icmp ult i64 %18, %12
  %20 = icmp ugt i64 %18, 164703072086692425
  %21 = or i1 %19, %20
  %22 = select i1 %21, i64 164703072086692425, i64 %18
  %23 = ptrtoint %struct.DataPoint* %1 to i64
  %24 = sub i64 %23, %10
  %25 = sdiv exact i64 %24, 56
  %26 = icmp eq i64 %22, 0
  br i1 %26, label %31, label %27

27:                                               ; preds = %15
  %28 = mul nuw nsw i64 %22, 56
  %29 = tail call noalias noundef nonnull i8* @_Znwm(i64 noundef %28) #20
  %30 = bitcast i8* %29 to %struct.DataPoint*
  br label %31

31:                                               ; preds = %15, %27
  %32 = phi %struct.DataPoint* [ %30, %27 ], [ null, %15 ]
  %33 = bitcast %"class.std::vector"* %0 to %"class.std::allocator.5"*
  %34 = getelementptr inbounds %struct.DataPoint, %struct.DataPoint* %32, i64 %25
  invoke void @_ZN9DataPointC2ERKSt6vectorINSt7__cxx1112basic_stringIcSt11char_traitsIcESaIcEEESaIS6_EERKS6_(%struct.DataPoint* noundef nonnull align 8 dereferenceable(56) %34, %"class.std::vector.0"* noundef nonnull align 8 dereferenceable(24) %2, %"class.std::__cxx11::basic_string"* noundef nonnull align 8 dereferenceable(32) %3)
          to label %35 unwind label %117

35:                                               ; preds = %31
  %36 = icmp eq %struct.DataPoint* %8, %1
  br i1 %36, label %71, label %37

37:                                               ; preds = %35, %63
  %38 = phi %struct.DataPoint* [ %69, %63 ], [ %32, %35 ]
  %39 = phi %struct.DataPoint* [ %68, %63 ], [ %8, %35 ]
  tail call void @llvm.experimental.noalias.scope.decl(metadata !57) #16
  tail call void @llvm.experimental.noalias.scope.decl(metadata !60) #16
  %40 = bitcast %struct.DataPoint* %39 to <2 x %"class.std::__cxx11::basic_string"*>*
  %41 = load <2 x %"class.std::__cxx11::basic_string"*>, <2 x %"class.std::__cxx11::basic_string"*>* %40, align 8, !tbaa !43, !alias.scope !60, !noalias !57
  %42 = bitcast %struct.DataPoint* %38 to <2 x %"class.std::__cxx11::basic_string"*>*
  store <2 x %"class.std::__cxx11::basic_string"*> %41, <2 x %"class.std::__cxx11::basic_string"*>* %42, align 8, !tbaa !43, !alias.scope !57, !noalias !60
  %43 = getelementptr inbounds %struct.DataPoint, %struct.DataPoint* %38, i64 0, i32 0, i32 0, i32 0, i32 0, i32 2
  %44 = getelementptr inbounds %struct.DataPoint, %struct.DataPoint* %39, i64 0, i32 0, i32 0, i32 0, i32 0, i32 2
  %45 = load %"class.std::__cxx11::basic_string"*, %"class.std::__cxx11::basic_string"** %44, align 8, !tbaa !30, !alias.scope !60, !noalias !57
  store %"class.std::__cxx11::basic_string"* %45, %"class.std::__cxx11::basic_string"** %43, align 8, !tbaa !30, !alias.scope !57, !noalias !60
  %46 = bitcast %struct.DataPoint* %39 to i8*
  tail call void @llvm.memset.p0i8.i64(i8* noundef nonnull align 8 dereferenceable(24) %46, i8 0, i64 24, i1 false) #16, !alias.scope !60, !noalias !57
  %47 = getelementptr inbounds %struct.DataPoint, %struct.DataPoint* %38, i64 0, i32 1
  %48 = getelementptr inbounds %struct.DataPoint, %struct.DataPoint* %39, i64 0, i32 1
  %49 = getelementptr inbounds %struct.DataPoint, %struct.DataPoint* %38, i64 0, i32 1, i32 2
  %50 = bitcast %"class.std::__cxx11::basic_string"* %47 to %union.anon**
  store %union.anon* %49, %union.anon** %50, align 8, !tbaa !16, !alias.scope !57, !noalias !60
  %51 = getelementptr inbounds %"class.std::__cxx11::basic_string", %"class.std::__cxx11::basic_string"* %48, i64 0, i32 0, i32 0
  %52 = load i8*, i8** %51, align 8, !tbaa !31, !alias.scope !60, !noalias !57
  %53 = getelementptr inbounds %struct.DataPoint, %struct.DataPoint* %39, i64 0, i32 1, i32 2
  %54 = bitcast %union.anon* %53 to i8*
  %55 = icmp eq i8* %52, %54
  br i1 %55, label %56, label %58

56:                                               ; preds = %37
  %57 = bitcast %union.anon* %49 to i8*
  tail call void @llvm.memcpy.p0i8.p0i8.i64(i8* noundef nonnull align 8 dereferenceable(16) %57, i8* noundef nonnull align 8 dereferenceable(16) %52, i64 16, i1 false) #16
  br label %63

58:                                               ; preds = %37
  %59 = getelementptr inbounds %"class.std::__cxx11::basic_string", %"class.std::__cxx11::basic_string"* %47, i64 0, i32 0, i32 0
  store i8* %52, i8** %59, align 8, !tbaa !31, !alias.scope !57, !noalias !60
  %60 = getelementptr inbounds %struct.DataPoint, %struct.DataPoint* %39, i64 0, i32 1, i32 2, i32 0
  %61 = load i64, i64* %60, align 8, !tbaa !15, !alias.scope !60, !noalias !57
  %62 = getelementptr inbounds %struct.DataPoint, %struct.DataPoint* %38, i64 0, i32 1, i32 2, i32 0
  store i64 %61, i64* %62, align 8, !tbaa !15, !alias.scope !57, !noalias !60
  br label %63

63:                                               ; preds = %58, %56
  %64 = getelementptr inbounds %struct.DataPoint, %struct.DataPoint* %39, i64 0, i32 1, i32 1
  %65 = load i64, i64* %64, align 8, !tbaa !18, !alias.scope !60, !noalias !57
  %66 = getelementptr inbounds %struct.DataPoint, %struct.DataPoint* %38, i64 0, i32 1, i32 1
  store i64 %65, i64* %66, align 8, !tbaa !18, !alias.scope !57, !noalias !60
  %67 = bitcast %"class.std::__cxx11::basic_string"* %48 to %union.anon**
  store %union.anon* %53, %union.anon** %67, align 8, !tbaa !31, !alias.scope !60, !noalias !57
  store i64 0, i64* %64, align 8, !tbaa !18, !alias.scope !60, !noalias !57
  store i8 0, i8* %54, align 8, !tbaa !15, !alias.scope !60, !noalias !57
  %68 = getelementptr inbounds %struct.DataPoint, %struct.DataPoint* %39, i64 1
  %69 = getelementptr inbounds %struct.DataPoint, %struct.DataPoint* %38, i64 1
  %70 = icmp eq %struct.DataPoint* %68, %1
  br i1 %70, label %71, label %37, !llvm.loop !62

71:                                               ; preds = %63, %35
  %72 = phi %struct.DataPoint* [ %32, %35 ], [ %69, %63 ]
  %73 = getelementptr inbounds %struct.DataPoint, %struct.DataPoint* %72, i64 1
  %74 = icmp eq %struct.DataPoint* %6, %1
  br i1 %74, label %109, label %75

75:                                               ; preds = %71, %101
  %76 = phi %struct.DataPoint* [ %107, %101 ], [ %73, %71 ]
  %77 = phi %struct.DataPoint* [ %106, %101 ], [ %1, %71 ]
  tail call void @llvm.experimental.noalias.scope.decl(metadata !63) #16
  tail call void @llvm.experimental.noalias.scope.decl(metadata !66) #16
  %78 = bitcast %struct.DataPoint* %77 to <2 x %"class.std::__cxx11::basic_string"*>*
  %79 = load <2 x %"class.std::__cxx11::basic_string"*>, <2 x %"class.std::__cxx11::basic_string"*>* %78, align 8, !tbaa !43, !alias.scope !66, !noalias !63
  %80 = bitcast %struct.DataPoint* %76 to <2 x %"class.std::__cxx11::basic_string"*>*
  store <2 x %"class.std::__cxx11::basic_string"*> %79, <2 x %"class.std::__cxx11::basic_string"*>* %80, align 8, !tbaa !43, !alias.scope !63, !noalias !66
  %81 = getelementptr inbounds %struct.DataPoint, %struct.DataPoint* %76, i64 0, i32 0, i32 0, i32 0, i32 0, i32 2
  %82 = getelementptr inbounds %struct.DataPoint, %struct.DataPoint* %77, i64 0, i32 0, i32 0, i32 0, i32 0, i32 2
  %83 = load %"class.std::__cxx11::basic_string"*, %"class.std::__cxx11::basic_string"** %82, align 8, !tbaa !30, !alias.scope !66, !noalias !63
  store %"class.std::__cxx11::basic_string"* %83, %"class.std::__cxx11::basic_string"** %81, align 8, !tbaa !30, !alias.scope !63, !noalias !66
  %84 = bitcast %struct.DataPoint* %77 to i8*
  tail call void @llvm.memset.p0i8.i64(i8* noundef nonnull align 8 dereferenceable(24) %84, i8 0, i64 24, i1 false) #16, !alias.scope !66, !noalias !63
  %85 = getelementptr inbounds %struct.DataPoint, %struct.DataPoint* %76, i64 0, i32 1
  %86 = getelementptr inbounds %struct.DataPoint, %struct.DataPoint* %77, i64 0, i32 1
  %87 = getelementptr inbounds %struct.DataPoint, %struct.DataPoint* %76, i64 0, i32 1, i32 2
  %88 = bitcast %"class.std::__cxx11::basic_string"* %85 to %union.anon**
  store %union.anon* %87, %union.anon** %88, align 8, !tbaa !16, !alias.scope !63, !noalias !66
  %89 = getelementptr inbounds %"class.std::__cxx11::basic_string", %"class.std::__cxx11::basic_string"* %86, i64 0, i32 0, i32 0
  %90 = load i8*, i8** %89, align 8, !tbaa !31, !alias.scope !66, !noalias !63
  %91 = getelementptr inbounds %struct.DataPoint, %struct.DataPoint* %77, i64 0, i32 1, i32 2
  %92 = bitcast %union.anon* %91 to i8*
  %93 = icmp eq i8* %90, %92
  br i1 %93, label %94, label %96

94:                                               ; preds = %75
  %95 = bitcast %union.anon* %87 to i8*
  tail call void @llvm.memcpy.p0i8.p0i8.i64(i8* noundef nonnull align 8 dereferenceable(16) %95, i8* noundef nonnull align 8 dereferenceable(16) %90, i64 16, i1 false) #16
  br label %101

96:                                               ; preds = %75
  %97 = getelementptr inbounds %"class.std::__cxx11::basic_string", %"class.std::__cxx11::basic_string"* %85, i64 0, i32 0, i32 0
  store i8* %90, i8** %97, align 8, !tbaa !31, !alias.scope !63, !noalias !66
  %98 = getelementptr inbounds %struct.DataPoint, %struct.DataPoint* %77, i64 0, i32 1, i32 2, i32 0
  %99 = load i64, i64* %98, align 8, !tbaa !15, !alias.scope !66, !noalias !63
  %100 = getelementptr inbounds %struct.DataPoint, %struct.DataPoint* %76, i64 0, i32 1, i32 2, i32 0
  store i64 %99, i64* %100, align 8, !tbaa !15, !alias.scope !63, !noalias !66
  br label %101

101:                                              ; preds = %96, %94
  %102 = getelementptr inbounds %struct.DataPoint, %struct.DataPoint* %77, i64 0, i32 1, i32 1
  %103 = load i64, i64* %102, align 8, !tbaa !18, !alias.scope !66, !noalias !63
  %104 = getelementptr inbounds %struct.DataPoint, %struct.DataPoint* %76, i64 0, i32 1, i32 1
  store i64 %103, i64* %104, align 8, !tbaa !18, !alias.scope !63, !noalias !66
  %105 = bitcast %"class.std::__cxx11::basic_string"* %86 to %union.anon**
  store %union.anon* %91, %union.anon** %105, align 8, !tbaa !31, !alias.scope !66, !noalias !63
  store i64 0, i64* %102, align 8, !tbaa !18, !alias.scope !66, !noalias !63
  store i8 0, i8* %92, align 8, !tbaa !15, !alias.scope !66, !noalias !63
  %106 = getelementptr inbounds %struct.DataPoint, %struct.DataPoint* %77, i64 1
  %107 = getelementptr inbounds %struct.DataPoint, %struct.DataPoint* %76, i64 1
  %108 = icmp eq %struct.DataPoint* %106, %6
  br i1 %108, label %109, label %75, !llvm.loop !62

109:                                              ; preds = %101, %71
  %110 = phi %struct.DataPoint* [ %73, %71 ], [ %107, %101 ]
  %111 = icmp eq %struct.DataPoint* %8, null
  br i1 %111, label %114, label %112

112:                                              ; preds = %109
  %113 = bitcast %struct.DataPoint* %8 to i8*
  tail call void @_ZdlPv(i8* noundef nonnull %113) #16
  br label %114

114:                                              ; preds = %109, %112
  %115 = getelementptr inbounds %"class.std::vector", %"class.std::vector"* %0, i64 0, i32 0, i32 0, i32 0, i32 2
  store %struct.DataPoint* %32, %struct.DataPoint** %7, align 8, !tbaa !44
  store %struct.DataPoint* %110, %struct.DataPoint** %5, align 8, !tbaa !35
  %116 = getelementptr inbounds %struct.DataPoint, %struct.DataPoint* %32, i64 %22
  store %struct.DataPoint* %116, %struct.DataPoint** %115, align 8, !tbaa !37
  ret void

117:                                              ; preds = %31
  %118 = landingpad { i8*, i32 }
          catch i8* null
  %119 = extractvalue { i8*, i32 } %118, 0
  %120 = tail call i8* @__cxa_begin_catch(i8* %119) #16
  %121 = icmp eq %struct.DataPoint* %32, null
  br i1 %121, label %122, label %125

122:                                              ; preds = %117
  tail call void @_ZNSt16allocator_traitsISaI9DataPointEE7destroyIS0_EEvRS1_PT_(%"class.std::allocator.5"* noundef nonnull align 1 dereferenceable(1) %33, %struct.DataPoint* noundef %34) #16
  br label %127

123:                                              ; preds = %127
  %124 = landingpad { i8*, i32 }
          cleanup
  invoke void @__cxa_end_catch()
          to label %128 unwind label %129

125:                                              ; preds = %117
  %126 = bitcast %struct.DataPoint* %32 to i8*
  tail call void @_ZdlPv(i8* noundef nonnull %126) #16
  br label %127

127:                                              ; preds = %125, %122
  invoke void @__cxa_rethrow() #18
          to label %132 unwind label %123

128:                                              ; preds = %123
  resume { i8*, i32 } %124

129:                                              ; preds = %123
  %130 = landingpad { i8*, i32 }
          catch i8* null
  %131 = extractvalue { i8*, i32 } %130, 0
  tail call void @__clang_call_terminate(i8* %131) #19
  unreachable

132:                                              ; preds = %127
  unreachable
}

; Function Attrs: uwtable
define linkonce_odr dso_local void @_ZN9DataPointC2ERKSt6vectorINSt7__cxx1112basic_stringIcSt11char_traitsIcESaIcEEESaIS6_EERKS6_(%struct.DataPoint* noundef nonnull align 8 dereferenceable(56) %0, %"class.std::vector.0"* noundef nonnull align 8 dereferenceable(24) %1, %"class.std::__cxx11::basic_string"* noundef nonnull align 8 dereferenceable(32) %2) unnamed_addr #6 comdat align 2 personality i8* bitcast (i32 (...)* @__gxx_personality_v0 to i8*) {
  %4 = alloca i64, align 8
  %5 = getelementptr inbounds %struct.DataPoint, %struct.DataPoint* %0, i64 0, i32 0
  %6 = getelementptr inbounds %"class.std::vector.0", %"class.std::vector.0"* %1, i64 0, i32 0, i32 0, i32 0, i32 1
  %7 = load %"class.std::__cxx11::basic_string"*, %"class.std::__cxx11::basic_string"** %6, align 8, !tbaa !28
  %8 = getelementptr inbounds %"class.std::vector.0", %"class.std::vector.0"* %1, i64 0, i32 0, i32 0, i32 0, i32 0
  %9 = load %"class.std::__cxx11::basic_string"*, %"class.std::__cxx11::basic_string"** %8, align 8, !tbaa !38
  %10 = ptrtoint %"class.std::__cxx11::basic_string"* %7 to i64
  %11 = ptrtoint %"class.std::__cxx11::basic_string"* %9 to i64
  %12 = sub i64 %10, %11
  %13 = ashr exact i64 %12, 5
  %14 = bitcast %struct.DataPoint* %0 to i8*
  tail call void @llvm.memset.p0i8.i64(i8* noundef nonnull align 8 dereferenceable(24) %14, i8 0, i64 24, i1 false) #16
  %15 = icmp eq i64 %12, 0
  br i1 %15, label %22, label %16

16:                                               ; preds = %3
  %17 = icmp ugt i64 %12, 9223372036854775776
  br i1 %17, label %18, label %19, !prof !68

18:                                               ; preds = %16
  tail call void @_ZSt28__throw_bad_array_new_lengthv() #18
  unreachable

19:                                               ; preds = %16
  %20 = tail call noalias noundef nonnull i8* @_Znwm(i64 noundef %12) #20
  %21 = bitcast i8* %20 to %"class.std::__cxx11::basic_string"*
  br label %22

22:                                               ; preds = %19, %3
  %23 = phi %"class.std::__cxx11::basic_string"* [ %21, %19 ], [ null, %3 ]
  %24 = getelementptr inbounds %struct.DataPoint, %struct.DataPoint* %0, i64 0, i32 0, i32 0, i32 0, i32 0, i32 0
  store %"class.std::__cxx11::basic_string"* %23, %"class.std::__cxx11::basic_string"** %24, align 8, !tbaa !38
  %25 = getelementptr inbounds %struct.DataPoint, %struct.DataPoint* %0, i64 0, i32 0, i32 0, i32 0, i32 0, i32 1
  store %"class.std::__cxx11::basic_string"* %23, %"class.std::__cxx11::basic_string"** %25, align 8, !tbaa !28
  %26 = getelementptr inbounds %"class.std::__cxx11::basic_string", %"class.std::__cxx11::basic_string"* %23, i64 %13
  %27 = getelementptr inbounds %struct.DataPoint, %struct.DataPoint* %0, i64 0, i32 0, i32 0, i32 0, i32 0, i32 2
  store %"class.std::__cxx11::basic_string"* %26, %"class.std::__cxx11::basic_string"** %27, align 8, !tbaa !30
  %28 = load %"class.std::__cxx11::basic_string"*, %"class.std::__cxx11::basic_string"** %8, align 8, !tbaa !43
  %29 = load %"class.std::__cxx11::basic_string"*, %"class.std::__cxx11::basic_string"** %6, align 8, !tbaa !43
  %30 = invoke noundef %"class.std::__cxx11::basic_string"* @_ZNSt20__uninitialized_copyILb0EE13__uninit_copyIN9__gnu_cxx17__normal_iteratorIPKNSt7__cxx1112basic_stringIcSt11char_traitsIcESaIcEEESt6vectorIS9_SaIS9_EEEEPS9_EET0_T_SI_SH_(%"class.std::__cxx11::basic_string"* %28, %"class.std::__cxx11::basic_string"* %29, %"class.std::__cxx11::basic_string"* noundef %23)
          to label %39 unwind label %31

31:                                               ; preds = %22
  %32 = landingpad { i8*, i32 }
          cleanup
  %33 = load %"class.std::__cxx11::basic_string"*, %"class.std::__cxx11::basic_string"** %24, align 8, !tbaa !38
  %34 = icmp eq %"class.std::__cxx11::basic_string"* %33, null
  br i1 %34, label %37, label %35

35:                                               ; preds = %31
  %36 = bitcast %"class.std::__cxx11::basic_string"* %33 to i8*
  tail call void @_ZdlPv(i8* noundef nonnull %36) #16
  br label %37

37:                                               ; preds = %31, %35, %68
  %38 = phi { i8*, i32 } [ %69, %68 ], [ %32, %35 ], [ %32, %31 ]
  resume { i8*, i32 } %38

39:                                               ; preds = %22
  store %"class.std::__cxx11::basic_string"* %30, %"class.std::__cxx11::basic_string"** %25, align 8, !tbaa !28
  %40 = getelementptr inbounds %struct.DataPoint, %struct.DataPoint* %0, i64 0, i32 1
  %41 = getelementptr inbounds %struct.DataPoint, %struct.DataPoint* %0, i64 0, i32 1, i32 2
  %42 = bitcast %"class.std::__cxx11::basic_string"* %40 to %union.anon**
  store %union.anon* %41, %union.anon** %42, align 8, !tbaa !16
  %43 = getelementptr inbounds %"class.std::__cxx11::basic_string", %"class.std::__cxx11::basic_string"* %2, i64 0, i32 0, i32 0
  %44 = load i8*, i8** %43, align 8, !tbaa !31
  %45 = getelementptr inbounds %"class.std::__cxx11::basic_string", %"class.std::__cxx11::basic_string"* %2, i64 0, i32 1
  %46 = load i64, i64* %45, align 8, !tbaa !18
  %47 = bitcast i64* %4 to i8*
  call void @llvm.lifetime.start.p0i8(i64 8, i8* nonnull %47) #16
  store i64 %46, i64* %4, align 8, !tbaa !32
  %48 = icmp ugt i64 %46, 15
  br i1 %48, label %51, label %49

49:                                               ; preds = %39
  %50 = bitcast %union.anon* %41 to i8*
  br label %57

51:                                               ; preds = %39
  %52 = invoke noundef i8* @_ZNSt7__cxx1112basic_stringIcSt11char_traitsIcESaIcEE9_M_createERmm(%"class.std::__cxx11::basic_string"* noundef nonnull align 8 dereferenceable(32) %40, i64* noundef nonnull align 8 dereferenceable(8) %4, i64 noundef 0)
          to label %53 unwind label %68

53:                                               ; preds = %51
  %54 = getelementptr inbounds %"class.std::__cxx11::basic_string", %"class.std::__cxx11::basic_string"* %40, i64 0, i32 0, i32 0
  store i8* %52, i8** %54, align 8, !tbaa !31
  %55 = load i64, i64* %4, align 8, !tbaa !32
  %56 = getelementptr inbounds %struct.DataPoint, %struct.DataPoint* %0, i64 0, i32 1, i32 2, i32 0
  store i64 %55, i64* %56, align 8, !tbaa !15
  br label %57

57:                                               ; preds = %53, %49
  %58 = phi i8* [ %50, %49 ], [ %52, %53 ]
  switch i64 %46, label %61 [
    i64 1, label %59
    i64 0, label %62
  ]

59:                                               ; preds = %57
  %60 = load i8, i8* %44, align 1, !tbaa !15
  store i8 %60, i8* %58, align 1, !tbaa !15
  br label %62

61:                                               ; preds = %57
  call void @llvm.memcpy.p0i8.p0i8.i64(i8* align 1 %58, i8* align 1 %44, i64 %46, i1 false) #16
  br label %62

62:                                               ; preds = %61, %59, %57
  %63 = getelementptr inbounds %"class.std::__cxx11::basic_string", %"class.std::__cxx11::basic_string"* %40, i64 0, i32 0, i32 0
  %64 = load i64, i64* %4, align 8, !tbaa !32
  %65 = getelementptr inbounds %struct.DataPoint, %struct.DataPoint* %0, i64 0, i32 1, i32 1
  store i64 %64, i64* %65, align 8, !tbaa !18
  %66 = load i8*, i8** %63, align 8, !tbaa !31
  %67 = getelementptr inbounds i8, i8* %66, i64 %64
  store i8 0, i8* %67, align 1, !tbaa !15
  call void @llvm.lifetime.end.p0i8(i64 8, i8* nonnull %47) #16
  ret void

68:                                               ; preds = %51
  %69 = landingpad { i8*, i32 }
          cleanup
  call void @_ZNSt6vectorINSt7__cxx1112basic_stringIcSt11char_traitsIcESaIcEEESaIS5_EED2Ev(%"class.std::vector.0"* noundef nonnull align 8 dereferenceable(24) %5) #16
  br label %37
}

; Function Attrs: uwtable
define linkonce_odr dso_local noundef %"class.std::__cxx11::basic_string"* @_ZNSt20__uninitialized_copyILb0EE13__uninit_copyIN9__gnu_cxx17__normal_iteratorIPKNSt7__cxx1112basic_stringIcSt11char_traitsIcESaIcEEESt6vectorIS9_SaIS9_EEEEPS9_EET0_T_SI_SH_(%"class.std::__cxx11::basic_string"* %0, %"class.std::__cxx11::basic_string"* %1, %"class.std::__cxx11::basic_string"* noundef %2) local_unnamed_addr #6 comdat align 2 personality i8* bitcast (i32 (...)* @__gxx_personality_v0 to i8*) {
  %4 = alloca i64, align 8
  %5 = icmp eq %"class.std::__cxx11::basic_string"* %0, %1
  br i1 %5, label %57, label %6

6:                                                ; preds = %3
  %7 = bitcast i64* %4 to i8*
  br label %8

8:                                                ; preds = %6, %31
  %9 = phi %"class.std::__cxx11::basic_string"* [ %2, %6 ], [ %38, %31 ]
  %10 = phi %"class.std::__cxx11::basic_string"* [ %0, %6 ], [ %37, %31 ]
  %11 = getelementptr inbounds %"class.std::__cxx11::basic_string", %"class.std::__cxx11::basic_string"* %9, i64 0, i32 2
  %12 = bitcast %"class.std::__cxx11::basic_string"* %9 to %union.anon**
  store %union.anon* %11, %union.anon** %12, align 8, !tbaa !16
  %13 = getelementptr inbounds %"class.std::__cxx11::basic_string", %"class.std::__cxx11::basic_string"* %10, i64 0, i32 0, i32 0
  %14 = load i8*, i8** %13, align 8, !tbaa !31
  %15 = getelementptr inbounds %"class.std::__cxx11::basic_string", %"class.std::__cxx11::basic_string"* %10, i64 0, i32 1
  %16 = load i64, i64* %15, align 8, !tbaa !18
  call void @llvm.lifetime.start.p0i8(i64 8, i8* nonnull %7) #16
  store i64 %16, i64* %4, align 8, !tbaa !32
  %17 = icmp ugt i64 %16, 15
  br i1 %17, label %20, label %18

18:                                               ; preds = %8
  %19 = bitcast %union.anon* %11 to i8*
  br label %26

20:                                               ; preds = %8
  %21 = invoke noundef i8* @_ZNSt7__cxx1112basic_stringIcSt11char_traitsIcESaIcEE9_M_createERmm(%"class.std::__cxx11::basic_string"* noundef nonnull align 8 dereferenceable(32) %9, i64* noundef nonnull align 8 dereferenceable(8) %4, i64 noundef 0)
          to label %22 unwind label %40

22:                                               ; preds = %20
  %23 = getelementptr inbounds %"class.std::__cxx11::basic_string", %"class.std::__cxx11::basic_string"* %9, i64 0, i32 0, i32 0
  store i8* %21, i8** %23, align 8, !tbaa !31
  %24 = load i64, i64* %4, align 8, !tbaa !32
  %25 = getelementptr inbounds %"class.std::__cxx11::basic_string", %"class.std::__cxx11::basic_string"* %9, i64 0, i32 2, i32 0
  store i64 %24, i64* %25, align 8, !tbaa !15
  br label %26

26:                                               ; preds = %22, %18
  %27 = phi i8* [ %19, %18 ], [ %21, %22 ]
  switch i64 %16, label %30 [
    i64 1, label %28
    i64 0, label %31
  ]

28:                                               ; preds = %26
  %29 = load i8, i8* %14, align 1, !tbaa !15
  store i8 %29, i8* %27, align 1, !tbaa !15
  br label %31

30:                                               ; preds = %26
  call void @llvm.memcpy.p0i8.p0i8.i64(i8* align 1 %27, i8* align 1 %14, i64 %16, i1 false) #16
  br label %31

31:                                               ; preds = %30, %28, %26
  %32 = getelementptr inbounds %"class.std::__cxx11::basic_string", %"class.std::__cxx11::basic_string"* %9, i64 0, i32 0, i32 0
  %33 = load i64, i64* %4, align 8, !tbaa !32
  %34 = getelementptr inbounds %"class.std::__cxx11::basic_string", %"class.std::__cxx11::basic_string"* %9, i64 0, i32 1
  store i64 %33, i64* %34, align 8, !tbaa !18
  %35 = load i8*, i8** %32, align 8, !tbaa !31
  %36 = getelementptr inbounds i8, i8* %35, i64 %33
  store i8 0, i8* %36, align 1, !tbaa !15
  call void @llvm.lifetime.end.p0i8(i64 8, i8* nonnull %7) #16
  %37 = getelementptr inbounds %"class.std::__cxx11::basic_string", %"class.std::__cxx11::basic_string"* %10, i64 1
  %38 = getelementptr inbounds %"class.std::__cxx11::basic_string", %"class.std::__cxx11::basic_string"* %9, i64 1
  %39 = icmp eq %"class.std::__cxx11::basic_string"* %37, %1
  br i1 %39, label %57, label %8, !llvm.loop !69

40:                                               ; preds = %20
  %41 = landingpad { i8*, i32 }
          catch i8* null
  %42 = extractvalue { i8*, i32 } %41, 0
  %43 = call i8* @__cxa_begin_catch(i8* %42) #16
  %44 = icmp eq %"class.std::__cxx11::basic_string"* %9, %2
  br i1 %44, label %56, label %45

45:                                               ; preds = %40, %53
  %46 = phi %"class.std::__cxx11::basic_string"* [ %54, %53 ], [ %2, %40 ]
  %47 = getelementptr inbounds %"class.std::__cxx11::basic_string", %"class.std::__cxx11::basic_string"* %46, i64 0, i32 0, i32 0
  %48 = load i8*, i8** %47, align 8, !tbaa !31
  %49 = getelementptr inbounds %"class.std::__cxx11::basic_string", %"class.std::__cxx11::basic_string"* %46, i64 0, i32 2
  %50 = bitcast %union.anon* %49 to i8*
  %51 = icmp eq i8* %48, %50
  br i1 %51, label %53, label %52

52:                                               ; preds = %45
  call void @_ZdlPv(i8* noundef %48) #16
  br label %53

53:                                               ; preds = %52, %45
  %54 = getelementptr inbounds %"class.std::__cxx11::basic_string", %"class.std::__cxx11::basic_string"* %46, i64 1
  %55 = icmp eq %"class.std::__cxx11::basic_string"* %54, %9
  br i1 %55, label %56, label %45, !llvm.loop !39

56:                                               ; preds = %53, %40
  invoke void @__cxa_rethrow() #18
          to label %65 unwind label %59

57:                                               ; preds = %31, %3
  %58 = phi %"class.std::__cxx11::basic_string"* [ %2, %3 ], [ %38, %31 ]
  ret %"class.std::__cxx11::basic_string"* %58

59:                                               ; preds = %56
  %60 = landingpad { i8*, i32 }
          cleanup
  invoke void @__cxa_end_catch()
          to label %61 unwind label %62

61:                                               ; preds = %59
  resume { i8*, i32 } %60

62:                                               ; preds = %59
  %63 = landingpad { i8*, i32 }
          catch i8* null
  %64 = extractvalue { i8*, i32 } %63, 0
  call void @__clang_call_terminate(i8* %64) #19
  unreachable

65:                                               ; preds = %56
  unreachable
}

; Function Attrs: nounwind uwtable
define linkonce_odr dso_local void @_ZNSt16allocator_traitsISaI9DataPointEE7destroyIS0_EEvRS1_PT_(%"class.std::allocator.5"* noundef nonnull align 1 dereferenceable(1) %0, %struct.DataPoint* noundef %1) local_unnamed_addr #7 comdat align 2 personality i32 (...)* @__gxx_personality_v0 {
  %3 = getelementptr inbounds %struct.DataPoint, %struct.DataPoint* %1, i64 0, i32 1, i32 0, i32 0
  %4 = load i8*, i8** %3, align 8, !tbaa !31
  %5 = getelementptr inbounds %struct.DataPoint, %struct.DataPoint* %1, i64 0, i32 1, i32 2
  %6 = bitcast %union.anon* %5 to i8*
  %7 = icmp eq i8* %4, %6
  br i1 %7, label %9, label %8

8:                                                ; preds = %2
  tail call void @_ZdlPv(i8* noundef %4) #16
  br label %9

9:                                                ; preds = %8, %2
  %10 = getelementptr inbounds %struct.DataPoint, %struct.DataPoint* %1, i64 0, i32 0, i32 0, i32 0, i32 0, i32 0
  %11 = load %"class.std::__cxx11::basic_string"*, %"class.std::__cxx11::basic_string"** %10, align 8, !tbaa !38
  %12 = getelementptr inbounds %struct.DataPoint, %struct.DataPoint* %1, i64 0, i32 0, i32 0, i32 0, i32 0, i32 1
  %13 = load %"class.std::__cxx11::basic_string"*, %"class.std::__cxx11::basic_string"** %12, align 8, !tbaa !28
  %14 = icmp eq %"class.std::__cxx11::basic_string"* %11, %13
  br i1 %14, label %28, label %15

15:                                               ; preds = %9, %23
  %16 = phi %"class.std::__cxx11::basic_string"* [ %24, %23 ], [ %11, %9 ]
  %17 = getelementptr inbounds %"class.std::__cxx11::basic_string", %"class.std::__cxx11::basic_string"* %16, i64 0, i32 0, i32 0
  %18 = load i8*, i8** %17, align 8, !tbaa !31
  %19 = getelementptr inbounds %"class.std::__cxx11::basic_string", %"class.std::__cxx11::basic_string"* %16, i64 0, i32 2
  %20 = bitcast %union.anon* %19 to i8*
  %21 = icmp eq i8* %18, %20
  br i1 %21, label %23, label %22

22:                                               ; preds = %15
  tail call void @_ZdlPv(i8* noundef %18) #16
  br label %23

23:                                               ; preds = %22, %15
  %24 = getelementptr inbounds %"class.std::__cxx11::basic_string", %"class.std::__cxx11::basic_string"* %16, i64 1
  %25 = icmp eq %"class.std::__cxx11::basic_string"* %24, %13
  br i1 %25, label %26, label %15, !llvm.loop !39

26:                                               ; preds = %23
  %27 = load %"class.std::__cxx11::basic_string"*, %"class.std::__cxx11::basic_string"** %10, align 8, !tbaa !38
  br label %28

28:                                               ; preds = %26, %9
  %29 = phi %"class.std::__cxx11::basic_string"* [ %27, %26 ], [ %11, %9 ]
  %30 = icmp eq %"class.std::__cxx11::basic_string"* %29, null
  br i1 %30, label %33, label %31

31:                                               ; preds = %28
  %32 = bitcast %"class.std::__cxx11::basic_string"* %29 to i8*
  tail call void @_ZdlPv(i8* noundef nonnull %32) #16
  br label %33

33:                                               ; preds = %28, %31
  ret void
}

; Function Attrs: nounwind
declare noundef i32 @_ZNKSt7__cxx1112basic_stringIcSt11char_traitsIcESaIcEE7compareEPKc(%"class.std::__cxx11::basic_string"* noundef nonnull align 8 dereferenceable(32), i8* noundef) local_unnamed_addr #1

declare noundef nonnull align 8 dereferenceable(8) %"class.std::basic_ostream"* @_ZNSo9_M_insertIdEERSoT_(%"class.std::basic_ostream"* noundef nonnull align 8 dereferenceable(8), double noundef) local_unnamed_addr #0

; Function Attrs: uwtable
define internal void @_GLOBAL__sub_I_source.cpp() #6 section ".text.startup" {
  tail call void @_ZNSt8ios_base4InitC1Ev(%"class.std::ios_base::Init"* noundef nonnull align 1 dereferenceable(1) @_ZStL8__ioinit)
  %1 = tail call i32 @__cxa_atexit(void (i8*)* bitcast (void (%"class.std::ios_base::Init"*)* @_ZNSt8ios_base4InitD1Ev to void (i8*)*), i8* getelementptr inbounds (%"class.std::ios_base::Init", %"class.std::ios_base::Init"* @_ZStL8__ioinit, i64 0, i32 0), i8* nonnull @__dso_handle) #16
  ret void
}

; Function Attrs: argmemonly nofree nounwind willreturn writeonly
declare void @llvm.memset.p0i8.i64(i8* nocapture writeonly, i8, i64, i1 immarg) #14

; Function Attrs: inaccessiblememonly nofree nosync nounwind willreturn
declare void @llvm.experimental.noalias.scope.decl(metadata) #15

attributes #0 = { "frame-pointer"="none" "no-trapping-math"="true" "stack-protector-buffer-size"="8" "target-cpu"="x86-64" "target-features"="+cx8,+fxsr,+mmx,+sse,+sse2,+x87" "tune-cpu"="generic" }
attributes #1 = { nounwind "frame-pointer"="none" "no-trapping-math"="true" "stack-protector-buffer-size"="8" "target-cpu"="x86-64" "target-features"="+cx8,+fxsr,+mmx,+sse,+sse2,+x87" "tune-cpu"="generic" }
attributes #2 = { nofree nounwind }
attributes #3 = { mustprogress nounwind uwtable "frame-pointer"="none" "min-legal-vector-width"="0" "no-trapping-math"="true" "stack-protector-buffer-size"="8" "target-cpu"="x86-64" "target-features"="+cx8,+fxsr,+mmx,+sse,+sse2,+x87" "tune-cpu"="generic" }
attributes #4 = { norecurse uwtable "frame-pointer"="none" "min-legal-vector-width"="0" "no-trapping-math"="true" "stack-protector-buffer-size"="8" "target-cpu"="x86-64" "target-features"="+cx8,+fxsr,+mmx,+sse,+sse2,+x87" "tune-cpu"="generic" }
attributes #5 = { argmemonly mustprogress nofree nosync nounwind willreturn }
attributes #6 = { uwtable "frame-pointer"="none" "min-legal-vector-width"="0" "no-trapping-math"="true" "stack-protector-buffer-size"="8" "target-cpu"="x86-64" "target-features"="+cx8,+fxsr,+mmx,+sse,+sse2,+x87" "tune-cpu"="generic" }
attributes #7 = { nounwind uwtable "frame-pointer"="none" "min-legal-vector-width"="0" "no-trapping-math"="true" "stack-protector-buffer-size"="8" "target-cpu"="x86-64" "target-features"="+cx8,+fxsr,+mmx,+sse,+sse2,+x87" "tune-cpu"="generic" }
attributes #8 = { noinline noreturn nounwind }
attributes #9 = { nobuiltin nounwind "frame-pointer"="none" "no-trapping-math"="true" "stack-protector-buffer-size"="8" "target-cpu"="x86-64" "target-features"="+cx8,+fxsr,+mmx,+sse,+sse2,+x87" "tune-cpu"="generic" }
attributes #10 = { mustprogress nofree nounwind readonly willreturn "frame-pointer"="none" "no-trapping-math"="true" "stack-protector-buffer-size"="8" "target-cpu"="x86-64" "target-features"="+cx8,+fxsr,+mmx,+sse,+sse2,+x87" "tune-cpu"="generic" }
attributes #11 = { noreturn "frame-pointer"="none" "no-trapping-math"="true" "stack-protector-buffer-size"="8" "target-cpu"="x86-64" "target-features"="+cx8,+fxsr,+mmx,+sse,+sse2,+x87" "tune-cpu"="generic" }
attributes #12 = { argmemonly mustprogress nofree nounwind willreturn }
attributes #13 = { nobuiltin allocsize(0) "frame-pointer"="none" "no-trapping-math"="true" "stack-protector-buffer-size"="8" "target-cpu"="x86-64" "target-features"="+cx8,+fxsr,+mmx,+sse,+sse2,+x87" "tune-cpu"="generic" }
attributes #14 = { argmemonly nofree nounwind willreturn writeonly }
attributes #15 = { inaccessiblememonly nofree nosync nounwind willreturn }
attributes #16 = { nounwind }
attributes #17 = { nounwind readonly willreturn }
attributes #18 = { noreturn }
attributes #19 = { noreturn nounwind }
attributes #20 = { allocsize(0) }

!llvm.module.flags = !{!0, !1, !2, !3}
!llvm.ident = !{!4}

!0 = !{i32 1, !"wchar_size", i32 4}
!1 = !{i32 7, !"PIC Level", i32 2}
!2 = !{i32 7, !"PIE Level", i32 2}
!3 = !{i32 7, !"uwtable", i32 1}
!4 = !{!"Ubuntu clang version 14.0.0-1ubuntu1.1"}
!5 = !{!6, !6, i64 0}
!6 = !{!"vtable pointer", !7, i64 0}
!7 = !{!"Simple C++ TBAA"}
!8 = !{!9, !10, i64 240}
!9 = !{!"_ZTSSt9basic_iosIcSt11char_traitsIcEE", !10, i64 216, !11, i64 224, !12, i64 225, !10, i64 232, !10, i64 240, !10, i64 248, !10, i64 256}
!10 = !{!"any pointer", !11, i64 0}
!11 = !{!"omnipotent char", !7, i64 0}
!12 = !{!"bool", !11, i64 0}
!13 = !{!14, !11, i64 56}
!14 = !{!"_ZTSSt5ctypeIcE", !10, i64 16, !12, i64 24, !10, i64 32, !10, i64 40, !10, i64 48, !11, i64 56, !11, i64 57, !11, i64 313, !11, i64 569}
!15 = !{!11, !11, i64 0}
!16 = !{!17, !10, i64 0}
!17 = !{!"_ZTSNSt7__cxx1112basic_stringIcSt11char_traitsIcESaIcEE12_Alloc_hiderE", !10, i64 0}
!18 = !{!19, !20, i64 8}
!19 = !{!"_ZTSNSt7__cxx1112basic_stringIcSt11char_traitsIcESaIcEEE", !17, i64 0, !20, i64 8, !11, i64 16}
!20 = !{!"long", !11, i64 0}
!21 = !{!22, !24, i64 32}
!22 = !{!"_ZTSSt8ios_base", !20, i64 8, !20, i64 16, !23, i64 24, !24, i64 28, !24, i64 32, !10, i64 40, !25, i64 48, !11, i64 64, !26, i64 192, !10, i64 200, !27, i64 208}
!23 = !{!"_ZTSSt13_Ios_Fmtflags", !11, i64 0}
!24 = !{!"_ZTSSt12_Ios_Iostate", !11, i64 0}
!25 = !{!"_ZTSNSt8ios_base6_WordsE", !10, i64 0, !20, i64 8}
!26 = !{!"int", !11, i64 0}
!27 = !{!"_ZTSSt6locale", !10, i64 0}
!28 = !{!29, !10, i64 8}
!29 = !{!"_ZTSNSt12_Vector_baseINSt7__cxx1112basic_stringIcSt11char_traitsIcESaIcEEESaIS5_EE17_Vector_impl_dataE", !10, i64 0, !10, i64 8, !10, i64 16}
!30 = !{!29, !10, i64 16}
!31 = !{!19, !10, i64 0}
!32 = !{!20, !20, i64 0}
!33 = distinct !{!33, !34}
!34 = !{!"llvm.loop.mustprogress"}
!35 = !{!36, !10, i64 8}
!36 = !{!"_ZTSNSt12_Vector_baseI9DataPointSaIS0_EE17_Vector_impl_dataE", !10, i64 0, !10, i64 8, !10, i64 16}
!37 = !{!36, !10, i64 16}
!38 = !{!29, !10, i64 0}
!39 = distinct !{!39, !34}
!40 = !{!41, !20, i64 8}
!41 = !{!"_ZTSSi", !20, i64 8}
!42 = distinct !{!42, !34}
!43 = !{!10, !10, i64 0}
!44 = !{!36, !10, i64 0}
!45 = distinct !{!45, !34}
!46 = !{!47}
!47 = distinct !{!47, !48, !"_ZSt19__relocate_object_aINSt7__cxx1112basic_stringIcSt11char_traitsIcESaIcEEES5_SaIS5_EEvPT_PT0_RT1_: argument 0"}
!48 = distinct !{!48, !"_ZSt19__relocate_object_aINSt7__cxx1112basic_stringIcSt11char_traitsIcESaIcEEES5_SaIS5_EEvPT_PT0_RT1_"}
!49 = !{!50}
!50 = distinct !{!50, !48, !"_ZSt19__relocate_object_aINSt7__cxx1112basic_stringIcSt11char_traitsIcESaIcEEES5_SaIS5_EEvPT_PT0_RT1_: argument 1"}
!51 = distinct !{!51, !34}
!52 = !{!53}
!53 = distinct !{!53, !54, !"_ZSt19__relocate_object_aINSt7__cxx1112basic_stringIcSt11char_traitsIcESaIcEEES5_SaIS5_EEvPT_PT0_RT1_: argument 0"}
!54 = distinct !{!54, !"_ZSt19__relocate_object_aINSt7__cxx1112basic_stringIcSt11char_traitsIcESaIcEEES5_SaIS5_EEvPT_PT0_RT1_"}
!55 = !{!56}
!56 = distinct !{!56, !54, !"_ZSt19__relocate_object_aINSt7__cxx1112basic_stringIcSt11char_traitsIcESaIcEEES5_SaIS5_EEvPT_PT0_RT1_: argument 1"}
!57 = !{!58}
!58 = distinct !{!58, !59, !"_ZSt19__relocate_object_aI9DataPointS0_SaIS0_EEvPT_PT0_RT1_: argument 0"}
!59 = distinct !{!59, !"_ZSt19__relocate_object_aI9DataPointS0_SaIS0_EEvPT_PT0_RT1_"}
!60 = !{!61}
!61 = distinct !{!61, !59, !"_ZSt19__relocate_object_aI9DataPointS0_SaIS0_EEvPT_PT0_RT1_: argument 1"}
!62 = distinct !{!62, !34}
!63 = !{!64}
!64 = distinct !{!64, !65, !"_ZSt19__relocate_object_aI9DataPointS0_SaIS0_EEvPT_PT0_RT1_: argument 0"}
!65 = distinct !{!65, !"_ZSt19__relocate_object_aI9DataPointS0_SaIS0_EEvPT_PT0_RT1_"}
!66 = !{!67}
!67 = distinct !{!67, !65, !"_ZSt19__relocate_object_aI9DataPointS0_SaIS0_EEvPT_PT0_RT1_: argument 1"}
!68 = !{!"branch_weights", i32 1, i32 2000}
!69 = distinct !{!69, !34}
